;
; Definition file of libheif-1.dll
; Automatic generated by gendef
; written by Kai Tietz 2008
;
LIBRARY "libheif-1.dll"
EXPORTS
_Z11from_fourccPKc
_Z13aom_push_dataPvPKvy
_Z15aom_new_decoderPPv
_Z15aom_new_encoderPPv
_Z16aom_decode_imagePvPP10heif_image
_Z16aom_encode_imagePvPK10heif_image22heif_image_input_class
_Z16aom_free_decoderPv
_Z16aom_free_encoderPv
_Z19aom_list_parametersPv
_Z22aom_query_encoded_sizePvjjPjS0_
_Z22get_decoder_plugin_aomv
_Z22get_encoder_plugin_aomv
_Z23aom_get_compressed_dataPvPPhPiP22heif_encoded_data_type
_Z23aom_set_strict_decodingPvi
_Z24aom_get_parameter_stringPvPKcPci
_Z24aom_set_parameter_stringPvPKcS1_
_Z25aom_get_parameter_booleanPvPKcPi
_Z25aom_get_parameter_integerPvPKcPi
_Z25aom_get_parameter_qualityPvPi
_Z25aom_set_parameter_booleanPvPKci
_Z25aom_set_parameter_integerPvPKci
_Z25aom_set_parameter_qualityPvi
_Z25heif_fourcc_to_brand_enumPKc
_Z26aom_get_parameter_losslessPvPi
_Z26aom_query_input_colorspaceP15heif_colorspaceP11heif_chroma
_Z26aom_set_parameter_losslessPvi
_Z27aom_query_input_colorspace2PvP15heif_colorspaceP11heif_chroma
_Z31aom_get_parameter_logging_levelPvPi
_Z31aom_set_parameter_logging_levelPvi
_Z6is_pngPKhi
_Z7is_jpegPKhi
_ZN10heif_imageD2Ev
_ZN12ImageOverlay5parseEyRKNSt3__16vectorIhNS0_9allocatorIhEEEE
_ZN12heif_encoder5allocEv
_ZN12heif_encoder7releaseEv
_ZN12heif_encoderC1EPK19heif_encoder_plugin
_ZN12heif_encoderC2EPK19heif_encoder_plugin
_ZN12heif_encoderD1Ev
_ZN12heif_encoderD2Ev
_ZN13custom_optionD2Ev
_ZN15Op_RGB_to_YCbCrIhE18convert_colorspaceERKNSt3__110shared_ptrIKN4heif14HeifPixelImageEEERKNS3_10ColorStateERKNS3_22ColorConversionOptionsE
_ZN15Op_RGB_to_YCbCrIhE22state_after_conversionERKN4heif10ColorStateES4_RKNS1_22ColorConversionOptionsE
_ZN15Op_RGB_to_YCbCrIhED0Ev
_ZN15Op_RGB_to_YCbCrItE18convert_colorspaceERKNSt3__110shared_ptrIKN4heif14HeifPixelImageEEERKNS3_10ColorStateERKNS3_22ColorConversionOptionsE
_ZN15Op_RGB_to_YCbCrItE22state_after_conversionERKN4heif10ColorStateES4_RKNS1_22ColorConversionOptionsE
_ZN15Op_RGB_to_YCbCrItED0Ev
_ZN15Op_YCbCr_to_RGBIhE18convert_colorspaceERKNSt3__110shared_ptrIKN4heif14HeifPixelImageEEERKNS3_10ColorStateERKNS3_22ColorConversionOptionsE
_ZN15Op_YCbCr_to_RGBIhE22state_after_conversionERKN4heif10ColorStateES4_RKNS1_22ColorConversionOptionsE
_ZN15Op_YCbCr_to_RGBIhED0Ev
_ZN15Op_YCbCr_to_RGBItE18convert_colorspaceERKNSt3__110shared_ptrIKN4heif14HeifPixelImageEEERKNS3_10ColorStateERKNS3_22ColorConversionOptionsE
_ZN15Op_YCbCr_to_RGBItE22state_after_conversionERKN4heif10ColorStateES4_RKNS1_22ColorConversionOptionsE
_ZN15Op_YCbCr_to_RGBItED0Ev
_ZN16Op_to_hdr_planes18convert_colorspaceERKNSt3__110shared_ptrIKN4heif14HeifPixelImageEEERKNS2_10ColorStateERKNS2_22ColorConversionOptionsE
_ZN16Op_to_hdr_planes22state_after_conversionERKN4heif10ColorStateES3_RKNS0_22ColorConversionOptionsE
_ZN16Op_to_hdr_planesD0Ev
_ZN16Op_to_sdr_planes18convert_colorspaceERKNSt3__110shared_ptrIKN4heif14HeifPixelImageEEERKNS2_10ColorStateERKNS2_22ColorConversionOptionsE
_ZN16Op_to_sdr_planes22state_after_conversionERKN4heif10ColorStateES3_RKNS0_22ColorConversionOptionsE
_ZN16Op_to_sdr_planesD0Ev
_ZN18Op_RGB_to_RGB24_3218convert_colorspaceERKNSt3__110shared_ptrIKN4heif14HeifPixelImageEEERKNS2_10ColorStateERKNS2_22ColorConversionOptionsE
_ZN18Op_RGB_to_RGB24_3222state_after_conversionERKN4heif10ColorStateES3_RKNS0_22ColorConversionOptionsE
_ZN18Op_RGB_to_RGB24_32D0Ev
_ZN18encoder_struct_aom17add_custom_optionENSt3__112basic_stringIcNS0_11char_traitsIcEENS0_9allocatorIcEEEES6_
_ZN18encoder_struct_aom17add_custom_optionERK13custom_option
_ZN19Op_drop_alpha_plane18convert_colorspaceERKNSt3__110shared_ptrIKN4heif14HeifPixelImageEEERKNS2_10ColorStateERKNS2_22ColorConversionOptionsE
_ZN19Op_drop_alpha_plane22state_after_conversionERKN4heif10ColorStateES3_RKNS0_22ColorConversionOptionsE
_ZN19Op_drop_alpha_planeD0Ev
_ZN19Op_mono_to_RGB24_3218convert_colorspaceERKNSt3__110shared_ptrIKN4heif14HeifPixelImageEEERKNS2_10ColorStateERKNS2_22ColorConversionOptionsE
_ZN19Op_mono_to_RGB24_3222state_after_conversionERKN4heif10ColorStateES3_RKNS0_22ColorConversionOptionsE
_ZN19Op_mono_to_RGB24_32D0Ev
_ZN19Op_mono_to_YCbCr42018convert_colorspaceERKNSt3__110shared_ptrIKN4heif14HeifPixelImageEEERKNS2_10ColorStateERKNS2_22ColorConversionOptionsE
_ZN19Op_mono_to_YCbCr42022state_after_conversionERKN4heif10ColorStateES3_RKNS0_22ColorConversionOptionsE
_ZN19Op_mono_to_YCbCr420D0Ev
_ZN20Op_RGB24_32_to_YCbCr18convert_colorspaceERKNSt3__110shared_ptrIKN4heif14HeifPixelImageEEERKNS2_10ColorStateERKNS2_22ColorConversionOptionsE
_ZN20Op_RGB24_32_to_YCbCr22state_after_conversionERKN4heif10ColorStateES3_RKNS0_22ColorConversionOptionsE
_ZN20Op_RGB24_32_to_YCbCrD0Ev
_ZN20Op_YCbCr420_to_RGB2418convert_colorspaceERKNSt3__110shared_ptrIKN4heif14HeifPixelImageEEERKNS2_10ColorStateERKNS2_22ColorConversionOptionsE
_ZN20Op_YCbCr420_to_RGB2422state_after_conversionERKN4heif10ColorStateES3_RKNS0_22ColorConversionOptionsE
_ZN20Op_YCbCr420_to_RGB24D0Ev
_ZN20Op_YCbCr420_to_RGB3218convert_colorspaceERKNSt3__110shared_ptrIKN4heif14HeifPixelImageEEERKNS2_10ColorStateERKNS2_22ColorConversionOptionsE
_ZN20Op_YCbCr420_to_RGB3222state_after_conversionERKN4heif10ColorStateES3_RKNS0_22ColorConversionOptionsE
_ZN20Op_YCbCr420_to_RGB32D0Ev
_ZN21Op_RGB_to_RRGGBBaa_BE18convert_colorspaceERKNSt3__110shared_ptrIKN4heif14HeifPixelImageEEERKNS2_10ColorStateERKNS2_22ColorConversionOptionsE
_ZN21Op_RGB_to_RRGGBBaa_BE22state_after_conversionERKN4heif10ColorStateES3_RKNS0_22ColorConversionOptionsE
_ZN21Op_RGB_to_RRGGBBaa_BED0Ev
_ZN23Op_YCbCr420_to_RRGGBBaa18convert_colorspaceERKNSt3__110shared_ptrIKN4heif14HeifPixelImageEEERKNS2_10ColorStateERKNS2_22ColorConversionOptionsE
_ZN23Op_YCbCr420_to_RRGGBBaa22state_after_conversionERKN4heif10ColorStateES3_RKNS0_22ColorConversionOptionsE
_ZN23Op_YCbCr420_to_RRGGBBaaD0Ev
_ZN25Op_RGB_HDR_to_RRGGBBaa_BE18convert_colorspaceERKNSt3__110shared_ptrIKN4heif14HeifPixelImageEEERKNS2_10ColorStateERKNS2_22ColorConversionOptionsE
_ZN25Op_RGB_HDR_to_RRGGBBaa_BE22state_after_conversionERKN4heif10ColorStateES3_RKNS0_22ColorConversionOptionsE
_ZN25Op_RGB_HDR_to_RRGGBBaa_BED0Ev
_ZN25Op_RRGGBBaa_BE_to_RGB_HDR18convert_colorspaceERKNSt3__110shared_ptrIKN4heif14HeifPixelImageEEERKNS2_10ColorStateERKNS2_22ColorConversionOptionsE
_ZN25Op_RRGGBBaa_BE_to_RGB_HDR22state_after_conversionERKN4heif10ColorStateES3_RKNS0_22ColorConversionOptionsE
_ZN25Op_RRGGBBaa_BE_to_RGB_HDRD0Ev
_ZN27Op_RGB24_32_to_YCbCr444_GBR18convert_colorspaceERKNSt3__110shared_ptrIKN4heif14HeifPixelImageEEERKNS2_10ColorStateERKNS2_22ColorConversionOptionsE
_ZN27Op_RGB24_32_to_YCbCr444_GBR22state_after_conversionERKN4heif10ColorStateES3_RKNS0_22ColorConversionOptionsE
_ZN27Op_RGB24_32_to_YCbCr444_GBRD0Ev
_ZN27Op_RRGGBBaa_swap_endianness18convert_colorspaceERKNSt3__110shared_ptrIKN4heif14HeifPixelImageEEERKNS2_10ColorStateERKNS2_22ColorConversionOptionsE
_ZN27Op_RRGGBBaa_swap_endianness22state_after_conversionERKN4heif10ColorStateES3_RKNS0_22ColorConversionOptionsE
_ZN27Op_RRGGBBaa_swap_endiannessD0Ev
_ZN27Op_RRGGBBxx_HDR_to_YCbCr42018convert_colorspaceERKNSt3__110shared_ptrIKN4heif14HeifPixelImageEEERKNS2_10ColorStateERKNS2_22ColorConversionOptionsE
_ZN27Op_RRGGBBxx_HDR_to_YCbCr42022state_after_conversionERKN4heif10ColorStateES3_RKNS0_22ColorConversionOptionsE
_ZN27Op_RRGGBBxx_HDR_to_YCbCr420D0Ev
_ZN4NodeD2Ev
_ZN4heif10ColorStateD2Ev
_ZN4heif10SEIMessageD2Ev
_ZN4heif11HeifContext12encode_imageERKNSt3__110shared_ptrINS_14HeifPixelImageEEEP12heif_encoderPK21heif_encoding_options22heif_image_input_classRNS2_INS0_5ImageEEE
_ZN4heif11HeifContext14read_from_fileEPKc
_ZN4heif11HeifContext16add_XMP_metadataERKNSt3__110shared_ptrINS0_5ImageEEEPKvi
_ZN4heif11HeifContext16assign_thumbnailERKNSt3__110shared_ptrINS0_5ImageEEES6_
_ZN4heif11HeifContext16encode_thumbnailERKNSt3__110shared_ptrINS_14HeifPixelImageEEEP12heif_encoderPK21heif_encoding_optionsiRNS2_INS0_5ImageEEE
_ZN4heif11HeifContext16read_from_memoryEPKvyb
_ZN4heif11HeifContext16register_decoderEPK19heif_decoder_plugin
_ZN4heif11HeifContext16set_primary_itemEj
_ZN4heif11HeifContext17add_exif_metadataERKNSt3__110shared_ptrINS0_5ImageEEEPKvi
_ZN4heif11HeifContext17set_primary_imageERKNSt3__110shared_ptrINS0_5ImageEEE
_ZN4heif11HeifContext19encode_image_as_av1ERKNSt3__110shared_ptrINS_14HeifPixelImageEEEP12heif_encoderPK21heif_encoding_options22heif_image_input_classRNS2_INS0_5ImageEEE
_ZN4heif11HeifContext19interpret_heif_fileEv
_ZN4heif11HeifContext19reset_to_empty_heifEv
_ZN4heif11HeifContext20add_generic_metadataERKNSt3__110shared_ptrINS0_5ImageEEEPKviPKcSA_
_ZN4heif11HeifContext20encode_image_as_hevcERKNSt3__110shared_ptrINS_14HeifPixelImageEEEP12heif_encoderPK21heif_encoding_options22heif_image_input_classRNS2_INS0_5ImageEEE
_ZN4heif11HeifContext22remove_top_level_imageERKNSt3__110shared_ptrINS0_5ImageEEE
_ZN4heif11HeifContext4readERKNSt3__110shared_ptrINS_12StreamReaderEEE
_ZN4heif11HeifContext5Image17set_color_profileERKNSt3__110shared_ptrIKNS_13color_profileEEE
_ZN4heif11HeifContext5Image25set_preencoded_hevc_imageERKNSt3__16vectorIhNS2_9allocatorIhEEEE
_ZN4heif11HeifContext5Image5clearEv
_ZN4heif11HeifContext5ImageC1EPS0_j
_ZN4heif11HeifContext5ImageC2EPS0_j
_ZN4heif11HeifContext5ImageD1Ev
_ZN4heif11HeifContext5ImageD2Ev
_ZN4heif11HeifContext5writeERNS_12StreamWriterE
_ZN4heif11HeifContextC1Ev
_ZN4heif11HeifContextC2Ev
_ZN4heif11HeifContextD1Ev
_ZN4heif11HeifContextD2Ev
_ZN4heif11get_decoderE23heif_compression_format
_ZN4heif11get_encoderE23heif_compression_format
_ZN4heif12StreamReaderD2Ev
_ZN4heif12StreamWriter4skipEi
_ZN4heif12StreamWriter5writeERKNSt3__112basic_stringIcNS1_11char_traitsIcEENS1_9allocatorIcEEEE
_ZN4heif12StreamWriter5writeERKNSt3__16vectorIhNS1_9allocatorIhEEEE
_ZN4heif12StreamWriter5writeERKS0_
_ZN4heif12StreamWriter5writeEiy
_ZN4heif12StreamWriter6insertEi
_ZN4heif12StreamWriter6write8Eh
_ZN4heif12StreamWriter7write16Et
_ZN4heif12StreamWriter7write32Ej
_ZN4heif12StreamWriter7write64Ey
_ZN4heif13color_profileD2Ev
_ZN4heif14BitstreamRange11read_stringEv
_ZN4heif14BitstreamRange12prepare_readEx
_ZN4heif14BitstreamRange18skip_to_end_of_boxEv
_ZN4heif14BitstreamRange21set_eof_while_readingEv
_ZN4heif14BitstreamRange24wait_for_available_bytesEx
_ZN4heif14BitstreamRange29wait_until_range_is_availableEv
_ZN4heif14BitstreamRange31skip_without_advancing_file_posEx
_ZN4heif14BitstreamRange4readEPhx
_ZN4heif14BitstreamRange5read8Ev
_ZN4heif14BitstreamRange6read16Ev
_ZN4heif14BitstreamRange6read32Ev
_ZN4heif14BitstreamRangeC1ENSt3__110shared_ptrINS_12StreamReaderEEEyPS0_
_ZN4heif14BitstreamRangeC2ENSt3__110shared_ptrINS_12StreamReaderEEEyPS0_
_ZN4heif14BitstreamRangeD2Ev
_ZN4heif14HeifPixelImage10ImagePlane5allocEiii11heif_chroma
_ZN4heif14HeifPixelImage10rotate_ccwEiRNSt3__110shared_ptrIS0_EE
_ZN4heif14HeifPixelImage14fill_RGB_16bitEtttt
_ZN4heif14HeifPixelImage14fill_new_planeE12heif_channeltiii
_ZN4heif14HeifPixelImage14mirror_inplaceEb
_ZN4heif14HeifPixelImage19copy_new_plane_fromERKNSt3__110shared_ptrIKS0_EE12heif_channelS7_
_ZN4heif14HeifPixelImage21set_color_profile_iccERKNSt3__110shared_ptrIKNS_17color_profile_rawEEE
_ZN4heif14HeifPixelImage22extend_padding_to_sizeEii
_ZN4heif14HeifPixelImage22set_color_profile_nclxERKNSt3__110shared_ptrIKNS_18color_profile_nclxEEE
_ZN4heif14HeifPixelImage28transfer_plane_from_image_asERKNSt3__110shared_ptrIS0_EE12heif_channelS6_
_ZN4heif14HeifPixelImage6createEii15heif_colorspace11heif_chroma
_ZN4heif14HeifPixelImage7overlayERNSt3__110shared_ptrIS0_EEii
_ZN4heif14HeifPixelImage9add_planeE12heif_channeliii
_ZN4heif14HeifPixelImage9get_planeE12heif_channelPi
_ZN4heif14HeifPixelImageD1Ev
_ZN4heif14HeifPixelImageD2Ev
_ZN4heif16register_decoderEPK19heif_decoder_plugin
_ZN4heif16register_encoderEPK19heif_encoder_plugin
_ZN4heif17StreamReader_CApi18wait_for_file_sizeEx
_ZN4heif17StreamReader_CApi4readEPvy
_ZN4heif17StreamReader_CApi4seekEx
_ZN4heif17StreamReader_CApiC1EPK11heif_readerPv
_ZN4heif17StreamReader_CApiC2EPK11heif_readerPv
_ZN4heif17StreamReader_CApiD0Ev
_ZN4heif17color_profile_rawD0Ev
_ZN4heif17color_profile_rawD2Ev
_ZN4heif17s_decoder_pluginsE DATA
_ZN4heif18ColorStateWithCostD2Ev
_ZN4heif18color_profile_nclx11set_defaultEv
_ZN4heif18color_profile_nclx13set_undefinedEv
_ZN4heif18color_profile_nclx23free_nclx_color_profileEP23heif_color_profile_nclx
_ZN4heif18color_profile_nclx24alloc_nclx_color_profileEv
_ZN4heif18color_profile_nclx32set_from_heif_color_profile_nclxEPK23heif_color_profile_nclx
_ZN4heif18color_profile_nclx5parseERNS_14BitstreamRangeE
_ZN4heif18color_profile_nclxD0Ev
_ZN4heif18convert_colorspaceERKNSt3__110shared_ptrINS_14HeifPixelImageEEE15heif_colorspace11heif_chromaRKNS1_IKNS_18color_profile_nclxEEEi
_ZN4heif19StreamReader_memory18wait_for_file_sizeEx
_ZN4heif19StreamReader_memory4readEPvy
_ZN4heif19StreamReader_memory4seekEx
_ZN4heif19StreamReader_memoryC1EPKhxb
_ZN4heif19StreamReader_memoryC2EPKhxb
_ZN4heif19StreamReader_memoryD0Ev
_ZN4heif19StreamReader_memoryD1Ev
_ZN4heif19StreamReader_memoryD2Ev
_ZN4heif19get_subsampled_sizeEii12heif_channel11heif_chromaPiS2_
_ZN4heif20StreamReader_istream18wait_for_file_sizeEx
_ZN4heif20StreamReader_istream4readEPvy
_ZN4heif20StreamReader_istream4seekEx
_ZN4heif20StreamReader_istreamC1EONSt3__110unique_ptrINS1_13basic_istreamIcNS1_11char_traitsIcEEEENS1_14default_deleteIS6_EEEE
_ZN4heif20StreamReader_istreamC2EONSt3__110unique_ptrINS1_13basic_istreamIcNS1_11char_traitsIcEEEENS1_14default_deleteIS6_EEEE
_ZN4heif20StreamReader_istreamD0Ev
_ZN4heif20StreamReader_istreamD2Ev
_ZN4heif20chroma_h_subsamplingE11heif_chroma
_ZN4heif20chroma_v_subsamplingE11heif_chroma
_ZN4heif20get_colour_primariesEt
_ZN4heif20is_chroma_with_alphaE11heif_chroma
_ZN4heif21s_encoder_descriptorsE DATA
_ZN4heif23ColorConversionPipeline13convert_imageERKNSt3__110shared_ptrINS_14HeifPixelImageEEE
_ZN4heif23ColorConversionPipeline18construct_pipelineERKNS_10ColorStateES3_RKNS_22ColorConversionOptionsE
_ZN4heif23ColorConversionPipelineD2Ev
_ZN4heif23chroma_from_subsamplingEii
_ZN4heif23fill_av1C_configurationEPNS_8Box_av1C13configurationERKNSt3__110shared_ptrINS_14HeifPixelImageEEE
_ZN4heif24ColorConversionOperationD2Ev
_ZN4heif24register_default_pluginsEv
_ZN4heif25RGB_to_YCbCr_coefficients8defaultsEv
_ZN4heif25YCbCr_to_RGB_coefficients8defaultsEv
_ZN4heif28decode_hevc_aux_sei_messagesERKNSt3__16vectorIhNS0_9allocatorIhEEEERNS1_INS0_10shared_ptrINS_10SEIMessageEEENS2_IS9_EEEE
_ZN4heif29get_RGB_to_YCbCr_coefficientsEtt
_ZN4heif29get_YCbCr_to_RGB_coefficientsEtt
_ZN4heif32get_filtered_encoder_descriptorsE23heif_compression_formatPKc
_ZN4heif32num_interleaved_pixels_per_planeE11heif_chroma
_ZN4heif32parse_sps_for_hvcC_configurationEPKhyPNS_8Box_hvcC13configurationEPiS5_
_ZN4heif34is_integer_multiple_of_chroma_sizeEii11heif_chroma
_ZN4heif35fill_av1C_configuration_from_streamEPNS_8Box_av1C13configurationEPKhi
_ZN4heif36SEIMessage_depth_representation_infoD0Ev
_ZN4heif3Box13read_childrenERNS_14BitstreamRangeEi
_ZN4heif3Box18derive_box_versionEv
_ZN4heif3Box28derive_box_version_recursiveEv
_ZN4heif3Box4readERNS_14BitstreamRangeEPNSt3__110shared_ptrIS0_EE
_ZN4heif3Box5parseERNS_14BitstreamRangeE
_ZN4heif3BoxD0Ev
_ZN4heif3BoxD2Ev
_ZN4heif5Error16get_error_stringE15heif_error_code
_ZN4heif5Error16get_error_stringE18heif_suberror_code
_ZN4heif5Error2OkE DATA
_ZN4heif5Error8kSuccessE DATA
_ZN4heif5ErrorC1E15heif_error_code18heif_suberror_codeRKNSt3__112basic_stringIcNS3_11char_traitsIcEENS3_9allocatorIcEEEE
_ZN4heif5ErrorC1Ev
_ZN4heif5ErrorC2E15heif_error_code18heif_suberror_codeRKNSt3__112basic_stringIcNS3_11char_traitsIcEENS3_9allocatorIcEEEE
_ZN4heif5ErrorC2Ev
_ZN4heif7Box_url5parseERNS_14BitstreamRangeE
_ZN4heif7Box_urlD0Ev
_ZN4heif7Box_urlD2Ev
_ZN4heif8Box_auxC5parseERNS_14BitstreamRangeE
_ZN4heif8Box_auxCD0Ev
_ZN4heif8Box_auxCD2Ev
_ZN4heif8Box_av1C5parseERNS_14BitstreamRangeE
_ZN4heif8Box_av1CD0Ev
_ZN4heif8Box_av1CD2Ev
_ZN4heif8Box_clap3setEjjjj
_ZN4heif8Box_clap5parseERNS_14BitstreamRangeE
_ZN4heif8Box_clapD0Ev
_ZN4heif8Box_colr5parseERNS_14BitstreamRangeE
_ZN4heif8Box_colrD0Ev
_ZN4heif8Box_colrD2Ev
_ZN4heif8Box_dinf5parseERNS_14BitstreamRangeE
_ZN4heif8Box_dinfD0Ev
_ZN4heif8Box_dref5parseERNS_14BitstreamRangeE
_ZN4heif8Box_drefD0Ev
_ZN4heif8Box_ftyp20add_compatible_brandEj
_ZN4heif8Box_ftyp5parseERNS_14BitstreamRangeE
_ZN4heif8Box_ftypD0Ev
_ZN4heif8Box_ftypD2Ev
_ZN4heif8Box_grpl11EntityGroupC2ERKS1_
_ZN4heif8Box_grpl11EntityGroupD2Ev
_ZN4heif8Box_grpl5parseERNS_14BitstreamRangeE
_ZN4heif8Box_grplD0Ev
_ZN4heif8Box_grplD2Ev
_ZN4heif8Box_hdlr5parseERNS_14BitstreamRangeE
_ZN4heif8Box_hdlrD0Ev
_ZN4heif8Box_hdlrD2Ev
_ZN4heif8Box_hvcC15append_nal_dataEPKhy
_ZN4heif8Box_hvcC15append_nal_dataERKNSt3__16vectorIhNS1_9allocatorIhEEEE
_ZN4heif8Box_hvcC5parseERNS_14BitstreamRangeE
_ZN4heif8Box_hvcC8NalArrayD2Ev
_ZN4heif8Box_hvcCD0Ev
_ZN4heif8Box_hvcCD2Ev
_ZN4heif8Box_idat5parseERNS_14BitstreamRangeE
_ZN4heif8Box_idatD0Ev
_ZN4heif8Box_idatD2Ev
_ZN4heif8Box_iinf18derive_box_versionEv
_ZN4heif8Box_iinf5parseERNS_14BitstreamRangeE
_ZN4heif8Box_iinfD0Ev
_ZN4heif8Box_iloc11append_dataEjRKNSt3__16vectorIhNS1_9allocatorIhEEEEh
_ZN4heif8Box_iloc18derive_box_versionEv
_ZN4heif8Box_iloc21write_mdat_after_ilocERNS_12StreamWriterE
_ZN4heif8Box_iloc4ItemD2Ev
_ZN4heif8Box_iloc5parseERNS_14BitstreamRangeE
_ZN4heif8Box_ilocD0Ev
_ZN4heif8Box_ilocD2Ev
_ZN4heif8Box_imir5parseERNS_14BitstreamRangeE
_ZN4heif8Box_imirD0Ev
_ZN4heif8Box_infe15set_hidden_itemEb
_ZN4heif8Box_infe18derive_box_versionEv
_ZN4heif8Box_infe5parseERNS_14BitstreamRangeE
_ZN4heif8Box_infeD0Ev
_ZN4heif8Box_infeD2Ev
_ZN4heif8Box_ipco5parseERNS_14BitstreamRangeE
_ZN4heif8Box_ipco8PropertyD2Ev
_ZN4heif8Box_ipcoD0Ev
_ZN4heif8Box_ipma18derive_box_versionEv
_ZN4heif8Box_ipma24add_property_for_item_IDEjNS0_19PropertyAssociationE
_ZN4heif8Box_ipma5parseERNS_14BitstreamRangeE
_ZN4heif8Box_ipmaD0Ev
_ZN4heif8Box_ipmaD2Ev
_ZN4heif8Box_iprp5parseERNS_14BitstreamRangeE
_ZN4heif8Box_iprpD0Ev
_ZN4heif8Box_iref13add_referenceEjjRKNSt3__16vectorIjNS1_9allocatorIjEEEE
_ZN4heif8Box_iref18derive_box_versionEv
_ZN4heif8Box_iref5parseERNS_14BitstreamRangeE
_ZN4heif8Box_iref9ReferenceC2ERKS1_
_ZN4heif8Box_iref9ReferenceD2Ev
_ZN4heif8Box_irefD0Ev
_ZN4heif8Box_irefD2Ev
_ZN4heif8Box_irot5parseERNS_14BitstreamRangeE
_ZN4heif8Box_irotD0Ev
_ZN4heif8Box_ispe5parseERNS_14BitstreamRangeE
_ZN4heif8Box_ispeD0Ev
_ZN4heif8Box_meta5parseERNS_14BitstreamRangeE
_ZN4heif8Box_metaD0Ev
_ZN4heif8Box_pitm18derive_box_versionEv
_ZN4heif8Box_pitm5parseERNS_14BitstreamRangeE
_ZN4heif8Box_pitmD0Ev
_ZN4heif8Box_pixi5parseERNS_14BitstreamRangeE
_ZN4heif8Box_pixiD0Ev
_ZN4heif8Box_pixiD2Ev
_ZN4heif8FractionC1Eii
_ZN4heif8FractionC1Ejj
_ZN4heif8FractionC2Eii
_ZN4heif8FractionC2Ejj
_ZN4heif8HeifFile13add_new_imageEPKc
_ZN4heif8HeifFile14new_empty_fileEv
_ZN4heif8HeifFile14read_from_fileEPKc
_ZN4heif8HeifFile15parse_heif_fileERNS_14BitstreamRangeE
_ZN4heif8HeifFile16add_new_infe_boxEPKc
_ZN4heif8HeifFile16append_iloc_dataEjRKNSt3__16vectorIhNS1_9allocatorIhEEEEh
_ZN4heif8HeifFile16read_from_memoryEPKvyb
_ZN4heif8HeifFile17add_av1C_propertyEj
_ZN4heif8HeifFile17add_clap_propertyEjjjjj
_ZN4heif8HeifFile17add_hvcC_propertyEj
_ZN4heif8HeifFile17add_ispe_propertyEjjj
_ZN4heif8HeifFile17add_pixi_propertyEjhhh
_ZN4heif8HeifFile17set_auxC_propertyEjRKNSt3__112basic_stringIcNS1_11char_traitsIcEENS1_9allocatorIcEEEE
_ZN4heif8HeifFile17set_color_profileEjRKNSt3__110shared_ptrIKNS_13color_profileEEE
_ZN4heif8HeifFile18add_iref_referenceEjjRKNSt3__16vectorIjNS1_9allocatorIjEEEE
_ZN4heif8HeifFile19set_primary_item_idEj
_ZN4heif8HeifFile20append_hvcC_nal_dataEjPKhy
_ZN4heif8HeifFile20append_hvcC_nal_dataEjRKNSt3__16vectorIhNS1_9allocatorIhEEEE
_ZN4heif8HeifFile21set_hdlr_library_infoERKNSt3__112basic_stringIcNS1_11char_traitsIcEENS1_9allocatorIcEEEE
_ZN4heif8HeifFile22set_av1C_configurationEjRKNS_8Box_av1C13configurationE
_ZN4heif8HeifFile22set_hvcC_configurationEjRKNS_8Box_hvcC13configurationE
_ZN4heif8HeifFile26convert_utf8_path_to_utf16ENSt3__112basic_stringIcNS1_11char_traitsIcEENS1_9allocatorIcEEEE
_ZN4heif8HeifFile32append_iloc_data_with_4byte_sizeEjPKhy
_ZN4heif8HeifFile4readERKNSt3__110shared_ptrINS_12StreamReaderEEE
_ZN4heif8HeifFile5writeERNS_12StreamWriterE
_ZN4heif8HeifFile9set_brandE23heif_compression_formatb
_ZN4heif8HeifFileC1Ev
_ZN4heif8HeifFileC2Ev
_ZN4heif8HeifFileD1Ev
_ZN4heif8HeifFileD2Ev
_ZN4heif9BitReader10skip_bytesEi
_ZN4heif9BitReader13get_bits_fastEi
_ZN4heif9BitReader14skip_bits_fastEi
_ZN4heif9BitReader21skip_to_byte_boundaryEv
_ZN4heif9BitReader6refillEv
_ZN4heif9BitReader8get_bitsEi
_ZN4heif9BitReader8get_svlcEPi
_ZN4heif9BitReader8get_uvlcEPi
_ZN4heif9BitReader9peek_bitsEi
_ZN4heif9BitReader9skip_bitsEi
_ZN4heif9BitReaderC1EPKhi
_ZN4heif9BitReaderC2EPKhi
_ZN4heif9BoxHeader21parse_full_box_headerERNS_14BitstreamRangeE
_ZN4heif9BoxHeader5parseERNS_14BitstreamRangeE
_ZN4heif9BoxHeaderC1Ev
_ZN4heif9BoxHeaderC2Ev
_ZN4heif9BoxHeaderD0Ev
_ZN4heif9BoxHeaderD2Ev
_ZN4heif9get_Kr_KbEtt
_ZN4heif9primariesC1Effffffff
_ZN4heif9primariesC2Effffffff
_ZN9ImageGrid5parseERKNSt3__16vectorIhNS0_9allocatorIhEEEE
_ZNK12ImageOverlay10get_offsetEyPiS0_
_ZNK12ImageOverlay20get_background_colorEPt
_ZNK12ImageOverlay4dumpEv
_ZNK4heif10ColorStateeqERKS0_
_ZNK4heif11HeifContext11get_decoderE23heif_compression_format
_ZNK4heif11HeifContext16debug_dump_boxesEv
_ZNK4heif11HeifContext17decode_image_userEjRNSt3__110shared_ptrINS_14HeifPixelImageEEE15heif_colorspace11heif_chromaPK21heif_decoding_options
_ZNK4heif11HeifContext19decode_image_planarEjRNSt3__110shared_ptrINS_14HeifPixelImageEEE15heif_colorspacePK21heif_decoding_optionsb
_ZNK4heif11HeifContext20decode_derived_imageEjRNSt3__110shared_ptrINS_14HeifPixelImageEEE
_ZNK4heif11HeifContext20decode_overlay_imageEjRNSt3__110shared_ptrINS_14HeifPixelImageEEERKNS1_6vectorIhNS1_9allocatorIhEEEE
_ZNK4heif11HeifContext22decode_full_grid_imageEjRNSt3__110shared_ptrINS_14HeifPixelImageEEERKNS1_6vectorIhNS1_9allocatorIhEEEE
_ZNK4heif11HeifContext27decode_and_paste_tile_imageEjRKNSt3__110shared_ptrINS_14HeifPixelImageEEEii
_ZNK4heif11HeifContext33get_id_of_non_virtual_child_imageEjRj
_ZNK4heif11HeifContext5Image14get_aux_imagesEi
_ZNK4heif11HeifContext5Image23get_luma_bits_per_pixelEv
_ZNK4heif11HeifContext5Image25get_chroma_bits_per_pixelEv
_ZNK4heif11HeifContext8is_imageEj
_ZNK4heif14BitstreamRange9get_errorEv
_ZNK4heif14HeifPixelImage10debug_dumpEv
_ZNK4heif14HeifPixelImage10get_heightE12heif_channel
_ZNK4heif14HeifPixelImage11has_channelE12heif_channel
_ZNK4heif14HeifPixelImage15get_channel_setEv
_ZNK4heif14HeifPixelImage18get_bits_per_pixelE12heif_channel
_ZNK4heif14HeifPixelImage22scale_nearest_neighborERNSt3__110shared_ptrIS0_EEii
_ZNK4heif14HeifPixelImage26get_storage_bits_per_pixelE12heif_channel
_ZNK4heif14HeifPixelImage4cropEiiiiRNSt3__110shared_ptrIS0_EE
_ZNK4heif14HeifPixelImage9get_planeE12heif_channelPi
_ZNK4heif14HeifPixelImage9get_widthE12heif_channel
_ZNK4heif14HeifPixelImage9has_alphaEv
_ZNK4heif17StreamReader_CApi12get_positionEv
_ZNK4heif17color_profile_raw4dumpERNS_6IndentE
_ZNK4heif17color_profile_raw5writeERNS_12StreamWriterE
_ZNK4heif17color_profile_raw8get_typeEv
_ZNK4heif18color_profile_nclx22get_nclx_color_profileEPP23heif_color_profile_nclx
_ZNK4heif18color_profile_nclx4dumpERNS_6IndentE
_ZNK4heif18color_profile_nclx5writeERNS_12StreamWriterE
_ZNK4heif18color_profile_nclx8get_typeEv
_ZNK4heif19StreamReader_memory12get_positionEv
_ZNK4heif20StreamReader_istream12get_positionEv
_ZNK4heif23ColorConversionPipeline19debug_dump_pipelineEv
_ZNK4heif3Box13dump_childrenERNS_6IndentE
_ZNK4heif3Box13get_child_boxEj
_ZNK4heif3Box14write_childrenERNS_12StreamWriterE
_ZNK4heif3Box15get_child_boxesEj
_ZNK4heif3Box4dumpERNS_6IndentE
_ZNK4heif3Box5writeERNS_12StreamWriterE
_ZNK4heif5Error12error_structEPNS_11ErrorBufferE
_ZNK4heif7Box_url4dumpERNS_6IndentE
_ZNK4heif8Box_auxC4dumpERNS_6IndentE
_ZNK4heif8Box_auxC5writeERNS_12StreamWriterE
_ZNK4heif8Box_av1C4dumpERNS_6IndentE
_ZNK4heif8Box_av1C5writeERNS_12StreamWriterE
_ZNK4heif8Box_clap11top_roundedEi
_ZNK4heif8Box_clap12left_roundedEi
_ZNK4heif8Box_clap13right_roundedEi
_ZNK4heif8Box_clap14bottom_roundedEi
_ZNK4heif8Box_clap17get_width_roundedEv
_ZNK4heif8Box_clap18get_height_roundedEv
_ZNK4heif8Box_clap4dumpERNS_6IndentE
_ZNK4heif8Box_clap5writeERNS_12StreamWriterE
_ZNK4heif8Box_colr4dumpERNS_6IndentE
_ZNK4heif8Box_colr5writeERNS_12StreamWriterE
_ZNK4heif8Box_dinf4dumpERNS_6IndentE
_ZNK4heif8Box_dref4dumpERNS_6IndentE
_ZNK4heif8Box_ftyp20has_compatible_brandEj
_ZNK4heif8Box_ftyp4dumpERNS_6IndentE
_ZNK4heif8Box_ftyp5writeERNS_12StreamWriterE
_ZNK4heif8Box_grpl4dumpERNS_6IndentE
_ZNK4heif8Box_hdlr4dumpERNS_6IndentE
_ZNK4heif8Box_hdlr5writeERNS_12StreamWriterE
_ZNK4heif8Box_hvcC11get_headersEPNSt3__16vectorIhNS1_9allocatorIhEEEE
_ZNK4heif8Box_hvcC4dumpERNS_6IndentE
_ZNK4heif8Box_hvcC5writeERNS_12StreamWriterE
_ZNK4heif8Box_idat4dumpERNS_6IndentE
_ZNK4heif8Box_idat5writeERNS_12StreamWriterE
_ZNK4heif8Box_idat9read_dataERKNSt3__110shared_ptrINS_12StreamReaderEEEyyRNS1_6vectorIhNS1_9allocatorIhEEEE
_ZNK4heif8Box_iinf4dumpERNS_6IndentE
_ZNK4heif8Box_iinf5writeERNS_12StreamWriterE
_ZNK4heif8Box_iloc17patch_iloc_headerERNS_12StreamWriterE
_ZNK4heif8Box_iloc4dumpERNS_6IndentE
_ZNK4heif8Box_iloc5writeERNS_12StreamWriterE
_ZNK4heif8Box_iloc9read_dataERKNS0_4ItemERKNSt3__110shared_ptrINS_12StreamReaderEEERKNS5_INS_8Box_idatEEEPNS4_6vectorIhNS4_9allocatorIhEEEE
_ZNK4heif8Box_imir4dumpERNS_6IndentE
_ZNK4heif8Box_infe4dumpERNS_6IndentE
_ZNK4heif8Box_infe5writeERNS_12StreamWriterE
_ZNK4heif8Box_ipco24get_property_for_item_IDEjRKNSt3__110shared_ptrINS_8Box_ipmaEEEj
_ZNK4heif8Box_ipco26get_properties_for_item_IDEjRKNSt3__110shared_ptrINS_8Box_ipmaEEERNS1_6vectorINS0_8PropertyENS1_9allocatorIS8_EEEE
_ZNK4heif8Box_ipco4dumpERNS_6IndentE
_ZNK4heif8Box_ipma26get_properties_for_item_IDEj
_ZNK4heif8Box_ipma4dumpERNS_6IndentE
_ZNK4heif8Box_ipma5writeERNS_12StreamWriterE
_ZNK4heif8Box_iprp4dumpERNS_6IndentE
_ZNK4heif8Box_iref14get_referencesEjj
_ZNK4heif8Box_iref14has_referencesEj
_ZNK4heif8Box_iref19get_references_fromEj
_ZNK4heif8Box_iref4dumpERNS_6IndentE
_ZNK4heif8Box_iref5writeERNS_12StreamWriterE
_ZNK4heif8Box_irot4dumpERNS_6IndentE
_ZNK4heif8Box_ispe4dumpERNS_6IndentE
_ZNK4heif8Box_ispe5writeERNS_12StreamWriterE
_ZNK4heif8Box_meta4dumpERNS_6IndentE
_ZNK4heif8Box_pitm4dumpERNS_6IndentE
_ZNK4heif8Box_pitm5writeERNS_12StreamWriterE
_ZNK4heif8Box_pixi4dumpERNS_6IndentE
_ZNK4heif8Box_pixi5writeERNS_12StreamWriterE
_ZNK4heif8Fraction10round_downEv
_ZNK4heif8Fraction5roundEv
_ZNK4heif8Fraction8is_validEv
_ZNK4heif8Fraction8round_upEv
_ZNK4heif8FractiondvEi
_ZNK4heif8FractionmiERKS0_
_ZNK4heif8FractionmiEi
_ZNK4heif8FractionplERKS0_
_ZNK4heif8FractionplEi
_ZNK4heif8HeifFile12get_item_IDsEv
_ZNK4heif8HeifFile12image_existsEj
_ZNK4heif8HeifFile13get_item_typeEj
_ZNK4heif8HeifFile14get_propertiesEjRNSt3__16vectorINS_8Box_ipco8PropertyENS1_9allocatorIS4_EEEE
_ZNK4heif8HeifFile16debug_dump_boxesEv
_ZNK4heif8HeifFile16get_content_typeEj
_ZNK4heif8HeifFile18get_unused_item_idEv
_ZNK4heif8HeifFile25get_compressed_image_dataEjPNSt3__16vectorIhNS1_9allocatorIhEEEE
_ZNK4heif8HeifFile35get_image_chroma_from_configurationEj
_ZNK4heif8HeifFile42get_luma_bits_per_pixel_from_configurationEj
_ZNK4heif8HeifFile44get_chroma_bits_per_pixel_from_configurationEj
_ZNK4heif8HeifFile8get_infeEj
_ZNK4heif9BoxHeader14prepend_headerERNS_12StreamWriterEy
_ZNK4heif9BoxHeader15get_type_stringEv
_ZNK4heif9BoxHeader24reserve_box_header_spaceERNS_12StreamWriterE
_ZNK4heif9BoxHeader4dumpERNS_6IndentE
_ZNK4heif9BoxHeader8get_typeEv
_ZNK9ImageGrid4dumpEv
_ZNK9ImageGrid5writeEv
_ZNKSt3__112basic_stringIcNS_11char_traitsIcEENS_9allocatorIcEEE20__throw_length_errorB6v15000Ev
_ZNKSt3__112basic_stringIcNS_11char_traitsIcEENS_9allocatorIcEEE20__throw_out_of_rangeB6v15000Ev
_ZNKSt3__129_AllocatorDestroyRangeReverseINS_9allocatorIN4heif5ErrorEEEPS3_EclB6v15000Ev
_ZNKSt3__129_AllocatorDestroyRangeReverseINS_9allocatorIN4heif8Box_iloc4ItemEEEPS4_EclB6v15000Ev
_ZNKSt3__129_AllocatorDestroyRangeReverseINS_9allocatorIN4heif8Box_iloc6ExtentEEEPS4_EclB6v15000Ev
_ZNKSt3__129_AllocatorDestroyRangeReverseINS_9allocatorINS_6vectorIhNS1_IhEEEEEEPS4_EclB6v15000Ev
_ZNKSt3__16vectorI13custom_optionNS_9allocatorIS1_EEE20__throw_length_errorB6v15000Ev
_ZNKSt3__16vectorI4NodeNS_9allocatorIS1_EEE20__throw_length_errorB6v15000Ev
_ZNKSt3__16vectorIN12ImageOverlay6OffsetENS_9allocatorIS2_EEE20__throw_length_errorB6v15000Ev
_ZNKSt3__16vectorIN4heif18ColorStateWithCostENS_9allocatorIS2_EEE20__throw_length_errorB6v15000Ev
_ZNKSt3__16vectorIN4heif5ErrorENS_9allocatorIS2_EEE20__throw_length_errorB6v15000Ev
_ZNKSt3__16vectorIN4heif8Box_grpl11EntityGroupENS_9allocatorIS3_EEE20__throw_length_errorB6v15000Ev
_ZNKSt3__16vectorIN4heif8Box_hvcC8NalArrayENS_9allocatorIS3_EEE20__throw_length_errorB6v15000Ev
_ZNKSt3__16vectorIN4heif8Box_iloc4ItemENS_9allocatorIS3_EEE20__throw_length_errorB6v15000Ev
_ZNKSt3__16vectorIN4heif8Box_iloc6ExtentENS_9allocatorIS3_EEE20__throw_length_errorB6v15000Ev
_ZNKSt3__16vectorIN4heif8Box_ipco8PropertyENS_9allocatorIS3_EEE20__throw_length_errorB6v15000Ev
_ZNKSt3__16vectorIN4heif8Box_ipma19PropertyAssociationENS_9allocatorIS3_EEE20__throw_length_errorB6v15000Ev
_ZNKSt3__16vectorIN4heif8Box_ipma5EntryENS_9allocatorIS3_EEE20__throw_length_errorB6v15000Ev
_ZNKSt3__16vectorIN4heif8Box_iref9ReferenceENS_9allocatorIS3_EEE20__throw_length_errorB6v15000Ev
_ZNKSt3__16vectorINS0_IhNS_9allocatorIhEEEENS1_IS3_EEE20__throw_length_errorB6v15000Ev
_ZNKSt3__16vectorINS_10shared_ptrIN4heif10SEIMessageEEENS_9allocatorIS4_EEE20__throw_length_errorB6v15000Ev
_ZNKSt3__16vectorINS_10shared_ptrIN4heif11HeifContext5ImageEEENS_9allocatorIS5_EEE20__throw_length_errorB6v15000Ev
_ZNKSt3__16vectorINS_10shared_ptrIN4heif13ImageMetadataEEENS_9allocatorIS4_EEE20__throw_length_errorB6v15000Ev
_ZNKSt3__16vectorINS_10shared_ptrIN4heif24ColorConversionOperationEEENS_9allocatorIS4_EEE20__throw_length_errorB6v15000Ev
_ZNKSt3__16vectorINS_10shared_ptrIN4heif3BoxEEENS_9allocatorIS4_EEE20__throw_length_errorB6v15000Ev
_ZNKSt3__16vectorIPK23heif_encoder_descriptorNS_9allocatorIS3_EEE20__throw_length_errorB6v15000Ev
_ZNKSt3__16vectorIbNS_9allocatorIbEEE20__throw_length_errorB6v15000Ev
_ZNKSt3__16vectorIhNS_9allocatorIhEEE20__throw_length_errorB6v15000Ev
_ZNKSt3__16vectorIjNS_9allocatorIjEEE20__throw_length_errorB6v15000Ev
_ZNSt12length_errorC2B6v15000EPKc
_ZNSt12out_of_rangeC2B6v15000EPKc
_ZNSt3__110shared_ptrI15Op_RGB_to_YCbCrIhEED2B6v15000Ev
_ZNSt3__110shared_ptrI15Op_RGB_to_YCbCrItEED2B6v15000Ev
_ZNSt3__110shared_ptrI15Op_YCbCr_to_RGBIhEED2B6v15000Ev
_ZNSt3__110shared_ptrI15Op_YCbCr_to_RGBItEED2B6v15000Ev
_ZNSt3__110shared_ptrI16Op_to_hdr_planesED2B6v15000Ev
_ZNSt3__110shared_ptrI16Op_to_sdr_planesED2B6v15000Ev
_ZNSt3__110shared_ptrI18Op_RGB_to_RGB24_32ED2B6v15000Ev
_ZNSt3__110shared_ptrI19Op_drop_alpha_planeED2B6v15000Ev
_ZNSt3__110shared_ptrI19Op_mono_to_RGB24_32ED2B6v15000Ev
_ZNSt3__110shared_ptrI19Op_mono_to_YCbCr420ED2B6v15000Ev
_ZNSt3__110shared_ptrI20Op_RGB24_32_to_YCbCrED2B6v15000Ev
_ZNSt3__110shared_ptrI20Op_YCbCr420_to_RGB24ED2B6v15000Ev
_ZNSt3__110shared_ptrI20Op_YCbCr420_to_RGB32ED2B6v15000Ev
_ZNSt3__110shared_ptrI21Op_RGB_to_RRGGBBaa_BEED2B6v15000Ev
_ZNSt3__110shared_ptrI23Op_YCbCr420_to_RRGGBBaaED2B6v15000Ev
_ZNSt3__110shared_ptrI25Op_RGB_HDR_to_RRGGBBaa_BEED2B6v15000Ev
_ZNSt3__110shared_ptrI25Op_RRGGBBaa_BE_to_RGB_HDRED2B6v15000Ev
_ZNSt3__110shared_ptrI27Op_RGB24_32_to_YCbCr444_GBRED2B6v15000Ev
_ZNSt3__110shared_ptrI27Op_RRGGBBaa_swap_endiannessED2B6v15000Ev
_ZNSt3__110shared_ptrI27Op_RRGGBBxx_HDR_to_YCbCr420ED2B6v15000Ev
_ZNSt3__110shared_ptrIKN4heif13color_profileEED2B6v15000Ev
_ZNSt3__110shared_ptrIKN4heif14HeifPixelImageEED2B6v15000Ev
_ZNSt3__110shared_ptrIKN4heif17color_profile_rawEED2B6v15000Ev
_ZNSt3__110shared_ptrIKN4heif18color_profile_nclxEED2B6v15000Ev
_ZNSt3__110shared_ptrIN4heif10SEIMessageEED2B6v15000Ev
_ZNSt3__110shared_ptrIN4heif11HeifContext5ImageEED2B6v15000Ev
_ZNSt3__110shared_ptrIN4heif12StreamReaderEED2B6v15000Ev
_ZNSt3__110shared_ptrIN4heif13ImageMetadataEED2B6v15000Ev
_ZNSt3__110shared_ptrIN4heif14HeifPixelImageEED2B6v15000Ev
_ZNSt3__110shared_ptrIN4heif14HeifPixelImageEEaSB6v15000EOS3_
_ZNSt3__110shared_ptrIN4heif17StreamReader_CApiEED2B6v15000Ev
_ZNSt3__110shared_ptrIN4heif18color_profile_nclxEED2B6v15000Ev
_ZNSt3__110shared_ptrIN4heif19StreamReader_memoryEED2B6v15000Ev
_ZNSt3__110shared_ptrIN4heif20StreamReader_istreamEED2B6v15000Ev
_ZNSt3__110shared_ptrIN4heif24ColorConversionOperationEED2B6v15000Ev
_ZNSt3__110shared_ptrIN4heif36SEIMessage_depth_representation_infoEED2B6v15000Ev
_ZNSt3__110shared_ptrIN4heif3BoxEED2B6v15000Ev
_ZNSt3__110shared_ptrIN4heif3BoxEEaSB6v15000EOS3_
_ZNSt3__110shared_ptrIN4heif3BoxEEaSB6v15000INS1_7Box_urlEvEERS3_ONS0_IT_EE
_ZNSt3__110shared_ptrIN4heif3BoxEEaSB6v15000INS1_8Box_auxCEvEERS3_ONS0_IT_EE
_ZNSt3__110shared_ptrIN4heif3BoxEEaSB6v15000INS1_8Box_av1CEvEERS3_ONS0_IT_EE
_ZNSt3__110shared_ptrIN4heif3BoxEEaSB6v15000INS1_8Box_clapEvEERS3_ONS0_IT_EE
_ZNSt3__110shared_ptrIN4heif3BoxEEaSB6v15000INS1_8Box_colrEvEERS3_ONS0_IT_EE
_ZNSt3__110shared_ptrIN4heif3BoxEEaSB6v15000INS1_8Box_dinfEvEERS3_ONS0_IT_EE
_ZNSt3__110shared_ptrIN4heif3BoxEEaSB6v15000INS1_8Box_drefEvEERS3_ONS0_IT_EE
_ZNSt3__110shared_ptrIN4heif3BoxEEaSB6v15000INS1_8Box_ftypEvEERS3_ONS0_IT_EE
_ZNSt3__110shared_ptrIN4heif3BoxEEaSB6v15000INS1_8Box_grplEvEERS3_ONS0_IT_EE
_ZNSt3__110shared_ptrIN4heif3BoxEEaSB6v15000INS1_8Box_hdlrEvEERS3_ONS0_IT_EE
_ZNSt3__110shared_ptrIN4heif3BoxEEaSB6v15000INS1_8Box_hvcCEvEERS3_ONS0_IT_EE
_ZNSt3__110shared_ptrIN4heif3BoxEEaSB6v15000INS1_8Box_idatEvEERS3_ONS0_IT_EE
_ZNSt3__110shared_ptrIN4heif3BoxEEaSB6v15000INS1_8Box_iinfEvEERS3_ONS0_IT_EE
_ZNSt3__110shared_ptrIN4heif3BoxEEaSB6v15000INS1_8Box_ilocEvEERS3_ONS0_IT_EE
_ZNSt3__110shared_ptrIN4heif3BoxEEaSB6v15000INS1_8Box_imirEvEERS3_ONS0_IT_EE
_ZNSt3__110shared_ptrIN4heif3BoxEEaSB6v15000INS1_8Box_infeEvEERS3_ONS0_IT_EE
_ZNSt3__110shared_ptrIN4heif3BoxEEaSB6v15000INS1_8Box_ipcoEvEERS3_ONS0_IT_EE
_ZNSt3__110shared_ptrIN4heif3BoxEEaSB6v15000INS1_8Box_ipmaEvEERS3_ONS0_IT_EE
_ZNSt3__110shared_ptrIN4heif3BoxEEaSB6v15000INS1_8Box_iprpEvEERS3_ONS0_IT_EE
_ZNSt3__110shared_ptrIN4heif3BoxEEaSB6v15000INS1_8Box_irefEvEERS3_ONS0_IT_EE
_ZNSt3__110shared_ptrIN4heif3BoxEEaSB6v15000INS1_8Box_irotEvEERS3_ONS0_IT_EE
_ZNSt3__110shared_ptrIN4heif3BoxEEaSB6v15000INS1_8Box_ispeEvEERS3_ONS0_IT_EE
_ZNSt3__110shared_ptrIN4heif3BoxEEaSB6v15000INS1_8Box_metaEvEERS3_ONS0_IT_EE
_ZNSt3__110shared_ptrIN4heif3BoxEEaSB6v15000INS1_8Box_pitmEvEERS3_ONS0_IT_EE
_ZNSt3__110shared_ptrIN4heif3BoxEEaSB6v15000INS1_8Box_pixiEvEERS3_ONS0_IT_EE
_ZNSt3__110shared_ptrIN4heif7Box_urlEED2B6v15000Ev
_ZNSt3__110shared_ptrIN4heif8Box_auxCEED2B6v15000Ev
_ZNSt3__110shared_ptrIN4heif8Box_av1CEED2B6v15000Ev
_ZNSt3__110shared_ptrIN4heif8Box_clapEED2B6v15000Ev
_ZNSt3__110shared_ptrIN4heif8Box_colrEED2B6v15000Ev
_ZNSt3__110shared_ptrIN4heif8Box_dinfEED2B6v15000Ev
_ZNSt3__110shared_ptrIN4heif8Box_drefEED2B6v15000Ev
_ZNSt3__110shared_ptrIN4heif8Box_ftypEED2B6v15000Ev
_ZNSt3__110shared_ptrIN4heif8Box_grplEED2B6v15000Ev
_ZNSt3__110shared_ptrIN4heif8Box_hdlrEED2B6v15000Ev
_ZNSt3__110shared_ptrIN4heif8Box_hvcCEED2B6v15000Ev
_ZNSt3__110shared_ptrIN4heif8Box_idatEED2B6v15000Ev
_ZNSt3__110shared_ptrIN4heif8Box_idatEEaSB6v15000EOS3_
_ZNSt3__110shared_ptrIN4heif8Box_iinfEED2B6v15000Ev
_ZNSt3__110shared_ptrIN4heif8Box_iinfEEaSB6v15000EOS3_
_ZNSt3__110shared_ptrIN4heif8Box_ilocEED2B6v15000Ev
_ZNSt3__110shared_ptrIN4heif8Box_ilocEEaSB6v15000EOS3_
_ZNSt3__110shared_ptrIN4heif8Box_imirEED2B6v15000Ev
_ZNSt3__110shared_ptrIN4heif8Box_infeEED2B6v15000Ev
_ZNSt3__110shared_ptrIN4heif8Box_ipcoEED2B6v15000Ev
_ZNSt3__110shared_ptrIN4heif8Box_ipmaEED2B6v15000Ev
_ZNSt3__110shared_ptrIN4heif8Box_iprpEED2B6v15000Ev
_ZNSt3__110shared_ptrIN4heif8Box_irefEED2B6v15000Ev
_ZNSt3__110shared_ptrIN4heif8Box_irefEEaSB6v15000EOS3_
_ZNSt3__110shared_ptrIN4heif8Box_irotEED2B6v15000Ev
_ZNSt3__110shared_ptrIN4heif8Box_ispeEED2B6v15000Ev
_ZNSt3__110shared_ptrIN4heif8Box_metaEED2B6v15000Ev
_ZNSt3__110shared_ptrIN4heif8Box_pitmEED2B6v15000Ev
_ZNSt3__110shared_ptrIN4heif8Box_pixiEED2B6v15000Ev
_ZNSt3__110shared_ptrIN4heif8HeifFileEED2B6v15000Ev
_ZNSt3__110unique_ptrINS_15__thread_structENS_14default_deleteIS1_EEED2B6v15000Ev
_ZNSt3__110unique_ptrINS_5tupleIJNS0_INS_15__thread_structENS_14default_deleteIS2_EEEEMNS_19__async_assoc_stateIN4heif5ErrorENS_12__async_funcIMNS7_11HeifContextEKFS8_jRKNS_10shared_ptrINS7_14HeifPixelImageEEEiiEJPKSA_jSD_iiEEEEEFvvEPSL_EEENS3_ISP_EEED2B6v15000Ev
_ZNSt3__111make_sharedB6v15000IN4heif8Box_clapEJRNS1_9BoxHeaderEEvEENS_10shared_ptrIT_EEDpOT0_
_ZNSt3__112__async_funcIMN4heif11HeifContextEKFNS1_5ErrorEjRKNS_10shared_ptrINS1_14HeifPixelImageEEEiiEJPKS2_jS6_iiEED2Ev
_ZNSt3__112__deque_baseINS_6futureIN4heif5ErrorEEENS_9allocatorIS4_EEE5clearEv
_ZNSt3__112__deque_baseINS_6futureIN4heif5ErrorEEENS_9allocatorIS4_EEED2Ev
_ZNSt3__112basic_stringIcNS_11char_traitsIcEENS_9allocatorIcEEEC2B6v15000IDnEEPKc
_ZNSt3__113__assoc_stateIN4heif5ErrorEE16__on_zero_sharedEv
_ZNSt3__113__assoc_stateIN4heif5ErrorEE4moveEv
_ZNSt3__113__tree_removeIPNS_16__tree_node_baseIPvEEEEvT_S5_
_ZNSt3__113basic_ostreamIcNS_11char_traitsIcEEE6sentryD2Ev
_ZNSt3__114__split_bufferI13custom_optionRNS_9allocatorIS1_EEED2Ev
_ZNSt3__114__split_bufferIN4heif8Box_grpl11EntityGroupERNS_9allocatorIS3_EEED2Ev
_ZNSt3__114__split_bufferIN4heif8Box_hvcC8NalArrayERNS_9allocatorIS3_EEED2Ev
_ZNSt3__114__split_bufferIN4heif8Box_iloc4ItemERNS_9allocatorIS3_EEED2Ev
_ZNSt3__114__split_bufferIN4heif8Box_iloc6ExtentERNS_9allocatorIS3_EEED2Ev
_ZNSt3__114__split_bufferIN4heif8Box_ipma5EntryERNS_9allocatorIS3_EEED2Ev
_ZNSt3__114__split_bufferIN4heif8Box_iref9ReferenceERNS_9allocatorIS3_EEED2Ev
_ZNSt3__114__split_bufferINS_6vectorIhNS_9allocatorIhEEEERNS2_IS4_EEED2Ev
_ZNSt3__114__split_bufferIPNS_6futureIN4heif5ErrorEEENS_9allocatorIS5_EEE10push_frontEOS5_
_ZNSt3__114__split_bufferIPNS_6futureIN4heif5ErrorEEENS_9allocatorIS5_EEE9push_backEOS5_
_ZNSt3__114__thread_proxyB6v15000INS_5tupleIJNS_10unique_ptrINS_15__thread_structENS_14default_deleteIS3_EEEEMNS_19__async_assoc_stateIN4heif5ErrorENS_12__async_funcIMNS8_11HeifContextEKFS9_jRKNS_10shared_ptrINS8_14HeifPixelImageEEEiiEJPKSB_jSE_iiEEEEEFvvEPSM_EEEEEPvSR_
_ZNSt3__115allocate_sharedB6v15000IN4heif3BoxENS_9allocatorIS2_EEJRNS1_9BoxHeaderEEvEENS_10shared_ptrIT_EERKT0_DpOT1_
_ZNSt3__115allocate_sharedB6v15000IN4heif7Box_urlENS_9allocatorIS2_EEJRNS1_9BoxHeaderEEvEENS_10shared_ptrIT_EERKT0_DpOT1_
_ZNSt3__115allocate_sharedB6v15000IN4heif8Box_auxCENS_9allocatorIS2_EEJRNS1_9BoxHeaderEEvEENS_10shared_ptrIT_EERKT0_DpOT1_
_ZNSt3__115allocate_sharedB6v15000IN4heif8Box_av1CENS_9allocatorIS2_EEJRNS1_9BoxHeaderEEvEENS_10shared_ptrIT_EERKT0_DpOT1_
_ZNSt3__115allocate_sharedB6v15000IN4heif8Box_colrENS_9allocatorIS2_EEJRNS1_9BoxHeaderEEvEENS_10shared_ptrIT_EERKT0_DpOT1_
_ZNSt3__115allocate_sharedB6v15000IN4heif8Box_dinfENS_9allocatorIS2_EEJRNS1_9BoxHeaderEEvEENS_10shared_ptrIT_EERKT0_DpOT1_
_ZNSt3__115allocate_sharedB6v15000IN4heif8Box_drefENS_9allocatorIS2_EEJRNS1_9BoxHeaderEEvEENS_10shared_ptrIT_EERKT0_DpOT1_
_ZNSt3__115allocate_sharedB6v15000IN4heif8Box_ftypENS_9allocatorIS2_EEJRNS1_9BoxHeaderEEvEENS_10shared_ptrIT_EERKT0_DpOT1_
_ZNSt3__115allocate_sharedB6v15000IN4heif8Box_grplENS_9allocatorIS2_EEJRNS1_9BoxHeaderEEvEENS_10shared_ptrIT_EERKT0_DpOT1_
_ZNSt3__115allocate_sharedB6v15000IN4heif8Box_hdlrENS_9allocatorIS2_EEJRNS1_9BoxHeaderEEvEENS_10shared_ptrIT_EERKT0_DpOT1_
_ZNSt3__115allocate_sharedB6v15000IN4heif8Box_hvcCENS_9allocatorIS2_EEJRNS1_9BoxHeaderEEvEENS_10shared_ptrIT_EERKT0_DpOT1_
_ZNSt3__115allocate_sharedB6v15000IN4heif8Box_idatENS_9allocatorIS2_EEJRNS1_9BoxHeaderEEvEENS_10shared_ptrIT_EERKT0_DpOT1_
_ZNSt3__115allocate_sharedB6v15000IN4heif8Box_iinfENS_9allocatorIS2_EEJRNS1_9BoxHeaderEEvEENS_10shared_ptrIT_EERKT0_DpOT1_
_ZNSt3__115allocate_sharedB6v15000IN4heif8Box_ilocENS_9allocatorIS2_EEJRNS1_9BoxHeaderEEvEENS_10shared_ptrIT_EERKT0_DpOT1_
_ZNSt3__115allocate_sharedB6v15000IN4heif8Box_imirENS_9allocatorIS2_EEJRNS1_9BoxHeaderEEvEENS_10shared_ptrIT_EERKT0_DpOT1_
_ZNSt3__115allocate_sharedB6v15000IN4heif8Box_infeENS_9allocatorIS2_EEJRNS1_9BoxHeaderEEvEENS_10shared_ptrIT_EERKT0_DpOT1_
_ZNSt3__115allocate_sharedB6v15000IN4heif8Box_ipcoENS_9allocatorIS2_EEJRNS1_9BoxHeaderEEvEENS_10shared_ptrIT_EERKT0_DpOT1_
_ZNSt3__115allocate_sharedB6v15000IN4heif8Box_ipmaENS_9allocatorIS2_EEJRNS1_9BoxHeaderEEvEENS_10shared_ptrIT_EERKT0_DpOT1_
_ZNSt3__115allocate_sharedB6v15000IN4heif8Box_iprpENS_9allocatorIS2_EEJRNS1_9BoxHeaderEEvEENS_10shared_ptrIT_EERKT0_DpOT1_
_ZNSt3__115allocate_sharedB6v15000IN4heif8Box_irefENS_9allocatorIS2_EEJRNS1_9BoxHeaderEEvEENS_10shared_ptrIT_EERKT0_DpOT1_
_ZNSt3__115allocate_sharedB6v15000IN4heif8Box_irotENS_9allocatorIS2_EEJRNS1_9BoxHeaderEEvEENS_10shared_ptrIT_EERKT0_DpOT1_
_ZNSt3__115allocate_sharedB6v15000IN4heif8Box_ispeENS_9allocatorIS2_EEJRNS1_9BoxHeaderEEvEENS_10shared_ptrIT_EERKT0_DpOT1_
_ZNSt3__115allocate_sharedB6v15000IN4heif8Box_metaENS_9allocatorIS2_EEJRNS1_9BoxHeaderEEvEENS_10shared_ptrIT_EERKT0_DpOT1_
_ZNSt3__115allocate_sharedB6v15000IN4heif8Box_pitmENS_9allocatorIS2_EEJRNS1_9BoxHeaderEEvEENS_10shared_ptrIT_EERKT0_DpOT1_
_ZNSt3__115allocate_sharedB6v15000IN4heif8Box_pixiENS_9allocatorIS2_EEJRNS1_9BoxHeaderEEvEENS_10shared_ptrIT_EERKT0_DpOT1_
_ZNSt3__116__pad_and_outputIcNS_11char_traitsIcEEEENS_19ostreambuf_iteratorIT_T0_EES6_PKS4_S8_S8_RNS_8ios_baseES4_
_ZNSt3__116__throw_bad_castB6v15000Ev
_ZNSt3__119__async_assoc_stateIN4heif5ErrorENS_12__async_funcIMNS1_11HeifContextEKFS2_jRKNS_10shared_ptrINS1_14HeifPixelImageEEEiiEJPKS4_jS7_iiEEEE16__on_zero_sharedEv
_ZNSt3__119__async_assoc_stateIN4heif5ErrorENS_12__async_funcIMNS1_11HeifContextEKFS2_jRKNS_10shared_ptrINS1_14HeifPixelImageEEEiiEJPKS4_jS7_iiEEEE9__executeEv
_ZNSt3__119__async_assoc_stateIN4heif5ErrorENS_12__async_funcIMNS1_11HeifContextEKFS2_jRKNS_10shared_ptrINS1_14HeifPixelImageEEEiiEJPKS4_jS7_iiEEEED0Ev
_ZNSt3__119__async_assoc_stateIN4heif5ErrorENS_12__async_funcIMNS1_11HeifContextEKFS2_jRKNS_10shared_ptrINS1_14HeifPixelImageEEEiiEJPKS4_jS7_iiEEEED2Ev
_ZNSt3__120__shared_ptr_emplaceI15Op_RGB_to_YCbCrIhENS_9allocatorIS2_EEE16__on_zero_sharedEv
_ZNSt3__120__shared_ptr_emplaceI15Op_RGB_to_YCbCrIhENS_9allocatorIS2_EEE21__on_zero_shared_weakEv
_ZNSt3__120__shared_ptr_emplaceI15Op_RGB_to_YCbCrIhENS_9allocatorIS2_EEED0Ev
_ZNSt3__120__shared_ptr_emplaceI15Op_RGB_to_YCbCrIhENS_9allocatorIS2_EEED2Ev
_ZNSt3__120__shared_ptr_emplaceI15Op_RGB_to_YCbCrItENS_9allocatorIS2_EEE16__on_zero_sharedEv
_ZNSt3__120__shared_ptr_emplaceI15Op_RGB_to_YCbCrItENS_9allocatorIS2_EEE21__on_zero_shared_weakEv
_ZNSt3__120__shared_ptr_emplaceI15Op_RGB_to_YCbCrItENS_9allocatorIS2_EEED0Ev
_ZNSt3__120__shared_ptr_emplaceI15Op_RGB_to_YCbCrItENS_9allocatorIS2_EEED2Ev
_ZNSt3__120__shared_ptr_emplaceI15Op_YCbCr_to_RGBIhENS_9allocatorIS2_EEE16__on_zero_sharedEv
_ZNSt3__120__shared_ptr_emplaceI15Op_YCbCr_to_RGBIhENS_9allocatorIS2_EEE21__on_zero_shared_weakEv
_ZNSt3__120__shared_ptr_emplaceI15Op_YCbCr_to_RGBIhENS_9allocatorIS2_EEED0Ev
_ZNSt3__120__shared_ptr_emplaceI15Op_YCbCr_to_RGBIhENS_9allocatorIS2_EEED2Ev
_ZNSt3__120__shared_ptr_emplaceI15Op_YCbCr_to_RGBItENS_9allocatorIS2_EEE16__on_zero_sharedEv
_ZNSt3__120__shared_ptr_emplaceI15Op_YCbCr_to_RGBItENS_9allocatorIS2_EEE21__on_zero_shared_weakEv
_ZNSt3__120__shared_ptr_emplaceI15Op_YCbCr_to_RGBItENS_9allocatorIS2_EEED0Ev
_ZNSt3__120__shared_ptr_emplaceI15Op_YCbCr_to_RGBItENS_9allocatorIS2_EEED2Ev
_ZNSt3__120__shared_ptr_emplaceI16Op_to_hdr_planesNS_9allocatorIS1_EEE16__on_zero_sharedEv
_ZNSt3__120__shared_ptr_emplaceI16Op_to_hdr_planesNS_9allocatorIS1_EEE21__on_zero_shared_weakEv
_ZNSt3__120__shared_ptr_emplaceI16Op_to_hdr_planesNS_9allocatorIS1_EEED0Ev
_ZNSt3__120__shared_ptr_emplaceI16Op_to_hdr_planesNS_9allocatorIS1_EEED2Ev
_ZNSt3__120__shared_ptr_emplaceI16Op_to_sdr_planesNS_9allocatorIS1_EEE16__on_zero_sharedEv
_ZNSt3__120__shared_ptr_emplaceI16Op_to_sdr_planesNS_9allocatorIS1_EEE21__on_zero_shared_weakEv
_ZNSt3__120__shared_ptr_emplaceI16Op_to_sdr_planesNS_9allocatorIS1_EEED0Ev
_ZNSt3__120__shared_ptr_emplaceI16Op_to_sdr_planesNS_9allocatorIS1_EEED2Ev
_ZNSt3__120__shared_ptr_emplaceI18Op_RGB_to_RGB24_32NS_9allocatorIS1_EEE16__on_zero_sharedEv
_ZNSt3__120__shared_ptr_emplaceI18Op_RGB_to_RGB24_32NS_9allocatorIS1_EEE21__on_zero_shared_weakEv
_ZNSt3__120__shared_ptr_emplaceI18Op_RGB_to_RGB24_32NS_9allocatorIS1_EEED0Ev
_ZNSt3__120__shared_ptr_emplaceI18Op_RGB_to_RGB24_32NS_9allocatorIS1_EEED2Ev
_ZNSt3__120__shared_ptr_emplaceI19Op_drop_alpha_planeNS_9allocatorIS1_EEE16__on_zero_sharedEv
_ZNSt3__120__shared_ptr_emplaceI19Op_drop_alpha_planeNS_9allocatorIS1_EEE21__on_zero_shared_weakEv
_ZNSt3__120__shared_ptr_emplaceI19Op_drop_alpha_planeNS_9allocatorIS1_EEED0Ev
_ZNSt3__120__shared_ptr_emplaceI19Op_drop_alpha_planeNS_9allocatorIS1_EEED2Ev
_ZNSt3__120__shared_ptr_emplaceI19Op_mono_to_RGB24_32NS_9allocatorIS1_EEE16__on_zero_sharedEv
_ZNSt3__120__shared_ptr_emplaceI19Op_mono_to_RGB24_32NS_9allocatorIS1_EEE21__on_zero_shared_weakEv
_ZNSt3__120__shared_ptr_emplaceI19Op_mono_to_RGB24_32NS_9allocatorIS1_EEED0Ev
_ZNSt3__120__shared_ptr_emplaceI19Op_mono_to_RGB24_32NS_9allocatorIS1_EEED2Ev
_ZNSt3__120__shared_ptr_emplaceI19Op_mono_to_YCbCr420NS_9allocatorIS1_EEE16__on_zero_sharedEv
_ZNSt3__120__shared_ptr_emplaceI19Op_mono_to_YCbCr420NS_9allocatorIS1_EEE21__on_zero_shared_weakEv
_ZNSt3__120__shared_ptr_emplaceI19Op_mono_to_YCbCr420NS_9allocatorIS1_EEED0Ev
_ZNSt3__120__shared_ptr_emplaceI19Op_mono_to_YCbCr420NS_9allocatorIS1_EEED2Ev
_ZNSt3__120__shared_ptr_emplaceI20Op_RGB24_32_to_YCbCrNS_9allocatorIS1_EEE16__on_zero_sharedEv
_ZNSt3__120__shared_ptr_emplaceI20Op_RGB24_32_to_YCbCrNS_9allocatorIS1_EEE21__on_zero_shared_weakEv
_ZNSt3__120__shared_ptr_emplaceI20Op_RGB24_32_to_YCbCrNS_9allocatorIS1_EEED0Ev
_ZNSt3__120__shared_ptr_emplaceI20Op_RGB24_32_to_YCbCrNS_9allocatorIS1_EEED2Ev
_ZNSt3__120__shared_ptr_emplaceI20Op_YCbCr420_to_RGB24NS_9allocatorIS1_EEE16__on_zero_sharedEv
_ZNSt3__120__shared_ptr_emplaceI20Op_YCbCr420_to_RGB24NS_9allocatorIS1_EEE21__on_zero_shared_weakEv
_ZNSt3__120__shared_ptr_emplaceI20Op_YCbCr420_to_RGB24NS_9allocatorIS1_EEED0Ev
_ZNSt3__120__shared_ptr_emplaceI20Op_YCbCr420_to_RGB24NS_9allocatorIS1_EEED2Ev
_ZNSt3__120__shared_ptr_emplaceI20Op_YCbCr420_to_RGB32NS_9allocatorIS1_EEE16__on_zero_sharedEv
_ZNSt3__120__shared_ptr_emplaceI20Op_YCbCr420_to_RGB32NS_9allocatorIS1_EEE21__on_zero_shared_weakEv
_ZNSt3__120__shared_ptr_emplaceI20Op_YCbCr420_to_RGB32NS_9allocatorIS1_EEED0Ev
_ZNSt3__120__shared_ptr_emplaceI20Op_YCbCr420_to_RGB32NS_9allocatorIS1_EEED2Ev
_ZNSt3__120__shared_ptr_emplaceI21Op_RGB_to_RRGGBBaa_BENS_9allocatorIS1_EEE16__on_zero_sharedEv
_ZNSt3__120__shared_ptr_emplaceI21Op_RGB_to_RRGGBBaa_BENS_9allocatorIS1_EEE21__on_zero_shared_weakEv
_ZNSt3__120__shared_ptr_emplaceI21Op_RGB_to_RRGGBBaa_BENS_9allocatorIS1_EEED0Ev
_ZNSt3__120__shared_ptr_emplaceI21Op_RGB_to_RRGGBBaa_BENS_9allocatorIS1_EEED2Ev
_ZNSt3__120__shared_ptr_emplaceI23Op_YCbCr420_to_RRGGBBaaNS_9allocatorIS1_EEE16__on_zero_sharedEv
_ZNSt3__120__shared_ptr_emplaceI23Op_YCbCr420_to_RRGGBBaaNS_9allocatorIS1_EEE21__on_zero_shared_weakEv
_ZNSt3__120__shared_ptr_emplaceI23Op_YCbCr420_to_RRGGBBaaNS_9allocatorIS1_EEED0Ev
_ZNSt3__120__shared_ptr_emplaceI23Op_YCbCr420_to_RRGGBBaaNS_9allocatorIS1_EEED2Ev
_ZNSt3__120__shared_ptr_emplaceI25Op_RGB_HDR_to_RRGGBBaa_BENS_9allocatorIS1_EEE16__on_zero_sharedEv
_ZNSt3__120__shared_ptr_emplaceI25Op_RGB_HDR_to_RRGGBBaa_BENS_9allocatorIS1_EEE21__on_zero_shared_weakEv
_ZNSt3__120__shared_ptr_emplaceI25Op_RGB_HDR_to_RRGGBBaa_BENS_9allocatorIS1_EEED0Ev
_ZNSt3__120__shared_ptr_emplaceI25Op_RGB_HDR_to_RRGGBBaa_BENS_9allocatorIS1_EEED2Ev
_ZNSt3__120__shared_ptr_emplaceI25Op_RRGGBBaa_BE_to_RGB_HDRNS_9allocatorIS1_EEE16__on_zero_sharedEv
_ZNSt3__120__shared_ptr_emplaceI25Op_RRGGBBaa_BE_to_RGB_HDRNS_9allocatorIS1_EEE21__on_zero_shared_weakEv
_ZNSt3__120__shared_ptr_emplaceI25Op_RRGGBBaa_BE_to_RGB_HDRNS_9allocatorIS1_EEED0Ev
_ZNSt3__120__shared_ptr_emplaceI25Op_RRGGBBaa_BE_to_RGB_HDRNS_9allocatorIS1_EEED2Ev
_ZNSt3__120__shared_ptr_emplaceI27Op_RGB24_32_to_YCbCr444_GBRNS_9allocatorIS1_EEE16__on_zero_sharedEv
_ZNSt3__120__shared_ptr_emplaceI27Op_RGB24_32_to_YCbCr444_GBRNS_9allocatorIS1_EEE21__on_zero_shared_weakEv
_ZNSt3__120__shared_ptr_emplaceI27Op_RGB24_32_to_YCbCr444_GBRNS_9allocatorIS1_EEED0Ev
_ZNSt3__120__shared_ptr_emplaceI27Op_RGB24_32_to_YCbCr444_GBRNS_9allocatorIS1_EEED2Ev
_ZNSt3__120__shared_ptr_emplaceI27Op_RRGGBBaa_swap_endiannessNS_9allocatorIS1_EEE16__on_zero_sharedEv
_ZNSt3__120__shared_ptr_emplaceI27Op_RRGGBBaa_swap_endiannessNS_9allocatorIS1_EEE21__on_zero_shared_weakEv
_ZNSt3__120__shared_ptr_emplaceI27Op_RRGGBBaa_swap_endiannessNS_9allocatorIS1_EEED0Ev
_ZNSt3__120__shared_ptr_emplaceI27Op_RRGGBBaa_swap_endiannessNS_9allocatorIS1_EEED2Ev
_ZNSt3__120__shared_ptr_emplaceI27Op_RRGGBBxx_HDR_to_YCbCr420NS_9allocatorIS1_EEE16__on_zero_sharedEv
_ZNSt3__120__shared_ptr_emplaceI27Op_RRGGBBxx_HDR_to_YCbCr420NS_9allocatorIS1_EEE21__on_zero_shared_weakEv
_ZNSt3__120__shared_ptr_emplaceI27Op_RRGGBBxx_HDR_to_YCbCr420NS_9allocatorIS1_EEED0Ev
_ZNSt3__120__shared_ptr_emplaceI27Op_RRGGBBxx_HDR_to_YCbCr420NS_9allocatorIS1_EEED2Ev
_ZNSt3__120__shared_ptr_emplaceIN4heif11HeifContext5ImageENS_9allocatorIS3_EEE16__on_zero_sharedEv
_ZNSt3__120__shared_ptr_emplaceIN4heif11HeifContext5ImageENS_9allocatorIS3_EEE21__on_zero_shared_weakEv
_ZNSt3__120__shared_ptr_emplaceIN4heif11HeifContext5ImageENS_9allocatorIS3_EEED0Ev
_ZNSt3__120__shared_ptr_emplaceIN4heif11HeifContext5ImageENS_9allocatorIS3_EEED2Ev
_ZNSt3__120__shared_ptr_emplaceIN4heif11HeifContextENS_9allocatorIS2_EEE16__on_zero_sharedEv
_ZNSt3__120__shared_ptr_emplaceIN4heif11HeifContextENS_9allocatorIS2_EEE21__on_zero_shared_weakEv
_ZNSt3__120__shared_ptr_emplaceIN4heif11HeifContextENS_9allocatorIS2_EEED0Ev
_ZNSt3__120__shared_ptr_emplaceIN4heif11HeifContextENS_9allocatorIS2_EEED2Ev
_ZNSt3__120__shared_ptr_emplaceIN4heif13ImageMetadataENS_9allocatorIS2_EEE16__on_zero_sharedEv
_ZNSt3__120__shared_ptr_emplaceIN4heif13ImageMetadataENS_9allocatorIS2_EEE21__on_zero_shared_weakEv
_ZNSt3__120__shared_ptr_emplaceIN4heif13ImageMetadataENS_9allocatorIS2_EEED0Ev
_ZNSt3__120__shared_ptr_emplaceIN4heif13ImageMetadataENS_9allocatorIS2_EEED2Ev
_ZNSt3__120__shared_ptr_emplaceIN4heif14HeifPixelImageENS_9allocatorIS2_EEE16__on_zero_sharedEv
_ZNSt3__120__shared_ptr_emplaceIN4heif14HeifPixelImageENS_9allocatorIS2_EEE21__on_zero_shared_weakEv
_ZNSt3__120__shared_ptr_emplaceIN4heif14HeifPixelImageENS_9allocatorIS2_EEED0Ev
_ZNSt3__120__shared_ptr_emplaceIN4heif14HeifPixelImageENS_9allocatorIS2_EEED2Ev
_ZNSt3__120__shared_ptr_emplaceIN4heif17StreamReader_CApiENS_9allocatorIS2_EEE16__on_zero_sharedEv
_ZNSt3__120__shared_ptr_emplaceIN4heif17StreamReader_CApiENS_9allocatorIS2_EEE21__on_zero_shared_weakEv
_ZNSt3__120__shared_ptr_emplaceIN4heif17StreamReader_CApiENS_9allocatorIS2_EEED0Ev
_ZNSt3__120__shared_ptr_emplaceIN4heif17StreamReader_CApiENS_9allocatorIS2_EEED2Ev
_ZNSt3__120__shared_ptr_emplaceIN4heif17color_profile_rawENS_9allocatorIS2_EEE16__on_zero_sharedEv
_ZNSt3__120__shared_ptr_emplaceIN4heif17color_profile_rawENS_9allocatorIS2_EEE21__on_zero_shared_weakEv
_ZNSt3__120__shared_ptr_emplaceIN4heif17color_profile_rawENS_9allocatorIS2_EEED0Ev
_ZNSt3__120__shared_ptr_emplaceIN4heif17color_profile_rawENS_9allocatorIS2_EEED2Ev
_ZNSt3__120__shared_ptr_emplaceIN4heif18color_profile_nclxENS_9allocatorIS2_EEE16__on_zero_sharedEv
_ZNSt3__120__shared_ptr_emplaceIN4heif18color_profile_nclxENS_9allocatorIS2_EEE21__on_zero_shared_weakEv
_ZNSt3__120__shared_ptr_emplaceIN4heif18color_profile_nclxENS_9allocatorIS2_EEED0Ev
_ZNSt3__120__shared_ptr_emplaceIN4heif18color_profile_nclxENS_9allocatorIS2_EEED2Ev
_ZNSt3__120__shared_ptr_emplaceIN4heif19StreamReader_memoryENS_9allocatorIS2_EEE16__on_zero_sharedEv
_ZNSt3__120__shared_ptr_emplaceIN4heif19StreamReader_memoryENS_9allocatorIS2_EEE21__on_zero_shared_weakEv
_ZNSt3__120__shared_ptr_emplaceIN4heif19StreamReader_memoryENS_9allocatorIS2_EEED0Ev
_ZNSt3__120__shared_ptr_emplaceIN4heif19StreamReader_memoryENS_9allocatorIS2_EEED2Ev
_ZNSt3__120__shared_ptr_emplaceIN4heif20StreamReader_istreamENS_9allocatorIS2_EEE16__on_zero_sharedEv
_ZNSt3__120__shared_ptr_emplaceIN4heif20StreamReader_istreamENS_9allocatorIS2_EEE21__on_zero_shared_weakEv
_ZNSt3__120__shared_ptr_emplaceIN4heif20StreamReader_istreamENS_9allocatorIS2_EEED0Ev
_ZNSt3__120__shared_ptr_emplaceIN4heif20StreamReader_istreamENS_9allocatorIS2_EEED2Ev
_ZNSt3__120__shared_ptr_emplaceIN4heif36SEIMessage_depth_representation_infoENS_9allocatorIS2_EEE16__on_zero_sharedEv
_ZNSt3__120__shared_ptr_emplaceIN4heif36SEIMessage_depth_representation_infoENS_9allocatorIS2_EEE21__on_zero_shared_weakEv
_ZNSt3__120__shared_ptr_emplaceIN4heif36SEIMessage_depth_representation_infoENS_9allocatorIS2_EEED0Ev
_ZNSt3__120__shared_ptr_emplaceIN4heif36SEIMessage_depth_representation_infoENS_9allocatorIS2_EEED2Ev
_ZNSt3__120__shared_ptr_emplaceIN4heif3BoxENS_9allocatorIS2_EEE16__on_zero_sharedEv
_ZNSt3__120__shared_ptr_emplaceIN4heif3BoxENS_9allocatorIS2_EEE21__on_zero_shared_weakEv
_ZNSt3__120__shared_ptr_emplaceIN4heif3BoxENS_9allocatorIS2_EEED0Ev
_ZNSt3__120__shared_ptr_emplaceIN4heif3BoxENS_9allocatorIS2_EEED2Ev
_ZNSt3__120__shared_ptr_emplaceIN4heif7Box_urlENS_9allocatorIS2_EEE16__on_zero_sharedEv
_ZNSt3__120__shared_ptr_emplaceIN4heif7Box_urlENS_9allocatorIS2_EEE21__on_zero_shared_weakEv
_ZNSt3__120__shared_ptr_emplaceIN4heif7Box_urlENS_9allocatorIS2_EEED0Ev
_ZNSt3__120__shared_ptr_emplaceIN4heif7Box_urlENS_9allocatorIS2_EEED2Ev
_ZNSt3__120__shared_ptr_emplaceIN4heif8Box_auxCENS_9allocatorIS2_EEE16__on_zero_sharedEv
_ZNSt3__120__shared_ptr_emplaceIN4heif8Box_auxCENS_9allocatorIS2_EEE21__on_zero_shared_weakEv
_ZNSt3__120__shared_ptr_emplaceIN4heif8Box_auxCENS_9allocatorIS2_EEED0Ev
_ZNSt3__120__shared_ptr_emplaceIN4heif8Box_auxCENS_9allocatorIS2_EEED2Ev
_ZNSt3__120__shared_ptr_emplaceIN4heif8Box_av1CENS_9allocatorIS2_EEE16__on_zero_sharedEv
_ZNSt3__120__shared_ptr_emplaceIN4heif8Box_av1CENS_9allocatorIS2_EEE21__on_zero_shared_weakEv
_ZNSt3__120__shared_ptr_emplaceIN4heif8Box_av1CENS_9allocatorIS2_EEED0Ev
_ZNSt3__120__shared_ptr_emplaceIN4heif8Box_av1CENS_9allocatorIS2_EEED2Ev
_ZNSt3__120__shared_ptr_emplaceIN4heif8Box_clapENS_9allocatorIS2_EEE16__on_zero_sharedEv
_ZNSt3__120__shared_ptr_emplaceIN4heif8Box_clapENS_9allocatorIS2_EEE21__on_zero_shared_weakEv
_ZNSt3__120__shared_ptr_emplaceIN4heif8Box_clapENS_9allocatorIS2_EEEC2B6v15000IJRNS1_9BoxHeaderEEEES4_DpOT_
_ZNSt3__120__shared_ptr_emplaceIN4heif8Box_clapENS_9allocatorIS2_EEED0Ev
_ZNSt3__120__shared_ptr_emplaceIN4heif8Box_clapENS_9allocatorIS2_EEED2Ev
_ZNSt3__120__shared_ptr_emplaceIN4heif8Box_colrENS_9allocatorIS2_EEE16__on_zero_sharedEv
_ZNSt3__120__shared_ptr_emplaceIN4heif8Box_colrENS_9allocatorIS2_EEE21__on_zero_shared_weakEv
_ZNSt3__120__shared_ptr_emplaceIN4heif8Box_colrENS_9allocatorIS2_EEED0Ev
_ZNSt3__120__shared_ptr_emplaceIN4heif8Box_colrENS_9allocatorIS2_EEED2Ev
_ZNSt3__120__shared_ptr_emplaceIN4heif8Box_dinfENS_9allocatorIS2_EEE16__on_zero_sharedEv
_ZNSt3__120__shared_ptr_emplaceIN4heif8Box_dinfENS_9allocatorIS2_EEE21__on_zero_shared_weakEv
_ZNSt3__120__shared_ptr_emplaceIN4heif8Box_dinfENS_9allocatorIS2_EEED0Ev
_ZNSt3__120__shared_ptr_emplaceIN4heif8Box_dinfENS_9allocatorIS2_EEED2Ev
_ZNSt3__120__shared_ptr_emplaceIN4heif8Box_drefENS_9allocatorIS2_EEE16__on_zero_sharedEv
_ZNSt3__120__shared_ptr_emplaceIN4heif8Box_drefENS_9allocatorIS2_EEE21__on_zero_shared_weakEv
_ZNSt3__120__shared_ptr_emplaceIN4heif8Box_drefENS_9allocatorIS2_EEED0Ev
_ZNSt3__120__shared_ptr_emplaceIN4heif8Box_drefENS_9allocatorIS2_EEED2Ev
_ZNSt3__120__shared_ptr_emplaceIN4heif8Box_ftypENS_9allocatorIS2_EEE16__on_zero_sharedEv
_ZNSt3__120__shared_ptr_emplaceIN4heif8Box_ftypENS_9allocatorIS2_EEE21__on_zero_shared_weakEv
_ZNSt3__120__shared_ptr_emplaceIN4heif8Box_ftypENS_9allocatorIS2_EEED0Ev
_ZNSt3__120__shared_ptr_emplaceIN4heif8Box_ftypENS_9allocatorIS2_EEED2Ev
_ZNSt3__120__shared_ptr_emplaceIN4heif8Box_grplENS_9allocatorIS2_EEE16__on_zero_sharedEv
_ZNSt3__120__shared_ptr_emplaceIN4heif8Box_grplENS_9allocatorIS2_EEE21__on_zero_shared_weakEv
_ZNSt3__120__shared_ptr_emplaceIN4heif8Box_grplENS_9allocatorIS2_EEED0Ev
_ZNSt3__120__shared_ptr_emplaceIN4heif8Box_grplENS_9allocatorIS2_EEED2Ev
_ZNSt3__120__shared_ptr_emplaceIN4heif8Box_hdlrENS_9allocatorIS2_EEE16__on_zero_sharedEv
_ZNSt3__120__shared_ptr_emplaceIN4heif8Box_hdlrENS_9allocatorIS2_EEE21__on_zero_shared_weakEv
_ZNSt3__120__shared_ptr_emplaceIN4heif8Box_hdlrENS_9allocatorIS2_EEED0Ev
_ZNSt3__120__shared_ptr_emplaceIN4heif8Box_hdlrENS_9allocatorIS2_EEED2Ev
_ZNSt3__120__shared_ptr_emplaceIN4heif8Box_hvcCENS_9allocatorIS2_EEE16__on_zero_sharedEv
_ZNSt3__120__shared_ptr_emplaceIN4heif8Box_hvcCENS_9allocatorIS2_EEE21__on_zero_shared_weakEv
_ZNSt3__120__shared_ptr_emplaceIN4heif8Box_hvcCENS_9allocatorIS2_EEED0Ev
_ZNSt3__120__shared_ptr_emplaceIN4heif8Box_hvcCENS_9allocatorIS2_EEED2Ev
_ZNSt3__120__shared_ptr_emplaceIN4heif8Box_idatENS_9allocatorIS2_EEE16__on_zero_sharedEv
_ZNSt3__120__shared_ptr_emplaceIN4heif8Box_idatENS_9allocatorIS2_EEE21__on_zero_shared_weakEv
_ZNSt3__120__shared_ptr_emplaceIN4heif8Box_idatENS_9allocatorIS2_EEED0Ev
_ZNSt3__120__shared_ptr_emplaceIN4heif8Box_idatENS_9allocatorIS2_EEED2Ev
_ZNSt3__120__shared_ptr_emplaceIN4heif8Box_iinfENS_9allocatorIS2_EEE16__on_zero_sharedEv
_ZNSt3__120__shared_ptr_emplaceIN4heif8Box_iinfENS_9allocatorIS2_EEE21__on_zero_shared_weakEv
_ZNSt3__120__shared_ptr_emplaceIN4heif8Box_iinfENS_9allocatorIS2_EEED0Ev
_ZNSt3__120__shared_ptr_emplaceIN4heif8Box_iinfENS_9allocatorIS2_EEED2Ev
_ZNSt3__120__shared_ptr_emplaceIN4heif8Box_ilocENS_9allocatorIS2_EEE16__on_zero_sharedEv
_ZNSt3__120__shared_ptr_emplaceIN4heif8Box_ilocENS_9allocatorIS2_EEE21__on_zero_shared_weakEv
_ZNSt3__120__shared_ptr_emplaceIN4heif8Box_ilocENS_9allocatorIS2_EEED0Ev
_ZNSt3__120__shared_ptr_emplaceIN4heif8Box_ilocENS_9allocatorIS2_EEED2Ev
_ZNSt3__120__shared_ptr_emplaceIN4heif8Box_imirENS_9allocatorIS2_EEE16__on_zero_sharedEv
_ZNSt3__120__shared_ptr_emplaceIN4heif8Box_imirENS_9allocatorIS2_EEE21__on_zero_shared_weakEv
_ZNSt3__120__shared_ptr_emplaceIN4heif8Box_imirENS_9allocatorIS2_EEED0Ev
_ZNSt3__120__shared_ptr_emplaceIN4heif8Box_imirENS_9allocatorIS2_EEED2Ev
_ZNSt3__120__shared_ptr_emplaceIN4heif8Box_infeENS_9allocatorIS2_EEE16__on_zero_sharedEv
_ZNSt3__120__shared_ptr_emplaceIN4heif8Box_infeENS_9allocatorIS2_EEE21__on_zero_shared_weakEv
_ZNSt3__120__shared_ptr_emplaceIN4heif8Box_infeENS_9allocatorIS2_EEED0Ev
_ZNSt3__120__shared_ptr_emplaceIN4heif8Box_infeENS_9allocatorIS2_EEED2Ev
_ZNSt3__120__shared_ptr_emplaceIN4heif8Box_ipcoENS_9allocatorIS2_EEE16__on_zero_sharedEv
_ZNSt3__120__shared_ptr_emplaceIN4heif8Box_ipcoENS_9allocatorIS2_EEE21__on_zero_shared_weakEv
_ZNSt3__120__shared_ptr_emplaceIN4heif8Box_ipcoENS_9allocatorIS2_EEED0Ev
_ZNSt3__120__shared_ptr_emplaceIN4heif8Box_ipcoENS_9allocatorIS2_EEED2Ev
_ZNSt3__120__shared_ptr_emplaceIN4heif8Box_ipmaENS_9allocatorIS2_EEE16__on_zero_sharedEv
_ZNSt3__120__shared_ptr_emplaceIN4heif8Box_ipmaENS_9allocatorIS2_EEE21__on_zero_shared_weakEv
_ZNSt3__120__shared_ptr_emplaceIN4heif8Box_ipmaENS_9allocatorIS2_EEED0Ev
_ZNSt3__120__shared_ptr_emplaceIN4heif8Box_ipmaENS_9allocatorIS2_EEED2Ev
_ZNSt3__120__shared_ptr_emplaceIN4heif8Box_iprpENS_9allocatorIS2_EEE16__on_zero_sharedEv
_ZNSt3__120__shared_ptr_emplaceIN4heif8Box_iprpENS_9allocatorIS2_EEE21__on_zero_shared_weakEv
_ZNSt3__120__shared_ptr_emplaceIN4heif8Box_iprpENS_9allocatorIS2_EEED0Ev
_ZNSt3__120__shared_ptr_emplaceIN4heif8Box_iprpENS_9allocatorIS2_EEED2Ev
_ZNSt3__120__shared_ptr_emplaceIN4heif8Box_irefENS_9allocatorIS2_EEE16__on_zero_sharedEv
_ZNSt3__120__shared_ptr_emplaceIN4heif8Box_irefENS_9allocatorIS2_EEE21__on_zero_shared_weakEv
_ZNSt3__120__shared_ptr_emplaceIN4heif8Box_irefENS_9allocatorIS2_EEED0Ev
_ZNSt3__120__shared_ptr_emplaceIN4heif8Box_irefENS_9allocatorIS2_EEED2Ev
_ZNSt3__120__shared_ptr_emplaceIN4heif8Box_irotENS_9allocatorIS2_EEE16__on_zero_sharedEv
_ZNSt3__120__shared_ptr_emplaceIN4heif8Box_irotENS_9allocatorIS2_EEE21__on_zero_shared_weakEv
_ZNSt3__120__shared_ptr_emplaceIN4heif8Box_irotENS_9allocatorIS2_EEED0Ev
_ZNSt3__120__shared_ptr_emplaceIN4heif8Box_irotENS_9allocatorIS2_EEED2Ev
_ZNSt3__120__shared_ptr_emplaceIN4heif8Box_ispeENS_9allocatorIS2_EEE16__on_zero_sharedEv
_ZNSt3__120__shared_ptr_emplaceIN4heif8Box_ispeENS_9allocatorIS2_EEE21__on_zero_shared_weakEv
_ZNSt3__120__shared_ptr_emplaceIN4heif8Box_ispeENS_9allocatorIS2_EEED0Ev
_ZNSt3__120__shared_ptr_emplaceIN4heif8Box_ispeENS_9allocatorIS2_EEED2Ev
_ZNSt3__120__shared_ptr_emplaceIN4heif8Box_metaENS_9allocatorIS2_EEE16__on_zero_sharedEv
_ZNSt3__120__shared_ptr_emplaceIN4heif8Box_metaENS_9allocatorIS2_EEE21__on_zero_shared_weakEv
_ZNSt3__120__shared_ptr_emplaceIN4heif8Box_metaENS_9allocatorIS2_EEED0Ev
_ZNSt3__120__shared_ptr_emplaceIN4heif8Box_metaENS_9allocatorIS2_EEED2Ev
_ZNSt3__120__shared_ptr_emplaceIN4heif8Box_pitmENS_9allocatorIS2_EEE16__on_zero_sharedEv
_ZNSt3__120__shared_ptr_emplaceIN4heif8Box_pitmENS_9allocatorIS2_EEE21__on_zero_shared_weakEv
_ZNSt3__120__shared_ptr_emplaceIN4heif8Box_pitmENS_9allocatorIS2_EEED0Ev
_ZNSt3__120__shared_ptr_emplaceIN4heif8Box_pitmENS_9allocatorIS2_EEED2Ev
_ZNSt3__120__shared_ptr_emplaceIN4heif8Box_pixiENS_9allocatorIS2_EEE16__on_zero_sharedEv
_ZNSt3__120__shared_ptr_emplaceIN4heif8Box_pixiENS_9allocatorIS2_EEE21__on_zero_shared_weakEv
_ZNSt3__120__shared_ptr_emplaceIN4heif8Box_pixiENS_9allocatorIS2_EEED0Ev
_ZNSt3__120__shared_ptr_emplaceIN4heif8Box_pixiENS_9allocatorIS2_EEED2Ev
_ZNSt3__120__shared_ptr_emplaceIN4heif8HeifFileENS_9allocatorIS2_EEE16__on_zero_sharedEv
_ZNSt3__120__shared_ptr_emplaceIN4heif8HeifFileENS_9allocatorIS2_EEE21__on_zero_shared_weakEv
_ZNSt3__120__shared_ptr_emplaceIN4heif8HeifFileENS_9allocatorIS2_EEED0Ev
_ZNSt3__120__shared_ptr_emplaceIN4heif8HeifFileENS_9allocatorIS2_EEED2Ev
_ZNSt3__120__throw_bad_weak_ptrB6v15000Ev
_ZNSt3__120__throw_future_errorB6v15000ENS_11future_errcE
_ZNSt3__120__throw_length_errorB6v15000EPKc
_ZNSt3__120__throw_out_of_rangeB6v15000EPKc
_ZNSt3__120dynamic_pointer_castB6v15000IN4heif8Box_idatENS1_3BoxEEENS_10shared_ptrIT_EERKNS4_IT0_EE
_ZNSt3__120dynamic_pointer_castB6v15000IN4heif8Box_iinfENS1_3BoxEEENS_10shared_ptrIT_EERKNS4_IT0_EE
_ZNSt3__120dynamic_pointer_castB6v15000IN4heif8Box_ilocENS1_3BoxEEENS_10shared_ptrIT_EERKNS4_IT0_EE
_ZNSt3__120dynamic_pointer_castB6v15000IN4heif8Box_irefENS1_3BoxEEENS_10shared_ptrIT_EERKNS4_IT0_EE
_ZNSt3__122__deferred_assoc_stateIN4heif5ErrorENS_12__async_funcIMNS1_11HeifContextEKFS2_jRKNS_10shared_ptrINS1_14HeifPixelImageEEEiiEJPKS4_jS7_iiEEEE9__executeEv
_ZNSt3__122__deferred_assoc_stateIN4heif5ErrorENS_12__async_funcIMNS1_11HeifContextEKFS2_jRKNS_10shared_ptrINS1_14HeifPixelImageEEEiiEJPKS4_jS7_iiEEEED0Ev
_ZNSt3__122__deferred_assoc_stateIN4heif5ErrorENS_12__async_funcIMNS1_11HeifContextEKFS2_jRKNS_10shared_ptrINS1_14HeifPixelImageEEEiiEJPKS4_jS7_iiEEEED2Ev
_ZNSt3__124__make_async_assoc_stateB6v15000IN4heif5ErrorENS_12__async_funcIMNS1_11HeifContextEKFS2_jRKNS_10shared_ptrINS1_14HeifPixelImageEEEiiEJPKS4_jS7_iiEEEEENS_6futureIT_EEOT0_
_ZNSt3__124__put_character_sequenceIcNS_11char_traitsIcEEEERNS_13basic_ostreamIT_T0_EES7_PKS4_y
_ZNSt3__127__make_deferred_assoc_stateB6v15000IN4heif5ErrorENS_12__async_funcIMNS1_11HeifContextEKFS2_jRKNS_10shared_ptrINS1_14HeifPixelImageEEEiiEJPKS4_jS7_iiEEEEENS_6futureIT_EEOT0_
_ZNSt3__127__tree_balance_after_insertIPNS_16__tree_node_baseIPvEEEEvT_S5_
_ZNSt3__130__uninitialized_allocator_copyB6v15000INS_9allocatorIN4heif5ErrorEEEPS3_S5_S5_EET2_RT_T0_T1_S6_
_ZNSt3__130__uninitialized_allocator_copyB6v15000INS_9allocatorIN4heif8Box_iloc4ItemEEEPS4_S6_S6_EET2_RT_T0_T1_S7_
_ZNSt3__130__uninitialized_allocator_copyB6v15000INS_9allocatorIN4heif8Box_iloc6ExtentEEEPS4_S6_S6_EET2_RT_T0_T1_S7_
_ZNSt3__130__uninitialized_allocator_copyB6v15000INS_9allocatorINS_6vectorIhNS1_IhEEEEEEPS4_S6_S6_EET2_RT_T0_T1_S7_
_ZNSt3__13setI20heif_color_primariesNS_4lessIS1_EENS_9allocatorIS1_EEEC2B6v15000ESt16initializer_listIS1_ERKS3_
_ZNSt3__13setI24heif_matrix_coefficientsNS_4lessIS1_EENS_9allocatorIS1_EEEC2B6v15000ESt16initializer_listIS1_ERKS3_
_ZNSt3__13setI29heif_transfer_characteristicsNS_4lessIS1_EENS_9allocatorIS1_EEEC2B6v15000ESt16initializer_listIS1_ERKS3_
_ZNSt3__14pairIjNS_10shared_ptrIN4heif11HeifContext5ImageEEEED2Ev
_ZNSt3__14pairIjNS_10shared_ptrIN4heif8Box_infeEEEED2Ev
_ZNSt3__15asyncIMN4heif11HeifContextEKFNS1_5ErrorEjRKNS_10shared_ptrINS1_14HeifPixelImageEEEiiEJPKS2_RjRS6_RiSF_EEENS_6futureINS_11__invoke_ofINS_5decayIT_E4typeEJDpNSI_IT0_E4typeEEE4typeEEENS_6launchEOSJ_DpOSM_
_ZNSt3__15dequeINS_6futureIN4heif5ErrorEEENS_9allocatorIS4_EEE19__add_back_capacityEv
_ZNSt3__16__treeI12heif_channelNS_4lessIS1_EENS_9allocatorIS1_EEE7destroyEPNS_11__tree_nodeIS1_PvEE
_ZNSt3__16__treeI20heif_color_primariesNS_4lessIS1_EENS_9allocatorIS1_EEE12__find_equalIS1_EERPNS_16__tree_node_baseIPvEENS_21__tree_const_iteratorIS1_PNS_11__tree_nodeIS1_S9_EExEERPNS_15__tree_end_nodeISB_EESC_RKT_
_ZNSt3__16__treeI20heif_color_primariesNS_4lessIS1_EENS_9allocatorIS1_EEE7destroyEPNS_11__tree_nodeIS1_PvEE
_ZNSt3__16__treeI24heif_matrix_coefficientsNS_4lessIS1_EENS_9allocatorIS1_EEE12__find_equalIS1_EERPNS_16__tree_node_baseIPvEENS_21__tree_const_iteratorIS1_PNS_11__tree_nodeIS1_S9_EExEERPNS_15__tree_end_nodeISB_EESC_RKT_
_ZNSt3__16__treeI24heif_matrix_coefficientsNS_4lessIS1_EENS_9allocatorIS1_EEE7destroyEPNS_11__tree_nodeIS1_PvEE
_ZNSt3__16__treeI29heif_transfer_characteristicsNS_4lessIS1_EENS_9allocatorIS1_EEE12__find_equalIS1_EERPNS_16__tree_node_baseIPvEENS_21__tree_const_iteratorIS1_PNS_11__tree_nodeIS1_S9_EExEERPNS_15__tree_end_nodeISB_EESC_RKT_
_ZNSt3__16__treeI29heif_transfer_characteristicsNS_4lessIS1_EENS_9allocatorIS1_EEE7destroyEPNS_11__tree_nodeIS1_PvEE
_ZNSt3__16__treeINS_10unique_ptrI23heif_encoder_descriptorNS_14default_deleteIS2_EEEEN4heif33encoder_descriptor_priority_orderENS_9allocatorIS5_EEE7destroyEPNS_11__tree_nodeIS5_PvEE
_ZNSt3__16__treeINS_12__value_typeI12heif_channelN4heif14HeifPixelImage10ImagePlaneEEENS_19__map_value_compareIS2_S6_NS_4lessIS2_EELb1EEENS_9allocatorIS6_EEE7destroyEPNS_11__tree_nodeIS6_PvEE
_ZNSt3__16__treeINS_12__value_typeIjNS_10shared_ptrIN4heif11HeifContext5ImageEEEEENS_19__map_value_compareIjS7_NS_4lessIjEELb1EEENS_9allocatorIS7_EEE7destroyEPNS_11__tree_nodeIS7_PvEE
_ZNSt3__16__treeINS_12__value_typeIjNS_10shared_ptrIN4heif8Box_infeEEEEENS_19__map_value_compareIjS6_NS_4lessIjEELb1EEENS_9allocatorIS6_EEE7destroyEPNS_11__tree_nodeIS6_PvEE
_ZNSt3__16__treeIPK19heif_decoder_pluginNS_4lessIS3_EENS_9allocatorIS3_EEE7destroyEPNS_11__tree_nodeIS3_PvEE
_ZNSt3__16threadC2IMNS_19__async_assoc_stateIN4heif5ErrorENS_12__async_funcIMNS3_11HeifContextEKFS4_jRKNS_10shared_ptrINS3_14HeifPixelImageEEEiiEJPKS6_jS9_iiEEEEEFvvEJPSH_EvEEOT_DpOT0_
_ZNSt3__16vectorI13custom_optionNS_9allocatorIS1_EEE21__push_back_slow_pathIRKS1_EEvOT_
_ZNSt3__16vectorI4NodeNS_9allocatorIS1_EEE21__push_back_slow_pathIRKS1_EEvOT_
_ZNSt3__16vectorI4NodeNS_9allocatorIS1_EEE21__push_back_slow_pathIS1_EEvOT_
_ZNSt3__16vectorI4NodeNS_9allocatorIS1_EEED2B6v15000Ev
_ZNSt3__16vectorIN12ImageOverlay6OffsetENS_9allocatorIS2_EEE8__appendEy
_ZNSt3__16vectorIN4heif18ColorStateWithCostENS_9allocatorIS2_EEE21__push_back_slow_pathIS2_EEvOT_
_ZNSt3__16vectorIN4heif18ColorStateWithCostENS_9allocatorIS2_EEE9push_backB6v15000EOS2_
_ZNSt3__16vectorIN4heif18ColorStateWithCostENS_9allocatorIS2_EEED2B6v15000Ev
_ZNSt3__16vectorIN4heif5ErrorENS_9allocatorIS2_EEE24__emplace_back_slow_pathIJS2_EEEvDpOT_
_ZNSt3__16vectorIN4heif5ErrorENS_9allocatorIS2_EEED2B6v15000Ev
_ZNSt3__16vectorIN4heif8Box_grpl11EntityGroupENS_9allocatorIS3_EEE21__push_back_slow_pathIRKS3_EEvOT_
_ZNSt3__16vectorIN4heif8Box_grpl11EntityGroupENS_9allocatorIS3_EEE26__swap_out_circular_bufferERNS_14__split_bufferIS3_RS5_EE
_ZNSt3__16vectorIN4heif8Box_hvcC8NalArrayENS_9allocatorIS3_EEE21__push_back_slow_pathIRKS3_EEvOT_
_ZNSt3__16vectorIN4heif8Box_hvcC8NalArrayENS_9allocatorIS3_EEE21__push_back_slow_pathIS3_EEvOT_
_ZNSt3__16vectorIN4heif8Box_iloc4ItemENS_9allocatorIS3_EEE21__push_back_slow_pathIRKS3_EEvOT_
_ZNSt3__16vectorIN4heif8Box_iloc4ItemENS_9allocatorIS3_EEED2B6v15000Ev
_ZNSt3__16vectorIN4heif8Box_iloc6ExtentENS_9allocatorIS3_EEE21__push_back_slow_pathIRKS3_EEvOT_
_ZNSt3__16vectorIN4heif8Box_iloc6ExtentENS_9allocatorIS3_EEE21__push_back_slow_pathIS3_EEvOT_
_ZNSt3__16vectorIN4heif8Box_ipco8PropertyENS_9allocatorIS3_EEE21__push_back_slow_pathIRKS3_EEvOT_
_ZNSt3__16vectorIN4heif8Box_ipco8PropertyENS_9allocatorIS3_EEED2B6v15000Ev
_ZNSt3__16vectorIN4heif8Box_ipma5EntryENS_9allocatorIS3_EEE21__push_back_slow_pathIRKS3_EEvOT_
_ZNSt3__16vectorIN4heif8Box_iref9ReferenceENS_9allocatorIS3_EEE21__push_back_slow_pathIRKS3_EEvOT_
_ZNSt3__16vectorIN4heif8Box_iref9ReferenceENS_9allocatorIS3_EEE26__swap_out_circular_bufferERNS_14__split_bufferIS3_RS5_EE
_ZNSt3__16vectorIN4heif8Box_iref9ReferenceENS_9allocatorIS3_EEED2B6v15000Ev
_ZNSt3__16vectorINS0_IhNS_9allocatorIhEEEENS1_IS3_EEE21__push_back_slow_pathIRKS3_EEvOT_
_ZNSt3__16vectorINS0_IhNS_9allocatorIhEEEENS1_IS3_EEE21__push_back_slow_pathIS3_EEvOT_
_ZNSt3__16vectorINS_10shared_ptrIN4heif10SEIMessageEEENS_9allocatorIS4_EEE21__push_back_slow_pathIRKS4_EEvOT_
_ZNSt3__16vectorINS_10shared_ptrIN4heif10SEIMessageEEENS_9allocatorIS4_EEED2B6v15000Ev
_ZNSt3__16vectorINS_10shared_ptrIN4heif11HeifContext5ImageEEENS_9allocatorIS5_EEE21__push_back_slow_pathIRKS5_EEvOT_
_ZNSt3__16vectorINS_10shared_ptrIN4heif11HeifContext5ImageEEENS_9allocatorIS5_EEE21__push_back_slow_pathIS5_EEvOT_
_ZNSt3__16vectorINS_10shared_ptrIN4heif11HeifContext5ImageEEENS_9allocatorIS5_EEE6assignIPS5_EENS_9enable_ifIXaasr27__is_cpp17_forward_iteratorIT_EE5valuesr16is_constructibleIS5_NS_15iterator_traitsISC_E9referenceEEE5valueEvE4typeESC_SC_
_ZNSt3__16vectorINS_10shared_ptrIN4heif11HeifContext5ImageEEENS_9allocatorIS5_EEED2B6v15000Ev
_ZNSt3__16vectorINS_10shared_ptrIN4heif13ImageMetadataEEENS_9allocatorIS4_EEE21__push_back_slow_pathIS4_EEvOT_
_ZNSt3__16vectorINS_10shared_ptrIN4heif24ColorConversionOperationEEENS_9allocatorIS4_EEE21__push_back_slow_pathIS4_EEvOT_
_ZNSt3__16vectorINS_10shared_ptrIN4heif24ColorConversionOperationEEENS_9allocatorIS4_EEE8__appendEy
_ZNSt3__16vectorINS_10shared_ptrIN4heif24ColorConversionOperationEEENS_9allocatorIS4_EEED2B6v15000Ev
_ZNSt3__16vectorINS_10shared_ptrIN4heif3BoxEEENS_9allocatorIS4_EEE21__push_back_slow_pathIRKS4_EEvOT_
_ZNSt3__16vectorINS_10shared_ptrIN4heif3BoxEEENS_9allocatorIS4_EEE21__push_back_slow_pathIS4_EEvOT_
_ZNSt3__16vectorINS_10shared_ptrIN4heif3BoxEEENS_9allocatorIS4_EEED2B6v15000Ev
_ZNSt3__16vectorIhNS_9allocatorIhEEE6assignIPhEENS_9enable_ifIXaasr27__is_cpp17_forward_iteratorIT_EE5valuesr16is_constructibleIhNS_15iterator_traitsIS7_E9referenceEEE5valueEvE4typeES7_S7_
_ZNSt3__16vectorIhNS_9allocatorIhEEE6insertIPKhEENS_9enable_ifIXaasr27__is_cpp17_forward_iteratorIT_EE5valuesr16is_constructibleIhNS_15iterator_traitsIS8_E9referenceEEE5valueENS_11__wrap_iterIPhEEE4typeENSC_IS6_EES8_S8_
_ZNSt3__16vectorIhNS_9allocatorIhEEE6resizeEy
_ZNSt3__16vectorIjNS_9allocatorIjEEE6assignIPjEENS_9enable_ifIXaasr27__is_cpp17_forward_iteratorIT_EE5valuesr16is_constructibleIjNS_15iterator_traitsIS7_E9referenceEEE5valueEvE4typeES7_S7_
_ZNSt3__16vectorIjNS_9allocatorIjEEEC2B6v15000ESt16initializer_listIjE
_ZSt28__throw_bad_array_new_lengthB6v15000v
_ZTI15Op_RGB_to_YCbCrIhE DATA
_ZTI15Op_RGB_to_YCbCrItE DATA
_ZTI15Op_YCbCr_to_RGBIhE DATA
_ZTI15Op_YCbCr_to_RGBItE DATA
_ZTI16Op_to_hdr_planes DATA
_ZTI16Op_to_sdr_planes DATA
_ZTI18Op_RGB_to_RGB24_32 DATA
_ZTI19Op_drop_alpha_plane DATA
_ZTI19Op_mono_to_RGB24_32 DATA
_ZTI19Op_mono_to_YCbCr420 DATA
_ZTI20Op_RGB24_32_to_YCbCr DATA
_ZTI20Op_YCbCr420_to_RGB24 DATA
_ZTI20Op_YCbCr420_to_RGB32 DATA
_ZTI21Op_RGB_to_RRGGBBaa_BE DATA
_ZTI23Op_YCbCr420_to_RRGGBBaa DATA
_ZTI25Op_RGB_HDR_to_RRGGBBaa_BE DATA
_ZTI25Op_RRGGBBaa_BE_to_RGB_HDR DATA
_ZTI27Op_RGB24_32_to_YCbCr444_GBR DATA
_ZTI27Op_RRGGBBaa_swap_endianness DATA
_ZTI27Op_RRGGBBxx_HDR_to_YCbCr420 DATA
_ZTI30heif_depth_representation_info DATA
_ZTIN4heif10SEIMessageE DATA
_ZTIN4heif12StreamReaderE DATA
_ZTIN4heif13color_profileE DATA
_ZTIN4heif17StreamReader_CApiE DATA
_ZTIN4heif17color_profile_rawE DATA
_ZTIN4heif18color_profile_nclxE DATA
_ZTIN4heif19StreamReader_memoryE DATA
_ZTIN4heif20StreamReader_istreamE DATA
_ZTIN4heif24ColorConversionOperationE DATA
_ZTIN4heif36SEIMessage_depth_representation_infoE DATA
_ZTIN4heif3BoxE DATA
_ZTIN4heif7Box_urlE DATA
_ZTIN4heif8Box_auxCE DATA
_ZTIN4heif8Box_av1CE DATA
_ZTIN4heif8Box_clapE DATA
_ZTIN4heif8Box_colrE DATA
_ZTIN4heif8Box_dinfE DATA
_ZTIN4heif8Box_drefE DATA
_ZTIN4heif8Box_ftypE DATA
_ZTIN4heif8Box_grplE DATA
_ZTIN4heif8Box_hdlrE DATA
_ZTIN4heif8Box_hvcCE DATA
_ZTIN4heif8Box_idatE DATA
_ZTIN4heif8Box_iinfE DATA
_ZTIN4heif8Box_ilocE DATA
_ZTIN4heif8Box_imirE DATA
_ZTIN4heif8Box_infeE DATA
_ZTIN4heif8Box_ipcoE DATA
_ZTIN4heif8Box_ipmaE DATA
_ZTIN4heif8Box_iprpE DATA
_ZTIN4heif8Box_irefE DATA
_ZTIN4heif8Box_irotE DATA
_ZTIN4heif8Box_ispeE DATA
_ZTIN4heif8Box_metaE DATA
_ZTIN4heif8Box_pitmE DATA
_ZTIN4heif8Box_pixiE DATA
_ZTIN4heif9BoxHeaderE DATA
_ZTINSt3__112bad_weak_ptrE DATA
_ZTINSt3__112future_errorE DATA
_ZTINSt3__113__assoc_stateIN4heif5ErrorEEE DATA
_ZTINSt3__113basic_filebufIcNS_11char_traitsIcEEEE DATA
_ZTINSt3__113basic_istreamIcNS_11char_traitsIcEEEE DATA
_ZTINSt3__113basic_ostreamIcNS_11char_traitsIcEEEE DATA
_ZTINSt3__114__shared_countE DATA
_ZTINSt3__114basic_ifstreamIcNS_11char_traitsIcEEEE DATA
_ZTINSt3__114basic_iostreamIcNS_11char_traitsIcEEEE DATA
_ZTINSt3__114basic_ofstreamIcNS_11char_traitsIcEEEE DATA
_ZTINSt3__115basic_streambufIcNS_11char_traitsIcEEEE DATA
_ZTINSt3__115basic_stringbufIcNS_11char_traitsIcEENS_9allocatorIcEEEE DATA
_ZTINSt3__117__assoc_sub_stateE DATA
_ZTINSt3__118basic_stringstreamIcNS_11char_traitsIcEENS_9allocatorIcEEEE DATA
_ZTINSt3__119__async_assoc_stateIN4heif5ErrorENS_12__async_funcIMNS1_11HeifContextEKFS2_jRKNS_10shared_ptrINS1_14HeifPixelImageEEEiiEJPKS4_jS7_iiEEEEE DATA
_ZTINSt3__119__shared_weak_countE DATA
_ZTINSt3__119basic_ostringstreamIcNS_11char_traitsIcEENS_9allocatorIcEEEE DATA
_ZTINSt3__120__shared_ptr_emplaceI15Op_RGB_to_YCbCrIhENS_9allocatorIS2_EEEE DATA
_ZTINSt3__120__shared_ptr_emplaceI15Op_RGB_to_YCbCrItENS_9allocatorIS2_EEEE DATA
_ZTINSt3__120__shared_ptr_emplaceI15Op_YCbCr_to_RGBIhENS_9allocatorIS2_EEEE DATA
_ZTINSt3__120__shared_ptr_emplaceI15Op_YCbCr_to_RGBItENS_9allocatorIS2_EEEE DATA
_ZTINSt3__120__shared_ptr_emplaceI16Op_to_hdr_planesNS_9allocatorIS1_EEEE DATA
_ZTINSt3__120__shared_ptr_emplaceI16Op_to_sdr_planesNS_9allocatorIS1_EEEE DATA
_ZTINSt3__120__shared_ptr_emplaceI18Op_RGB_to_RGB24_32NS_9allocatorIS1_EEEE DATA
_ZTINSt3__120__shared_ptr_emplaceI19Op_drop_alpha_planeNS_9allocatorIS1_EEEE DATA
_ZTINSt3__120__shared_ptr_emplaceI19Op_mono_to_RGB24_32NS_9allocatorIS1_EEEE DATA
_ZTINSt3__120__shared_ptr_emplaceI19Op_mono_to_YCbCr420NS_9allocatorIS1_EEEE DATA
_ZTINSt3__120__shared_ptr_emplaceI20Op_RGB24_32_to_YCbCrNS_9allocatorIS1_EEEE DATA
_ZTINSt3__120__shared_ptr_emplaceI20Op_YCbCr420_to_RGB24NS_9allocatorIS1_EEEE DATA
_ZTINSt3__120__shared_ptr_emplaceI20Op_YCbCr420_to_RGB32NS_9allocatorIS1_EEEE DATA
_ZTINSt3__120__shared_ptr_emplaceI21Op_RGB_to_RRGGBBaa_BENS_9allocatorIS1_EEEE DATA
_ZTINSt3__120__shared_ptr_emplaceI23Op_YCbCr420_to_RRGGBBaaNS_9allocatorIS1_EEEE DATA
_ZTINSt3__120__shared_ptr_emplaceI25Op_RGB_HDR_to_RRGGBBaa_BENS_9allocatorIS1_EEEE DATA
_ZTINSt3__120__shared_ptr_emplaceI25Op_RRGGBBaa_BE_to_RGB_HDRNS_9allocatorIS1_EEEE DATA
_ZTINSt3__120__shared_ptr_emplaceI27Op_RGB24_32_to_YCbCr444_GBRNS_9allocatorIS1_EEEE DATA
_ZTINSt3__120__shared_ptr_emplaceI27Op_RRGGBBaa_swap_endiannessNS_9allocatorIS1_EEEE DATA
_ZTINSt3__120__shared_ptr_emplaceI27Op_RRGGBBxx_HDR_to_YCbCr420NS_9allocatorIS1_EEEE DATA
_ZTINSt3__120__shared_ptr_emplaceIN4heif11HeifContext5ImageENS_9allocatorIS3_EEEE DATA
_ZTINSt3__120__shared_ptr_emplaceIN4heif11HeifContextENS_9allocatorIS2_EEEE DATA
_ZTINSt3__120__shared_ptr_emplaceIN4heif13ImageMetadataENS_9allocatorIS2_EEEE DATA
_ZTINSt3__120__shared_ptr_emplaceIN4heif14HeifPixelImageENS_9allocatorIS2_EEEE DATA
_ZTINSt3__120__shared_ptr_emplaceIN4heif17StreamReader_CApiENS_9allocatorIS2_EEEE DATA
_ZTINSt3__120__shared_ptr_emplaceIN4heif17color_profile_rawENS_9allocatorIS2_EEEE DATA
_ZTINSt3__120__shared_ptr_emplaceIN4heif18color_profile_nclxENS_9allocatorIS2_EEEE DATA
_ZTINSt3__120__shared_ptr_emplaceIN4heif19StreamReader_memoryENS_9allocatorIS2_EEEE DATA
_ZTINSt3__120__shared_ptr_emplaceIN4heif20StreamReader_istreamENS_9allocatorIS2_EEEE DATA
_ZTINSt3__120__shared_ptr_emplaceIN4heif36SEIMessage_depth_representation_infoENS_9allocatorIS2_EEEE DATA
_ZTINSt3__120__shared_ptr_emplaceIN4heif3BoxENS_9allocatorIS2_EEEE DATA
_ZTINSt3__120__shared_ptr_emplaceIN4heif7Box_urlENS_9allocatorIS2_EEEE DATA
_ZTINSt3__120__shared_ptr_emplaceIN4heif8Box_auxCENS_9allocatorIS2_EEEE DATA
_ZTINSt3__120__shared_ptr_emplaceIN4heif8Box_av1CENS_9allocatorIS2_EEEE DATA
_ZTINSt3__120__shared_ptr_emplaceIN4heif8Box_clapENS_9allocatorIS2_EEEE DATA
_ZTINSt3__120__shared_ptr_emplaceIN4heif8Box_colrENS_9allocatorIS2_EEEE DATA
_ZTINSt3__120__shared_ptr_emplaceIN4heif8Box_dinfENS_9allocatorIS2_EEEE DATA
_ZTINSt3__120__shared_ptr_emplaceIN4heif8Box_drefENS_9allocatorIS2_EEEE DATA
_ZTINSt3__120__shared_ptr_emplaceIN4heif8Box_ftypENS_9allocatorIS2_EEEE DATA
_ZTINSt3__120__shared_ptr_emplaceIN4heif8Box_grplENS_9allocatorIS2_EEEE DATA
_ZTINSt3__120__shared_ptr_emplaceIN4heif8Box_hdlrENS_9allocatorIS2_EEEE DATA
_ZTINSt3__120__shared_ptr_emplaceIN4heif8Box_hvcCENS_9allocatorIS2_EEEE DATA
_ZTINSt3__120__shared_ptr_emplaceIN4heif8Box_idatENS_9allocatorIS2_EEEE DATA
_ZTINSt3__120__shared_ptr_emplaceIN4heif8Box_iinfENS_9allocatorIS2_EEEE DATA
_ZTINSt3__120__shared_ptr_emplaceIN4heif8Box_ilocENS_9allocatorIS2_EEEE DATA
_ZTINSt3__120__shared_ptr_emplaceIN4heif8Box_imirENS_9allocatorIS2_EEEE DATA
_ZTINSt3__120__shared_ptr_emplaceIN4heif8Box_infeENS_9allocatorIS2_EEEE DATA
_ZTINSt3__120__shared_ptr_emplaceIN4heif8Box_ipcoENS_9allocatorIS2_EEEE DATA
_ZTINSt3__120__shared_ptr_emplaceIN4heif8Box_ipmaENS_9allocatorIS2_EEEE DATA
_ZTINSt3__120__shared_ptr_emplaceIN4heif8Box_iprpENS_9allocatorIS2_EEEE DATA
_ZTINSt3__120__shared_ptr_emplaceIN4heif8Box_irefENS_9allocatorIS2_EEEE DATA
_ZTINSt3__120__shared_ptr_emplaceIN4heif8Box_irotENS_9allocatorIS2_EEEE DATA
_ZTINSt3__120__shared_ptr_emplaceIN4heif8Box_ispeENS_9allocatorIS2_EEEE DATA
_ZTINSt3__120__shared_ptr_emplaceIN4heif8Box_metaENS_9allocatorIS2_EEEE DATA
_ZTINSt3__120__shared_ptr_emplaceIN4heif8Box_pitmENS_9allocatorIS2_EEEE DATA
_ZTINSt3__120__shared_ptr_emplaceIN4heif8Box_pixiENS_9allocatorIS2_EEEE DATA
_ZTINSt3__120__shared_ptr_emplaceIN4heif8HeifFileENS_9allocatorIS2_EEEE DATA
_ZTINSt3__122__deferred_assoc_stateIN4heif5ErrorENS_12__async_funcIMNS1_11HeifContextEKFS2_jRKNS_10shared_ptrINS1_14HeifPixelImageEEEiiEJPKS4_jS7_iiEEEEE DATA
_ZTINSt3__18ios_baseE DATA
_ZTINSt3__19basic_iosIcNS_11char_traitsIcEEEE DATA
_ZTISt11logic_error DATA
_ZTISt12length_error DATA
_ZTISt12out_of_range DATA
_ZTISt20bad_array_new_length DATA
_ZTISt8bad_cast DATA
_ZTISt9bad_alloc DATA
_ZTISt9exception DATA
_ZTS15Op_RGB_to_YCbCrIhE DATA
_ZTS15Op_RGB_to_YCbCrItE DATA
_ZTS15Op_YCbCr_to_RGBIhE DATA
_ZTS15Op_YCbCr_to_RGBItE DATA
_ZTS16Op_to_hdr_planes DATA
_ZTS16Op_to_sdr_planes DATA
_ZTS18Op_RGB_to_RGB24_32 DATA
_ZTS19Op_drop_alpha_plane DATA
_ZTS19Op_mono_to_RGB24_32 DATA
_ZTS19Op_mono_to_YCbCr420 DATA
_ZTS20Op_RGB24_32_to_YCbCr DATA
_ZTS20Op_YCbCr420_to_RGB24 DATA
_ZTS20Op_YCbCr420_to_RGB32 DATA
_ZTS21Op_RGB_to_RRGGBBaa_BE DATA
_ZTS23Op_YCbCr420_to_RRGGBBaa DATA
_ZTS25Op_RGB_HDR_to_RRGGBBaa_BE DATA
_ZTS25Op_RRGGBBaa_BE_to_RGB_HDR DATA
_ZTS27Op_RGB24_32_to_YCbCr444_GBR DATA
_ZTS27Op_RRGGBBaa_swap_endianness DATA
_ZTS27Op_RRGGBBxx_HDR_to_YCbCr420 DATA
_ZTS30heif_depth_representation_info DATA
_ZTSN4heif10SEIMessageE DATA
_ZTSN4heif12StreamReaderE DATA
_ZTSN4heif13color_profileE DATA
_ZTSN4heif17StreamReader_CApiE DATA
_ZTSN4heif17color_profile_rawE DATA
_ZTSN4heif18color_profile_nclxE DATA
_ZTSN4heif19StreamReader_memoryE DATA
_ZTSN4heif20StreamReader_istreamE DATA
_ZTSN4heif24ColorConversionOperationE DATA
_ZTSN4heif36SEIMessage_depth_representation_infoE DATA
_ZTSN4heif3BoxE DATA
_ZTSN4heif7Box_urlE DATA
_ZTSN4heif8Box_auxCE DATA
_ZTSN4heif8Box_av1CE DATA
_ZTSN4heif8Box_clapE DATA
_ZTSN4heif8Box_colrE DATA
_ZTSN4heif8Box_dinfE DATA
_ZTSN4heif8Box_drefE DATA
_ZTSN4heif8Box_ftypE DATA
_ZTSN4heif8Box_grplE DATA
_ZTSN4heif8Box_hdlrE DATA
_ZTSN4heif8Box_hvcCE DATA
_ZTSN4heif8Box_idatE DATA
_ZTSN4heif8Box_iinfE DATA
_ZTSN4heif8Box_ilocE DATA
_ZTSN4heif8Box_imirE DATA
_ZTSN4heif8Box_infeE DATA
_ZTSN4heif8Box_ipcoE DATA
_ZTSN4heif8Box_ipmaE DATA
_ZTSN4heif8Box_iprpE DATA
_ZTSN4heif8Box_irefE DATA
_ZTSN4heif8Box_irotE DATA
_ZTSN4heif8Box_ispeE DATA
_ZTSN4heif8Box_metaE DATA
_ZTSN4heif8Box_pitmE DATA
_ZTSN4heif8Box_pixiE DATA
_ZTSN4heif9BoxHeaderE DATA
_ZTSNSt3__112bad_weak_ptrE DATA
_ZTSNSt3__112future_errorE DATA
_ZTSNSt3__113__assoc_stateIN4heif5ErrorEEE DATA
_ZTSNSt3__113basic_filebufIcNS_11char_traitsIcEEEE DATA
_ZTSNSt3__113basic_istreamIcNS_11char_traitsIcEEEE DATA
_ZTSNSt3__113basic_ostreamIcNS_11char_traitsIcEEEE DATA
_ZTSNSt3__114__shared_countE DATA
_ZTSNSt3__114basic_ifstreamIcNS_11char_traitsIcEEEE DATA
_ZTSNSt3__114basic_iostreamIcNS_11char_traitsIcEEEE DATA
_ZTSNSt3__114basic_ofstreamIcNS_11char_traitsIcEEEE DATA
_ZTSNSt3__115basic_streambufIcNS_11char_traitsIcEEEE DATA
_ZTSNSt3__115basic_stringbufIcNS_11char_traitsIcEENS_9allocatorIcEEEE DATA
_ZTSNSt3__117__assoc_sub_stateE DATA
_ZTSNSt3__118basic_stringstreamIcNS_11char_traitsIcEENS_9allocatorIcEEEE DATA
_ZTSNSt3__119__async_assoc_stateIN4heif5ErrorENS_12__async_funcIMNS1_11HeifContextEKFS2_jRKNS_10shared_ptrINS1_14HeifPixelImageEEEiiEJPKS4_jS7_iiEEEEE DATA
_ZTSNSt3__119__shared_weak_countE DATA
_ZTSNSt3__119basic_ostringstreamIcNS_11char_traitsIcEENS_9allocatorIcEEEE DATA
_ZTSNSt3__120__shared_ptr_emplaceI15Op_RGB_to_YCbCrIhENS_9allocatorIS2_EEEE DATA
_ZTSNSt3__120__shared_ptr_emplaceI15Op_RGB_to_YCbCrItENS_9allocatorIS2_EEEE DATA
_ZTSNSt3__120__shared_ptr_emplaceI15Op_YCbCr_to_RGBIhENS_9allocatorIS2_EEEE DATA
_ZTSNSt3__120__shared_ptr_emplaceI15Op_YCbCr_to_RGBItENS_9allocatorIS2_EEEE DATA
_ZTSNSt3__120__shared_ptr_emplaceI16Op_to_hdr_planesNS_9allocatorIS1_EEEE DATA
_ZTSNSt3__120__shared_ptr_emplaceI16Op_to_sdr_planesNS_9allocatorIS1_EEEE DATA
_ZTSNSt3__120__shared_ptr_emplaceI18Op_RGB_to_RGB24_32NS_9allocatorIS1_EEEE DATA
_ZTSNSt3__120__shared_ptr_emplaceI19Op_drop_alpha_planeNS_9allocatorIS1_EEEE DATA
_ZTSNSt3__120__shared_ptr_emplaceI19Op_mono_to_RGB24_32NS_9allocatorIS1_EEEE DATA
_ZTSNSt3__120__shared_ptr_emplaceI19Op_mono_to_YCbCr420NS_9allocatorIS1_EEEE DATA
_ZTSNSt3__120__shared_ptr_emplaceI20Op_RGB24_32_to_YCbCrNS_9allocatorIS1_EEEE DATA
_ZTSNSt3__120__shared_ptr_emplaceI20Op_YCbCr420_to_RGB24NS_9allocatorIS1_EEEE DATA
_ZTSNSt3__120__shared_ptr_emplaceI20Op_YCbCr420_to_RGB32NS_9allocatorIS1_EEEE DATA
_ZTSNSt3__120__shared_ptr_emplaceI21Op_RGB_to_RRGGBBaa_BENS_9allocatorIS1_EEEE DATA
_ZTSNSt3__120__shared_ptr_emplaceI23Op_YCbCr420_to_RRGGBBaaNS_9allocatorIS1_EEEE DATA
_ZTSNSt3__120__shared_ptr_emplaceI25Op_RGB_HDR_to_RRGGBBaa_BENS_9allocatorIS1_EEEE DATA
_ZTSNSt3__120__shared_ptr_emplaceI25Op_RRGGBBaa_BE_to_RGB_HDRNS_9allocatorIS1_EEEE DATA
_ZTSNSt3__120__shared_ptr_emplaceI27Op_RGB24_32_to_YCbCr444_GBRNS_9allocatorIS1_EEEE DATA
_ZTSNSt3__120__shared_ptr_emplaceI27Op_RRGGBBaa_swap_endiannessNS_9allocatorIS1_EEEE DATA
_ZTSNSt3__120__shared_ptr_emplaceI27Op_RRGGBBxx_HDR_to_YCbCr420NS_9allocatorIS1_EEEE DATA
_ZTSNSt3__120__shared_ptr_emplaceIN4heif11HeifContext5ImageENS_9allocatorIS3_EEEE DATA
_ZTSNSt3__120__shared_ptr_emplaceIN4heif11HeifContextENS_9allocatorIS2_EEEE DATA
_ZTSNSt3__120__shared_ptr_emplaceIN4heif13ImageMetadataENS_9allocatorIS2_EEEE DATA
_ZTSNSt3__120__shared_ptr_emplaceIN4heif14HeifPixelImageENS_9allocatorIS2_EEEE DATA
_ZTSNSt3__120__shared_ptr_emplaceIN4heif17StreamReader_CApiENS_9allocatorIS2_EEEE DATA
_ZTSNSt3__120__shared_ptr_emplaceIN4heif17color_profile_rawENS_9allocatorIS2_EEEE DATA
_ZTSNSt3__120__shared_ptr_emplaceIN4heif18color_profile_nclxENS_9allocatorIS2_EEEE DATA
_ZTSNSt3__120__shared_ptr_emplaceIN4heif19StreamReader_memoryENS_9allocatorIS2_EEEE DATA
_ZTSNSt3__120__shared_ptr_emplaceIN4heif20StreamReader_istreamENS_9allocatorIS2_EEEE DATA
_ZTSNSt3__120__shared_ptr_emplaceIN4heif36SEIMessage_depth_representation_infoENS_9allocatorIS2_EEEE DATA
_ZTSNSt3__120__shared_ptr_emplaceIN4heif3BoxENS_9allocatorIS2_EEEE DATA
_ZTSNSt3__120__shared_ptr_emplaceIN4heif7Box_urlENS_9allocatorIS2_EEEE DATA
_ZTSNSt3__120__shared_ptr_emplaceIN4heif8Box_auxCENS_9allocatorIS2_EEEE DATA
_ZTSNSt3__120__shared_ptr_emplaceIN4heif8Box_av1CENS_9allocatorIS2_EEEE DATA
_ZTSNSt3__120__shared_ptr_emplaceIN4heif8Box_clapENS_9allocatorIS2_EEEE DATA
_ZTSNSt3__120__shared_ptr_emplaceIN4heif8Box_colrENS_9allocatorIS2_EEEE DATA
_ZTSNSt3__120__shared_ptr_emplaceIN4heif8Box_dinfENS_9allocatorIS2_EEEE DATA
_ZTSNSt3__120__shared_ptr_emplaceIN4heif8Box_drefENS_9allocatorIS2_EEEE DATA
_ZTSNSt3__120__shared_ptr_emplaceIN4heif8Box_ftypENS_9allocatorIS2_EEEE DATA
_ZTSNSt3__120__shared_ptr_emplaceIN4heif8Box_grplENS_9allocatorIS2_EEEE DATA
_ZTSNSt3__120__shared_ptr_emplaceIN4heif8Box_hdlrENS_9allocatorIS2_EEEE DATA
_ZTSNSt3__120__shared_ptr_emplaceIN4heif8Box_hvcCENS_9allocatorIS2_EEEE DATA
_ZTSNSt3__120__shared_ptr_emplaceIN4heif8Box_idatENS_9allocatorIS2_EEEE DATA
_ZTSNSt3__120__shared_ptr_emplaceIN4heif8Box_iinfENS_9allocatorIS2_EEEE DATA
_ZTSNSt3__120__shared_ptr_emplaceIN4heif8Box_ilocENS_9allocatorIS2_EEEE DATA
_ZTSNSt3__120__shared_ptr_emplaceIN4heif8Box_imirENS_9allocatorIS2_EEEE DATA
_ZTSNSt3__120__shared_ptr_emplaceIN4heif8Box_infeENS_9allocatorIS2_EEEE DATA
_ZTSNSt3__120__shared_ptr_emplaceIN4heif8Box_ipcoENS_9allocatorIS2_EEEE DATA
_ZTSNSt3__120__shared_ptr_emplaceIN4heif8Box_ipmaENS_9allocatorIS2_EEEE DATA
_ZTSNSt3__120__shared_ptr_emplaceIN4heif8Box_iprpENS_9allocatorIS2_EEEE DATA
_ZTSNSt3__120__shared_ptr_emplaceIN4heif8Box_irefENS_9allocatorIS2_EEEE DATA
_ZTSNSt3__120__shared_ptr_emplaceIN4heif8Box_irotENS_9allocatorIS2_EEEE DATA
_ZTSNSt3__120__shared_ptr_emplaceIN4heif8Box_ispeENS_9allocatorIS2_EEEE DATA
_ZTSNSt3__120__shared_ptr_emplaceIN4heif8Box_metaENS_9allocatorIS2_EEEE DATA
_ZTSNSt3__120__shared_ptr_emplaceIN4heif8Box_pitmENS_9allocatorIS2_EEEE DATA
_ZTSNSt3__120__shared_ptr_emplaceIN4heif8Box_pixiENS_9allocatorIS2_EEEE DATA
_ZTSNSt3__120__shared_ptr_emplaceIN4heif8HeifFileENS_9allocatorIS2_EEEE DATA
_ZTSNSt3__122__deferred_assoc_stateIN4heif5ErrorENS_12__async_funcIMNS1_11HeifContextEKFS2_jRKNS_10shared_ptrINS1_14HeifPixelImageEEEiiEJPKS4_jS7_iiEEEEE DATA
_ZTSNSt3__18ios_baseE DATA
_ZTSNSt3__19basic_iosIcNS_11char_traitsIcEEEE DATA
_ZTSSt11logic_error DATA
_ZTSSt12length_error DATA
_ZTSSt12out_of_range DATA
_ZTSSt20bad_array_new_length DATA
_ZTSSt8bad_cast DATA
_ZTSSt9bad_alloc DATA
_ZTSSt9exception DATA
_ZTV15Op_RGB_to_YCbCrIhE DATA
_ZTV15Op_RGB_to_YCbCrItE DATA
_ZTV15Op_YCbCr_to_RGBIhE DATA
_ZTV15Op_YCbCr_to_RGBItE DATA
_ZTV16Op_to_hdr_planes DATA
_ZTV16Op_to_sdr_planes DATA
_ZTV18Op_RGB_to_RGB24_32 DATA
_ZTV19Op_drop_alpha_plane DATA
_ZTV19Op_mono_to_RGB24_32 DATA
_ZTV19Op_mono_to_YCbCr420 DATA
_ZTV20Op_RGB24_32_to_YCbCr DATA
_ZTV20Op_YCbCr420_to_RGB24 DATA
_ZTV20Op_YCbCr420_to_RGB32 DATA
_ZTV21Op_RGB_to_RRGGBBaa_BE DATA
_ZTV23Op_YCbCr420_to_RRGGBBaa DATA
_ZTV25Op_RGB_HDR_to_RRGGBBaa_BE DATA
_ZTV25Op_RRGGBBaa_BE_to_RGB_HDR DATA
_ZTV27Op_RGB24_32_to_YCbCr444_GBR DATA
_ZTV27Op_RRGGBBaa_swap_endianness DATA
_ZTV27Op_RRGGBBxx_HDR_to_YCbCr420 DATA
_ZTVN4heif17StreamReader_CApiE DATA
_ZTVN4heif17color_profile_rawE DATA
_ZTVN4heif18color_profile_nclxE DATA
_ZTVN4heif19StreamReader_memoryE DATA
_ZTVN4heif20StreamReader_istreamE DATA
_ZTVN4heif36SEIMessage_depth_representation_infoE DATA
_ZTVN4heif3BoxE DATA
_ZTVN4heif7Box_urlE DATA
_ZTVN4heif8Box_auxCE DATA
_ZTVN4heif8Box_av1CE DATA
_ZTVN4heif8Box_clapE DATA
_ZTVN4heif8Box_colrE DATA
_ZTVN4heif8Box_dinfE DATA
_ZTVN4heif8Box_drefE DATA
_ZTVN4heif8Box_ftypE DATA
_ZTVN4heif8Box_grplE DATA
_ZTVN4heif8Box_hdlrE DATA
_ZTVN4heif8Box_hvcCE DATA
_ZTVN4heif8Box_idatE DATA
_ZTVN4heif8Box_iinfE DATA
_ZTVN4heif8Box_ilocE DATA
_ZTVN4heif8Box_imirE DATA
_ZTVN4heif8Box_infeE DATA
_ZTVN4heif8Box_ipcoE DATA
_ZTVN4heif8Box_ipmaE DATA
_ZTVN4heif8Box_iprpE DATA
_ZTVN4heif8Box_irefE DATA
_ZTVN4heif8Box_irotE DATA
_ZTVN4heif8Box_ispeE DATA
_ZTVN4heif8Box_metaE DATA
_ZTVN4heif8Box_pitmE DATA
_ZTVN4heif8Box_pixiE DATA
_ZTVN4heif9BoxHeaderE DATA
_ZTVNSt3__119__async_assoc_stateIN4heif5ErrorENS_12__async_funcIMNS1_11HeifContextEKFS2_jRKNS_10shared_ptrINS1_14HeifPixelImageEEEiiEJPKS4_jS7_iiEEEEE DATA
_ZTVNSt3__120__shared_ptr_emplaceI15Op_RGB_to_YCbCrIhENS_9allocatorIS2_EEEE DATA
_ZTVNSt3__120__shared_ptr_emplaceI15Op_RGB_to_YCbCrItENS_9allocatorIS2_EEEE DATA
_ZTVNSt3__120__shared_ptr_emplaceI15Op_YCbCr_to_RGBIhENS_9allocatorIS2_EEEE DATA
_ZTVNSt3__120__shared_ptr_emplaceI15Op_YCbCr_to_RGBItENS_9allocatorIS2_EEEE DATA
_ZTVNSt3__120__shared_ptr_emplaceI16Op_to_hdr_planesNS_9allocatorIS1_EEEE DATA
_ZTVNSt3__120__shared_ptr_emplaceI16Op_to_sdr_planesNS_9allocatorIS1_EEEE DATA
_ZTVNSt3__120__shared_ptr_emplaceI18Op_RGB_to_RGB24_32NS_9allocatorIS1_EEEE DATA
_ZTVNSt3__120__shared_ptr_emplaceI19Op_drop_alpha_planeNS_9allocatorIS1_EEEE DATA
_ZTVNSt3__120__shared_ptr_emplaceI19Op_mono_to_RGB24_32NS_9allocatorIS1_EEEE DATA
_ZTVNSt3__120__shared_ptr_emplaceI19Op_mono_to_YCbCr420NS_9allocatorIS1_EEEE DATA
_ZTVNSt3__120__shared_ptr_emplaceI20Op_RGB24_32_to_YCbCrNS_9allocatorIS1_EEEE DATA
_ZTVNSt3__120__shared_ptr_emplaceI20Op_YCbCr420_to_RGB24NS_9allocatorIS1_EEEE DATA
_ZTVNSt3__120__shared_ptr_emplaceI20Op_YCbCr420_to_RGB32NS_9allocatorIS1_EEEE DATA
_ZTVNSt3__120__shared_ptr_emplaceI21Op_RGB_to_RRGGBBaa_BENS_9allocatorIS1_EEEE DATA
_ZTVNSt3__120__shared_ptr_emplaceI23Op_YCbCr420_to_RRGGBBaaNS_9allocatorIS1_EEEE DATA
_ZTVNSt3__120__shared_ptr_emplaceI25Op_RGB_HDR_to_RRGGBBaa_BENS_9allocatorIS1_EEEE DATA
_ZTVNSt3__120__shared_ptr_emplaceI25Op_RRGGBBaa_BE_to_RGB_HDRNS_9allocatorIS1_EEEE DATA
_ZTVNSt3__120__shared_ptr_emplaceI27Op_RGB24_32_to_YCbCr444_GBRNS_9allocatorIS1_EEEE DATA
_ZTVNSt3__120__shared_ptr_emplaceI27Op_RRGGBBaa_swap_endiannessNS_9allocatorIS1_EEEE DATA
_ZTVNSt3__120__shared_ptr_emplaceI27Op_RRGGBBxx_HDR_to_YCbCr420NS_9allocatorIS1_EEEE DATA
_ZTVNSt3__120__shared_ptr_emplaceIN4heif11HeifContext5ImageENS_9allocatorIS3_EEEE DATA
_ZTVNSt3__120__shared_ptr_emplaceIN4heif11HeifContextENS_9allocatorIS2_EEEE DATA
_ZTVNSt3__120__shared_ptr_emplaceIN4heif13ImageMetadataENS_9allocatorIS2_EEEE DATA
_ZTVNSt3__120__shared_ptr_emplaceIN4heif14HeifPixelImageENS_9allocatorIS2_EEEE DATA
_ZTVNSt3__120__shared_ptr_emplaceIN4heif17StreamReader_CApiENS_9allocatorIS2_EEEE DATA
_ZTVNSt3__120__shared_ptr_emplaceIN4heif17color_profile_rawENS_9allocatorIS2_EEEE DATA
_ZTVNSt3__120__shared_ptr_emplaceIN4heif18color_profile_nclxENS_9allocatorIS2_EEEE DATA
_ZTVNSt3__120__shared_ptr_emplaceIN4heif19StreamReader_memoryENS_9allocatorIS2_EEEE DATA
_ZTVNSt3__120__shared_ptr_emplaceIN4heif20StreamReader_istreamENS_9allocatorIS2_EEEE DATA
_ZTVNSt3__120__shared_ptr_emplaceIN4heif36SEIMessage_depth_representation_infoENS_9allocatorIS2_EEEE DATA
_ZTVNSt3__120__shared_ptr_emplaceIN4heif3BoxENS_9allocatorIS2_EEEE DATA
_ZTVNSt3__120__shared_ptr_emplaceIN4heif7Box_urlENS_9allocatorIS2_EEEE DATA
_ZTVNSt3__120__shared_ptr_emplaceIN4heif8Box_auxCENS_9allocatorIS2_EEEE DATA
_ZTVNSt3__120__shared_ptr_emplaceIN4heif8Box_av1CENS_9allocatorIS2_EEEE DATA
_ZTVNSt3__120__shared_ptr_emplaceIN4heif8Box_clapENS_9allocatorIS2_EEEE DATA
_ZTVNSt3__120__shared_ptr_emplaceIN4heif8Box_colrENS_9allocatorIS2_EEEE DATA
_ZTVNSt3__120__shared_ptr_emplaceIN4heif8Box_dinfENS_9allocatorIS2_EEEE DATA
_ZTVNSt3__120__shared_ptr_emplaceIN4heif8Box_drefENS_9allocatorIS2_EEEE DATA
_ZTVNSt3__120__shared_ptr_emplaceIN4heif8Box_ftypENS_9allocatorIS2_EEEE DATA
_ZTVNSt3__120__shared_ptr_emplaceIN4heif8Box_grplENS_9allocatorIS2_EEEE DATA
_ZTVNSt3__120__shared_ptr_emplaceIN4heif8Box_hdlrENS_9allocatorIS2_EEEE DATA
_ZTVNSt3__120__shared_ptr_emplaceIN4heif8Box_hvcCENS_9allocatorIS2_EEEE DATA
_ZTVNSt3__120__shared_ptr_emplaceIN4heif8Box_idatENS_9allocatorIS2_EEEE DATA
_ZTVNSt3__120__shared_ptr_emplaceIN4heif8Box_iinfENS_9allocatorIS2_EEEE DATA
_ZTVNSt3__120__shared_ptr_emplaceIN4heif8Box_ilocENS_9allocatorIS2_EEEE DATA
_ZTVNSt3__120__shared_ptr_emplaceIN4heif8Box_imirENS_9allocatorIS2_EEEE DATA
_ZTVNSt3__120__shared_ptr_emplaceIN4heif8Box_infeENS_9allocatorIS2_EEEE DATA
_ZTVNSt3__120__shared_ptr_emplaceIN4heif8Box_ipcoENS_9allocatorIS2_EEEE DATA
_ZTVNSt3__120__shared_ptr_emplaceIN4heif8Box_ipmaENS_9allocatorIS2_EEEE DATA
_ZTVNSt3__120__shared_ptr_emplaceIN4heif8Box_iprpENS_9allocatorIS2_EEEE DATA
_ZTVNSt3__120__shared_ptr_emplaceIN4heif8Box_irefENS_9allocatorIS2_EEEE DATA
_ZTVNSt3__120__shared_ptr_emplaceIN4heif8Box_irotENS_9allocatorIS2_EEEE DATA
_ZTVNSt3__120__shared_ptr_emplaceIN4heif8Box_ispeENS_9allocatorIS2_EEEE DATA
_ZTVNSt3__120__shared_ptr_emplaceIN4heif8Box_metaENS_9allocatorIS2_EEEE DATA
_ZTVNSt3__120__shared_ptr_emplaceIN4heif8Box_pitmENS_9allocatorIS2_EEEE DATA
_ZTVNSt3__120__shared_ptr_emplaceIN4heif8Box_pixiENS_9allocatorIS2_EEEE DATA
_ZTVNSt3__120__shared_ptr_emplaceIN4heif8HeifFileENS_9allocatorIS2_EEEE DATA
_ZTVNSt3__122__deferred_assoc_stateIN4heif5ErrorENS_12__async_funcIMNS1_11HeifContextEKFS2_jRKNS_10shared_ptrINS1_14HeifPixelImageEEEiiEJPKS4_jS7_iiEEEEE DATA
_ZlsRNSt3__113basic_ostreamIcNS_11char_traitsIcEEEE11heif_chroma
_ZlsRNSt3__113basic_ostreamIcNS_11char_traitsIcEEEE15heif_colorspace
__clang_call_terminate
cUnknownError DATA
heif_brand_to_fourcc
heif_check_filetype
heif_context_add_XMP_metadata
heif_context_add_exif_metadata
heif_context_add_generic_metadata
heif_context_alloc
heif_context_assign_thumbnail
heif_context_debug_dump_boxes_to_file
heif_context_encode_image
heif_context_encode_thumbnail
heif_context_free
heif_context_get_encoder
heif_context_get_encoder_descriptors
heif_context_get_encoder_for_format
heif_context_get_image_handle
heif_context_get_list_of_top_level_image_IDs
heif_context_get_number_of_top_level_images
heif_context_get_primary_image_ID
heif_context_get_primary_image_handle
heif_context_is_top_level_image_ID
heif_context_read_from_file
heif_context_read_from_memory
heif_context_read_from_memory_without_copy
heif_context_read_from_reader
heif_context_set_max_decoding_threads
heif_context_set_maximum_image_size_limit
heif_context_set_primary_image
heif_context_write
heif_context_write_to_file
heif_decode_image
heif_decoding_options_alloc
heif_decoding_options_free
heif_deinit
heif_depth_representation_info_free
heif_encoder_descriptor_get_compression_format
heif_encoder_descriptor_get_id_name
heif_encoder_descriptor_get_name
heif_encoder_descriptor_supportes_lossless_compression
heif_encoder_descriptor_supportes_lossy_compression
heif_encoder_descriptor_supports_lossless_compression
heif_encoder_descriptor_supports_lossy_compression
heif_encoder_get_name
heif_encoder_get_parameter
heif_encoder_get_parameter_boolean
heif_encoder_get_parameter_integer
heif_encoder_get_parameter_string
heif_encoder_has_default
heif_encoder_list_parameters
heif_encoder_parameter_get_name
heif_encoder_parameter_get_type
heif_encoder_parameter_get_valid_integer_range
heif_encoder_parameter_get_valid_integer_values
heif_encoder_parameter_get_valid_string_values
heif_encoder_parameter_integer_valid_range
heif_encoder_parameter_integer_valid_values
heif_encoder_parameter_string_valid_values
heif_encoder_release
heif_encoder_set_logging_level
heif_encoder_set_lossless
heif_encoder_set_lossy_quality
heif_encoder_set_parameter
heif_encoder_set_parameter_boolean
heif_encoder_set_parameter_integer
heif_encoder_set_parameter_string
heif_encoding_options_alloc
heif_encoding_options_free
heif_error_invalid_parameter_value DATA
heif_error_ok DATA
heif_error_unsupported_parameter DATA
heif_fourcc_to_brand
heif_free_list_of_compatible_brands
heif_get_file_mime_type
heif_get_version
heif_get_version_number
heif_get_version_number_maintenance
heif_get_version_number_major
heif_get_version_number_minor
heif_has_compatible_brand
heif_have_decoder_for_format
heif_have_encoder_for_format
heif_image_add_decoding_warning
heif_image_add_plane
heif_image_create
heif_image_crop
heif_image_get_bits_per_pixel
heif_image_get_bits_per_pixel_range
heif_image_get_chroma_format
heif_image_get_color_profile_type
heif_image_get_colorspace
heif_image_get_decoding_warnings
heif_image_get_height
heif_image_get_nclx_color_profile
heif_image_get_plane
heif_image_get_plane_readonly
heif_image_get_primary_height
heif_image_get_primary_width
heif_image_get_raw_color_profile
heif_image_get_raw_color_profile_size
heif_image_get_width
heif_image_handle_free_auxiliary_types
heif_image_handle_get_auxiliary_image_handle
heif_image_handle_get_auxiliary_type
heif_image_handle_get_chroma_bits_per_pixel
heif_image_handle_get_color_profile_type
heif_image_handle_get_depth_image_handle
heif_image_handle_get_depth_image_representation_info
heif_image_handle_get_height
heif_image_handle_get_ispe_height
heif_image_handle_get_ispe_width
heif_image_handle_get_list_of_auxiliary_image_IDs
heif_image_handle_get_list_of_depth_image_IDs
heif_image_handle_get_list_of_metadata_block_IDs
heif_image_handle_get_list_of_thumbnail_IDs
heif_image_handle_get_luma_bits_per_pixel
heif_image_handle_get_metadata
heif_image_handle_get_metadata_content_type
heif_image_handle_get_metadata_size
heif_image_handle_get_metadata_type
heif_image_handle_get_nclx_color_profile
heif_image_handle_get_number_of_auxiliary_images
heif_image_handle_get_number_of_depth_images
heif_image_handle_get_number_of_metadata_blocks
heif_image_handle_get_number_of_thumbnails
heif_image_handle_get_raw_color_profile
heif_image_handle_get_raw_color_profile_size
heif_image_handle_get_thumbnail
heif_image_handle_get_width
heif_image_handle_has_alpha_channel
heif_image_handle_has_depth_image
heif_image_handle_is_premultiplied_alpha
heif_image_handle_is_primary_image
heif_image_handle_release
heif_image_has_channel
heif_image_is_premultiplied_alpha
heif_image_release
heif_image_scale_image
heif_image_set_nclx_color_profile
heif_image_set_premultiplied_alpha
heif_image_set_raw_color_profile
heif_init
heif_list_compatible_brands
heif_main_brand
heif_nclx_color_profile_alloc
heif_nclx_color_profile_free
heif_nclx_color_profile_set_color_primaries
heif_nclx_color_profile_set_matrix_coefficients
heif_nclx_color_profile_set_transfer_characteristics
heif_read_main_brand
heif_register_decoder
heif_register_decoder_plugin
heif_register_encoder_plugin
