;
; Definition file of libharfbuzz-0.dll
; Automatic generated by gendef
; written by Kai Tietz 2008
;
LIBRARY "libharfbuzz-0.dll"
EXPORTS
_Z12hb_parse_intPPKcS0_Pib
_Z13hb_parse_uintPPKcS0_Pjbi
_Z15_hb_shapers_getv
_Z15hb_parse_doublePPKcS0_Pdb
_Z16_hb_options_initv
_Z17hb_ot_layout_kernPK18hb_ot_shape_plan_tP9hb_font_tP11hb_buffer_t
_Z18data_create_arabicPK18hb_ot_shape_plan_t
_Z19data_destroy_arabicPv
_Z19hb_aat_layout_trackPK18hb_ot_shape_plan_tP9hb_font_tP11hb_buffer_t
_Z20find_syllables_indicP11hb_buffer_t
_Z20find_syllables_khmerP11hb_buffer_t
_Z21hb_syllabic_clear_varPK18hb_ot_shape_plan_tP9hb_font_tP11hb_buffer_t
_Z22_hb_ot_shape_normalizePK18hb_ot_shape_plan_tP11hb_buffer_tP9hb_font_t
_Z22find_syllables_myanmarP11hb_buffer_t
_Z22hb_aat_layout_positionPK18hb_ot_shape_plan_tP9hb_font_tP11hb_buffer_t
_Z23hb_indic_get_categoriesj
_Z23setup_masks_arabic_planPK19arabic_shape_plan_tP11hb_buffer_t11hb_script_t
_Z24hb_aat_layout_substitutePK18hb_ot_shape_plan_tP9hb_font_tP11hb_buffer_t
_Z24hb_ot_layout_has_kerningP9hb_face_t
_Z25hb_aat_layout_compile_mapPK20hb_aat_map_builder_tP12hb_aat_map_t
_Z26_hb_ot_shape_fallback_kernPK18hb_ot_shape_plan_tP9hb_font_tP11hb_buffer_t
_Z27hb_ot_layout_position_startP9hb_font_tP11hb_buffer_t
_Z28_hb_ot_shape_fallback_spacesPK18hb_ot_shape_plan_tP9hb_font_tP11hb_buffer_t
_Z29hb_ot_layout_substitute_startP9hb_font_tP11hb_buffer_t
_Z30hb_ot_layout_has_cross_kerningP9hb_face_t
_Z30hb_ot_layout_substitute_lookupPN2OT21hb_ot_apply_context_tERKNS_6Layout9GSUB_impl11SubstLookupERKNS_33hb_ot_layout_lookup_accelerator_tE
_Z31hb_ot_layout_table_find_featureP9hb_face_tjjPj
_Z32_hb_ot_name_language_for_ms_codej
_Z32hb_ot_layout_has_machine_kerningP9hb_face_t
_Z33_hb_ot_name_language_for_mac_codej
_Z33hb_syllabic_insert_dotted_circlesP9hb_font_tP11hb_buffer_tjjii
_Z34_hb_ot_metrics_get_position_commonP9hb_font_t19hb_ot_metrics_tag_tPi
_Z34hb_aat_layout_find_feature_mappingj
_Z34hb_ot_layout_delete_glyphs_inplaceP11hb_buffer_tPFbPK15hb_glyph_info_tE
_Z35_glyf_get_advance_with_var_unscaledP9hb_font_tjb
_Z35_hb_ot_shape_fallback_mark_positionPK18hb_ot_shape_plan_tP9hb_font_tP11hb_buffer_tb
_Z35hb_aat_layout_remove_deleted_glyphsP11hb_buffer_t
_Z36hb_ot_layout_position_finish_offsetsP9hb_font_tP11hb_buffer_t
_Z37_hb_preprocess_text_vowel_constraintsPK18hb_ot_shape_plan_tP11hb_buffer_tP9hb_font_t
_Z37hb_ot_layout_position_finish_advancesP9hb_font_tP11hb_buffer_t
_Z39hb_aat_layout_zero_width_deleted_glyphsP11hb_buffer_t
_Z42_hb_unicode_is_emoji_Extended_Pictographicj
_Z43_glyf_get_leading_bearing_with_var_unscaledP9hb_font_tjbPi
_Z54_hb_ot_shape_fallback_mark_position_recategorize_marksPK18hb_ot_shape_plan_tP9hb_font_tP11hb_buffer_t
_Z7fprintfP6_iobufPKcz
_Z7sprintfPcPKcz
_Z8snprintfPcyPKcz
_ZN11hb_buffer_t10next_glyphEv
_ZN11hb_buffer_t11next_glyphsEj
_ZN11hb_buffer_t11output_infoERK15hb_glyph_info_t
_ZN11hb_buffer_t11sync_so_farEv
_ZN11hb_buffer_t12clear_outputEv
_ZN11hb_buffer_t12delete_glyphEv
_ZN11hb_buffer_t12message_implEP9hb_font_tPKcPc
_ZN11hb_buffer_t12output_glyphEj
_ZN11hb_buffer_t13make_room_forEjj
_ZN11hb_buffer_t13replace_glyphEj
_ZN11hb_buffer_t13shift_forwardEj
_ZN11hb_buffer_t14replace_glyphsIjEEbjjPKT_
_ZN11hb_buffer_t14reverse_groupsIFbRK15hb_glyph_info_tS3_EEEvRKT_b
_ZN11hb_buffer_t15clear_positionsEv
_ZN11hb_buffer_t15unsafe_to_breakEjj
_ZN11hb_buffer_t16_set_glyph_flagsEjjjbb
_ZN11hb_buffer_t18get_scratch_bufferEPj
_ZN11hb_buffer_t18merge_out_clustersEjj
_ZN11hb_buffer_t19_cluster_group_funcERK15hb_glyph_info_tS2_
_ZN11hb_buffer_t19merge_clusters_implEjj
_ZN11hb_buffer_t22safe_to_insert_tatweelEjj
_ZN11hb_buffer_t24guess_segment_propertiesEv
_ZN11hb_buffer_t3addEjj
_ZN11hb_buffer_t4sortEjjPFiPK15hb_glyph_info_tS2_E
_ZN11hb_buffer_t4syncEv
_ZN11hb_buffer_t5clearEv
_ZN11hb_buffer_t5enterEv
_ZN11hb_buffer_t5leaveEv
_ZN11hb_buffer_t5resetEv
_ZN11hb_buffer_t6verifyEPS_P9hb_font_tPK12hb_feature_tjPKPKc
_ZN11hb_buffer_t7enlargeEj
_ZN11hb_buffer_t7messageEP9hb_font_tPKcz
_ZN11hb_buffer_t7move_toEj
_ZN11hb_buffer_t7similarERKS_
_ZN11hb_buffer_t8add_infoERK15hb_glyph_info_t
_ZN11hb_buffer_t9set_masksEjjjj
_ZN11hb_ot_map_t12lookup_map_t3cmpEPKvS2_
_ZN11hb_ot_map_t4finiEv
_ZN11hb_vector_tI13hb_bit_page_tLb0EE6resizeEi
_ZN11hb_vector_tI8hb_set_tLb0EE14realloc_vectorIS0_LPv0EEEPS0_j
_ZN11hb_vector_tI8hb_set_tLb0EE3popEv
_ZN11hb_vector_tI8hb_set_tLb0EE6resizeEi
_ZN11hb_vector_tIN2OT4cff113accelerator_t7gname_tELb1EE5qsortEjj
_ZN11hb_vector_tIN3CFF23cff1_font_dict_values_tELb0EE14realloc_vectorIS1_LPv0EEEPS1_j
_ZN11hb_vector_tIN3CFF23cff1_font_dict_values_tELb0EE4pushEv
_ZN11hb_vector_tIN3CFF23cff1_font_dict_values_tELb0EE6resizeEi
_ZN11hb_vector_tIN3CFF23cff2_font_dict_values_tELb0EE14realloc_vectorIS1_LPv0EEEPS1_j
_ZN11hb_vector_tIN3CFF23cff2_font_dict_values_tELb0EE6resizeEi
_ZN11hb_vector_tIN3CFF31cff1_private_dict_values_base_tINS0_10dict_val_tEEELb0EE14realloc_vectorIS3_LPv0EEEPS3_j
_ZN11hb_vector_tIN3CFF31cff1_private_dict_values_base_tINS0_10dict_val_tEEELb0EE6resizeEi
_ZN11hb_vector_tIN3CFF31cff2_private_dict_values_base_tINS0_10dict_val_tEEELb0EE14realloc_vectorIS3_LPv0EEEPS3_j
_ZN11hb_vector_tIN3CFF31cff2_private_dict_values_base_tINS0_10dict_val_tEEELb0EE6resizeEi
_ZN11hb_vector_tIPN9hb_pool_tIN22hb_serialize_context_t8object_tELj16EE7chunk_tELb0EE4pushIRS5_S5_LPv0EEEPS5_OT_
_ZN11hb_vector_tIPN9hb_pool_tIN22hb_serialize_context_t8object_tELj16EE7chunk_tELb0EE5allocEj
_ZN12hb_bit_set_t16del_sorted_arrayIN2OT11HBGlyphID16EEEbPKT_jj
_ZN12hb_bit_set_t16del_sorted_arrayIjEEbPKT_jj
_ZN12hb_bit_set_t3addEj
_ZN12hb_bit_set_t3setERKS_
_ZN12hb_bit_set_t6resizeEj
_ZN12hb_bit_set_t7compactER11hb_vector_tIjLb0EEj
_ZN12hb_bit_set_t8page_forEjb
_ZN12hb_bit_set_t8process_EPF16hb_vector_size_tIyLj64EERKS1_S3_EbbRKS_
_ZN12hb_bit_set_t9add_rangeEjj
_ZN12hb_bit_set_t9del_arrayIN2OT11HBGlyphID16EEEvPKT_jj
_ZN12hb_bit_set_t9del_arrayIN2OT5IndexEEEvPKT_jj
_ZN12hb_bit_set_t9del_pagesEii
_ZN12hb_bit_set_t9del_rangeEjj
_ZN12hb_hashmap_tIPKN22hb_serialize_context_t8object_tEjLb0EE13set_with_hashIRKjEEbS3_jOT_b
_ZN12hb_hashmap_tIPKN22hb_serialize_context_t8object_tEjLb0EE13set_with_hashIRjEEbS3_jOT_b
_ZN12hb_hashmap_tIPKN22hb_serialize_context_t8object_tEjLb0EE13set_with_hashIjEEbS3_jOT_b
_ZN12hb_hashmap_tIPKN22hb_serialize_context_t8object_tEjLb0EE6resizeEj
_ZN12hb_hashmap_tIjN2hb10unique_ptrI8hb_set_tEELb0EE13set_with_hashIS3_EEbjjOT_b
_ZN12hb_hashmap_tIjN2hb10unique_ptrI8hb_set_tEELb0EE4finiEv
_ZN12hb_hashmap_tIjN2hb10unique_ptrI8hb_set_tEELb0EE6resizeEj
_ZN12hb_hashmap_tIjP9hb_blob_tLb0EE13set_with_hashIS1_EEbjjOT_b
_ZN12hb_hashmap_tIjP9hb_blob_tLb0EE6resizeEj
_ZN12hb_hashmap_tIjjLb1EE13set_with_hashIRKjEEbjjOT_b
_ZN12hb_hashmap_tIjjLb1EE13set_with_hashIRjEEbjjOT_b
_ZN12hb_hashmap_tIjjLb1EE13set_with_hashIjEEbjjOT_b
_ZN12hb_hashmap_tIjjLb1EE6resizeEj
_ZN12hb_ot_face_t4finiEv
_ZN12hb_ot_face_t5init0EP9hb_face_t
_ZN14hb_sparseset_tI23hb_bit_set_invertible_tE3addEj
_ZN14hb_sparseset_tI23hb_bit_set_invertible_tED2Ev
_ZN15hb_draw_funcs_t12quadratic_toEPvR15hb_draw_state_tffff
_ZN15hb_draw_funcs_t7line_toEPvR15hb_draw_state_tff
_ZN15hb_draw_funcs_t7move_toEPvR15hb_draw_state_tff
_ZN15hb_draw_funcs_t8cubic_toEPvR15hb_draw_state_tffffff
_ZN15hb_shape_plan_tD2Ev
_ZN16hb_filter_iter_tI10hb_array_tIKN2OT30FeatureTableSubstitutionRecordEERPK8hb_set_tMS2_NS1_7IntTypeItLj2EEELPv0EE8__next__Ev
_ZN16hb_filter_iter_tI10hb_array_tIKN2OT30FeatureTableSubstitutionRecordEERPK8hb_set_tMS2_NS1_7IntTypeItLj2EEELPv0EEC2ERKS4_S8_SB_
_ZN16hb_lazy_loader_tIN2OT18CBDT_accelerator_tE21hb_face_lazy_loader_tIS1_Lj36EE9hb_face_tLj36ES1_E6createEPS4_
_ZN16hb_lazy_loader_tIN2OT18GDEF_accelerator_tE21hb_face_lazy_loader_tIS1_Lj23EE9hb_face_tLj23ES1_E6createEPS4_
_ZN17cff1_path_param_t7line_toERKN3CFF7point_tE
_ZN17cff1_path_param_t7move_toERKN3CFF7point_tE
_ZN17cff2_path_param_t7line_toERKN3CFF7point_tE
_ZN17cff2_path_param_t7move_toERKN3CFF7point_tE
_ZN17hb_draw_session_t8cubic_toEffffff
_ZN17hb_lockable_set_tIN20hb_user_data_array_t19hb_user_data_item_tE10hb_mutex_tE17replace_or_insertIS1_EEPS1_T_RS2_b
_ZN17hb_lockable_set_tIN20hb_user_data_array_t19hb_user_data_item_tE10hb_mutex_tE4finiERS2_
_ZN18hb_ot_shape_plan_t4finiEv
_ZN18hb_ot_shape_plan_t5init0EP9hb_face_tPK19hb_shape_plan_key_t
_ZN19hb_ot_map_builder_t11add_featureEj25hb_ot_map_feature_flags_tj
_ZN19hb_ot_map_builder_t11add_lookupsER11hb_ot_map_tjjjjbbbb
_ZN19hb_ot_map_builder_t11has_featureEj
_ZN19hb_ot_map_builder_t14feature_info_t3cmpEPKvS2_
_ZN19hb_ot_map_builder_t7compileER11hb_ot_map_tRK22hb_ot_shape_plan_key_t
_ZN19hb_ot_map_builder_t9add_pauseEjPFvPK18hb_ot_shape_plan_tP9hb_font_tP11hb_buffer_tE
_ZN19hb_ot_map_builder_tC1EP9hb_face_tRK23hb_segment_properties_t
_ZN19hb_ot_map_builder_tC2EP9hb_face_tRK23hb_segment_properties_t
_ZN19hb_ot_map_builder_tD1Ev
_ZN19hb_ot_map_builder_tD2Ev
_ZN19hb_shape_plan_key_t19user_features_matchEPKS_
_ZN19hb_shape_plan_key_t4initEbP9hb_face_tPK23hb_segment_properties_tPK12hb_feature_tjPKijPKPKc
_ZN19hb_shape_plan_key_t5equalEPKS_
_ZN20cff1_cs_opset_path_t12process_seacERN3CFF20cff1_cs_interp_env_tER17cff1_path_param_t
_ZN20cff1_cs_opset_seac_t12process_seacERN3CFF20cff1_cs_interp_env_tER16get_seac_param_t
_ZN20hb_aat_map_builder_t11add_featureEjj
_ZN20hb_aat_map_builder_t7compileER12hb_aat_map_t
_ZN20hb_user_data_array_t3getEP18hb_user_data_key_t
_ZN20hb_user_data_array_t3setEP18hb_user_data_key_tPvPFvS2_Ei
_ZN21hb_ot_shape_planner_t7compileER18hb_ot_shape_plan_tRK22hb_ot_shape_plan_key_t
_ZN21hb_ot_shape_planner_tC1EP9hb_face_tRK23hb_segment_properties_t
_ZN21hb_ot_shape_planner_tC2EP9hb_face_tRK23hb_segment_properties_t
_ZN21hb_sanitize_context_t13sanitize_blobIN2OT16OpenTypeFontFileEEEP9hb_blob_tS4_
_ZN21hb_sanitize_context_t13sanitize_blobIN2OT3OS2EEEP9hb_blob_tS4_
_ZN21hb_sanitize_context_t13sanitize_blobIN2OT3SVGEEEP9hb_blob_tS4_
_ZN21hb_sanitize_context_t13sanitize_blobIN2OT4BASEEEEP9hb_blob_tS4_
_ZN21hb_sanitize_context_t13sanitize_blobIN2OT4CBDTEEEP9hb_blob_tS4_
_ZN21hb_sanitize_context_t13sanitize_blobIN2OT4CBLCEEEP9hb_blob_tS4_
_ZN21hb_sanitize_context_t13sanitize_blobIN2OT4COLREEEP9hb_blob_tS4_
_ZN21hb_sanitize_context_t13sanitize_blobIN2OT4CPALEEEP9hb_blob_tS4_
_ZN21hb_sanitize_context_t13sanitize_blobIN2OT4GDEFEEEP9hb_blob_tS4_
_ZN21hb_sanitize_context_t13sanitize_blobIN2OT4HVAREEEP9hb_blob_tS4_
_ZN21hb_sanitize_context_t13sanitize_blobIN2OT4MATHEEEP9hb_blob_tS4_
_ZN21hb_sanitize_context_t13sanitize_blobIN2OT4MVAREEEP9hb_blob_tS4_
_ZN21hb_sanitize_context_t13sanitize_blobIN2OT4STATEEEP9hb_blob_tS4_
_ZN21hb_sanitize_context_t13sanitize_blobIN2OT4VORGEEEP9hb_blob_tS4_
_ZN21hb_sanitize_context_t13sanitize_blobIN2OT4VVAREEEP9hb_blob_tS4_
_ZN21hb_sanitize_context_t13sanitize_blobIN2OT4avarEEEP9hb_blob_tS4_
_ZN21hb_sanitize_context_t13sanitize_blobIN2OT4cff1EEEP9hb_blob_tS4_
_ZN21hb_sanitize_context_t13sanitize_blobIN2OT4cff2EEEP9hb_blob_tS4_
_ZN21hb_sanitize_context_t13sanitize_blobIN2OT4cmapEEEP9hb_blob_tS4_
_ZN21hb_sanitize_context_t13sanitize_blobIN2OT4fvarEEEP9hb_blob_tS4_
_ZN21hb_sanitize_context_t13sanitize_blobIN2OT4gvarEEEP9hb_blob_tS4_
_ZN21hb_sanitize_context_t13sanitize_blobIN2OT4headEEEP9hb_blob_tS4_
_ZN21hb_sanitize_context_t13sanitize_blobIN2OT4hheaEEEP9hb_blob_tS4_
_ZN21hb_sanitize_context_t13sanitize_blobIN2OT4kernEEEP9hb_blob_tS4_
_ZN21hb_sanitize_context_t13sanitize_blobIN2OT4maxpEEEP9hb_blob_tS4_
_ZN21hb_sanitize_context_t13sanitize_blobIN2OT4metaEEEP9hb_blob_tS4_
_ZN21hb_sanitize_context_t13sanitize_blobIN2OT4nameEEEP9hb_blob_tS4_
_ZN21hb_sanitize_context_t13sanitize_blobIN2OT4postEEEP9hb_blob_tS4_
_ZN21hb_sanitize_context_t13sanitize_blobIN2OT4sbixEEEP9hb_blob_tS4_
_ZN21hb_sanitize_context_t13sanitize_blobIN2OT4vheaEEEP9hb_blob_tS4_
_ZN21hb_sanitize_context_t13sanitize_blobIN2OT6Layout4GPOSEEEP9hb_blob_tS5_
_ZN21hb_sanitize_context_t13sanitize_blobIN2OT6Layout4GSUBEEEP9hb_blob_tS5_
_ZN21hb_sanitize_context_t13sanitize_blobIN3AAT4ankrEEEP9hb_blob_tS4_
_ZN21hb_sanitize_context_t13sanitize_blobIN3AAT4featEEEP9hb_blob_tS4_
_ZN21hb_sanitize_context_t13sanitize_blobIN3AAT4kerxEEEP9hb_blob_tS4_
_ZN21hb_sanitize_context_t13sanitize_blobIN3AAT4ltagEEEP9hb_blob_tS4_
_ZN21hb_sanitize_context_t13sanitize_blobIN3AAT4mortEEEP9hb_blob_tS4_
_ZN21hb_sanitize_context_t13sanitize_blobIN3AAT4morxEEEP9hb_blob_tS4_
_ZN21hb_sanitize_context_t13sanitize_blobIN3AAT4trakEEEP9hb_blob_tS4_
_ZN22hb_serialize_context_t11extend_sizeIN2OT15HeadlessArrayOfINS1_11HBGlyphID16ENS1_7IntTypeItLj2EEEEEEEPT_S8_y
_ZN22hb_serialize_context_t11extend_sizeIN2OT19OpenTypeOffsetTableEEEPT_S4_y
_ZN22hb_serialize_context_t11extend_sizeIN2OT6Layout6Common17CoverageFormat2_4INS2_10SmallTypesEEEEEPT_S8_y
_ZN22hb_serialize_context_t11extend_sizeIN2OT6Layout6Common8CoverageEEEPT_S6_y
_ZN22hb_serialize_context_t11extend_sizeIN2OT6Layout9GSUB_impl11LigatureSetINS2_10SmallTypesEEEEEPT_S8_y
_ZN22hb_serialize_context_t11extend_sizeIN2OT6Layout9GSUB_impl20SingleSubstFormat1_3INS2_10SmallTypesEEEEEPT_S8_y
_ZN22hb_serialize_context_t11extend_sizeIN2OT6Layout9GSUB_impl20SingleSubstFormat2_4INS2_10SmallTypesEEEEEPT_S8_y
_ZN22hb_serialize_context_t11extend_sizeIN2OT6Layout9GSUB_impl22LigatureSubstFormat1_2INS2_10SmallTypesEEEEEPT_S8_y
_ZN22hb_serialize_context_t11extend_sizeIN2OT6Layout9GSUB_impl8LigatureINS2_10SmallTypesEEEEEPT_S8_y
_ZN22hb_serialize_context_t11extend_sizeIN2OT6LookupEEEPT_S4_y
_ZN22hb_serialize_context_t11extend_sizeIN2OT7ArrayOfINS1_11HBGlyphID16ENS1_7IntTypeItLj2EEEEEEEPT_S8_y
_ZN22hb_serialize_context_t11extend_sizeIN2OT7ArrayOfINS1_11TableRecordENS1_15BinSearchHeaderINS1_7IntTypeItLj2EEEEEEEEEPT_SA_y
_ZN22hb_serialize_context_t11extend_sizeIN2OT7ArrayOfINS1_6Layout6Common11RangeRecordINS3_10SmallTypesEEENS1_7IntTypeItLj2EEEEEEEPT_SC_y
_ZN22hb_serialize_context_t11extend_sizeIN2OT7ArrayOfINS1_6OffsetINS1_7IntTypeItLj2EEELb1EEES5_EEEEPT_S9_y
_ZN22hb_serialize_context_t11extend_sizeIN2OT7ArrayOfINS1_8OffsetToINS1_6Layout9GSUB_impl11LigatureSetINS4_10SmallTypesEEENS1_7IntTypeItLj2EEELb1EEESA_EEEEPT_SE_y
_ZN22hb_serialize_context_t11extend_sizeIN2OT7ArrayOfINS1_8OffsetToINS1_6Layout9GSUB_impl8LigatureINS4_10SmallTypesEEENS1_7IntTypeItLj2EEELb1EEESA_EEEEPT_SE_y
_ZN22hb_serialize_context_t11extend_sizeIN2OT7IntTypeItLj2EEEEEPT_S5_y
_ZN22hb_serialize_context_t11pop_discardEv
_ZN22hb_serialize_context_t13resolve_linksEv
_ZN22hb_serialize_context_t19merge_virtual_linksEPKNS_8object_tEj
_ZN22hb_serialize_context_t21discard_stale_objectsEv
_ZN22hb_serialize_context_t4finiEv
_ZN22hb_serialize_context_t4pushIN2OT16OpenTypeFontFileEEEPT_v
_ZN22hb_serialize_context_t4pushIN2OT6Layout6Common8CoverageEEEPT_v
_ZN22hb_serialize_context_t4pushIN2OT6Layout9GSUB_impl11LigatureSetINS2_10SmallTypesEEEEEPT_v
_ZN22hb_serialize_context_t4pushIN2OT6Layout9GSUB_impl11SubstLookupEEEPT_v
_ZN22hb_serialize_context_t4pushIN2OT6Layout9GSUB_impl19SubstLookupSubTableEEEPT_v
_ZN22hb_serialize_context_t4pushIN2OT6Layout9GSUB_impl8LigatureINS2_10SmallTypesEEEEEPT_v
_ZN22hb_serialize_context_t5resetEv
_ZN22hb_serialize_context_t8add_linkIN2OT8OffsetToINS1_6Layout6Common8CoverageENS1_7IntTypeItLj2EEELb1EEEEEvRT_jNS_8whence_tEj
_ZN22hb_serialize_context_t8add_linkIN2OT8OffsetToINS1_6Layout9GSUB_impl11LigatureSetINS3_10SmallTypesEEENS1_7IntTypeItLj2EEELb1EEEEEvRT_jNS_8whence_tEj
_ZN22hb_serialize_context_t8add_linkIN2OT8OffsetToINS1_6Layout9GSUB_impl19SubstLookupSubTableENS1_7IntTypeItLj2EEELb1EEEEEvRT_jNS_8whence_tEj
_ZN22hb_serialize_context_t8add_linkIN2OT8OffsetToINS1_6Layout9GSUB_impl8LigatureINS3_10SmallTypesEEENS1_7IntTypeItLj2EEELb1EEEEEvRT_jNS_8whence_tEj
_ZN22hb_serialize_context_t8object_t4finiEv
_ZN22hb_serialize_context_t8pop_packEb
_ZN22hb_serialize_context_tD2Ev
_ZN23cff1_cs_opset_extents_t12process_seacERN3CFF20cff1_cs_interp_env_tER20cff1_extents_param_t
_ZN23hb_bit_set_invertible_t16add_sorted_arrayIN2OT11HBGlyphID16EEEbPKT_jj
_ZN23hb_bit_set_invertible_t16add_sorted_arrayIjEEbPKT_jj
_ZN23hb_bit_set_invertible_t3delEj
_ZN23hb_bit_set_invertible_t6iter_t8__next__Ev
_ZN23hb_bit_set_invertible_t6union_ERKS_
_ZN23hb_bit_set_invertible_t8subtractERKS_
_ZN23hb_bit_set_invertible_t9add_arrayIN2OT11HBGlyphID16EEEvPKT_jj
_ZN23hb_bit_set_invertible_t9add_arrayIN2OT5IndexEEEvPKT_jj
_ZN23hb_bit_set_invertible_t9intersectERKS_
_ZN24hb_shapers_lazy_loader_t6createEv
_ZN25cff1_path_procs_extents_t5curveERN3CFF20cff1_cs_interp_env_tER20cff1_extents_param_tRKNS0_7point_tES7_S7_
_ZN25cff2_path_procs_extents_t5curveERN3CFF20cff2_cs_interp_env_tINS0_8number_tEEER20cff2_extents_param_tRKNS0_7point_tES9_S9_
_ZN29hb_collect_features_context_t22compute_feature_filterEPKj
_ZN29hb_collect_features_context_t7visitedIN2OT6ScriptEEEbRKT_R8hb_set_t
_ZN29hb_collect_features_context_t7visitedIN2OT7LangSysEEEbRKT_R8hb_set_t
_ZN29hb_collect_features_context_tC2EP9hb_face_tjP8hb_set_tPKj
_ZN2OT11TableRecord3cmpEPKvS2_
_ZN2OT18GlyphVariationData13unpack_pointsERPKNS_7IntTypeIhLj1EEER11hb_vector_tIjLb0EES4_
_ZN2OT18glyf_accelerator_t19points_aggregator_t10points_endEv
_ZN2OT18glyf_accelerator_tC2EP9hb_face_t
_ZN2OT19CmapSubtableFormat413accelerator_t14get_glyph_funcEPKvjPj
_ZN2OT19OpenTypeOffsetTable9serializeI10hb_array_tIK9hb_pair_tIjP9hb_blob_tEELPv0EEEbP22hb_serialize_context_tjT_
_ZN2OT20hb_closure_context_t14is_lookup_doneEj
_ZN2OT20hb_closure_context_t5flushEv
_ZN2OT21hb_ot_apply_context_t19skipping_iterator_t4nextEPj
_ZN2OT21hb_ot_apply_context_t19skipping_iterator_t4prevEPj
_ZN2OT21hb_ot_apply_context_t8dispatchINS_16ContextFormat1_4INS_6Layout10SmallTypesEEEEEbRKT_
_ZN2OT21hb_ot_apply_context_t8dispatchINS_6Layout9GSUB_impl22LigatureSubstFormat1_2INS2_10SmallTypesEEEEEbRKT_
_ZN2OT21hb_ot_apply_context_tC2EjP9hb_font_tP11hb_buffer_t
_ZN2OT24hb_would_apply_context_t8dispatchINS_6Layout9GSUB_impl22LigatureSubstFormat1_2INS2_10SmallTypesEEEEEbRKT_
_ZN2OT27hb_collect_glyphs_context_t7recurseEj
_ZN2OT33hb_accelerate_subtables_context_t13apply_cached_INS_16ContextFormat1_4INS_6Layout10SmallTypesEEEEEN10_hb_head_tIbJDTclptfp_5applyfp0_EEEE4typeEPKT_PNS_21hb_ot_apply_context_tE11hb_priorityILj0EE
_ZN2OT33hb_accelerate_subtables_context_t13cache_func_toINS_14ContextFormat3EEEbPKvPNS_21hb_ot_apply_context_tEb
_ZN2OT33hb_accelerate_subtables_context_t13cache_func_toINS_16ContextFormat1_4INS_6Layout10SmallTypesEEEEEbPKvPNS_21hb_ot_apply_context_tEb
_ZN2OT33hb_accelerate_subtables_context_t13cache_func_toINS_16ContextFormat2_5INS_6Layout10SmallTypesEEEEEbPKvPNS_21hb_ot_apply_context_tEb
_ZN2OT33hb_accelerate_subtables_context_t13cache_func_toINS_19ChainContextFormat3EEEbPKvPNS_21hb_ot_apply_context_tEb
_ZN2OT33hb_accelerate_subtables_context_t13cache_func_toINS_21ChainContextFormat1_4INS_6Layout10SmallTypesEEEEEbPKvPNS_21hb_ot_apply_context_tEb
_ZN2OT33hb_accelerate_subtables_context_t13cache_func_toINS_21ChainContextFormat2_5INS_6Layout10SmallTypesEEEEEbPKvPNS_21hb_ot_apply_context_tEb
_ZN2OT33hb_accelerate_subtables_context_t13cache_func_toINS_6Layout9GPOS_impl16PairPosFormat1_3INS2_10SmallTypesEEEEEbPKvPNS_21hb_ot_apply_context_tEb
_ZN2OT33hb_accelerate_subtables_context_t13cache_func_toINS_6Layout9GPOS_impl16PairPosFormat2_4INS2_10SmallTypesEEEEEbPKvPNS_21hb_ot_apply_context_tEb
_ZN2OT33hb_accelerate_subtables_context_t13cache_func_toINS_6Layout9GPOS_impl16SinglePosFormat1EEEbPKvPNS_21hb_ot_apply_context_tEb
_ZN2OT33hb_accelerate_subtables_context_t13cache_func_toINS_6Layout9GPOS_impl16SinglePosFormat2EEEbPKvPNS_21hb_ot_apply_context_tEb
_ZN2OT33hb_accelerate_subtables_context_t13cache_func_toINS_6Layout9GPOS_impl17CursivePosFormat1EEEbPKvPNS_21hb_ot_apply_context_tEb
_ZN2OT33hb_accelerate_subtables_context_t13cache_func_toINS_6Layout9GPOS_impl19MarkLigPosFormat1_2INS2_10SmallTypesEEEEEbPKvPNS_21hb_ot_apply_context_tEb
_ZN2OT33hb_accelerate_subtables_context_t13cache_func_toINS_6Layout9GPOS_impl20MarkBasePosFormat1_2INS2_10SmallTypesEEEEEbPKvPNS_21hb_ot_apply_context_tEb
_ZN2OT33hb_accelerate_subtables_context_t13cache_func_toINS_6Layout9GPOS_impl20MarkMarkPosFormat1_2INS2_10SmallTypesEEEEEbPKvPNS_21hb_ot_apply_context_tEb
_ZN2OT33hb_accelerate_subtables_context_t13cache_func_toINS_6Layout9GSUB_impl20SingleSubstFormat1_3INS2_10SmallTypesEEEEEbPKvPNS_21hb_ot_apply_context_tEb
_ZN2OT33hb_accelerate_subtables_context_t13cache_func_toINS_6Layout9GSUB_impl20SingleSubstFormat2_4INS2_10SmallTypesEEEEEbPKvPNS_21hb_ot_apply_context_tEb
_ZN2OT33hb_accelerate_subtables_context_t13cache_func_toINS_6Layout9GSUB_impl22LigatureSubstFormat1_2INS2_10SmallTypesEEEEEbPKvPNS_21hb_ot_apply_context_tEb
_ZN2OT33hb_accelerate_subtables_context_t13cache_func_toINS_6Layout9GSUB_impl22MultipleSubstFormat1_2INS2_10SmallTypesEEEEEbPKvPNS_21hb_ot_apply_context_tEb
_ZN2OT33hb_accelerate_subtables_context_t13cache_func_toINS_6Layout9GSUB_impl23AlternateSubstFormat1_2INS2_10SmallTypesEEEEEbPKvPNS_21hb_ot_apply_context_tEb
_ZN2OT33hb_accelerate_subtables_context_t13cache_func_toINS_6Layout9GSUB_impl30ReverseChainSingleSubstFormat1EEEbPKvPNS_21hb_ot_apply_context_tEb
_ZN2OT33hb_accelerate_subtables_context_t15apply_cached_toINS_14ContextFormat3EEEbPKvPNS_21hb_ot_apply_context_tE
_ZN2OT33hb_accelerate_subtables_context_t15apply_cached_toINS_16ContextFormat1_4INS_6Layout10SmallTypesEEEEEbPKvPNS_21hb_ot_apply_context_tE
_ZN2OT33hb_accelerate_subtables_context_t15apply_cached_toINS_16ContextFormat2_5INS_6Layout10SmallTypesEEEEEbPKvPNS_21hb_ot_apply_context_tE
_ZN2OT33hb_accelerate_subtables_context_t15apply_cached_toINS_19ChainContextFormat3EEEbPKvPNS_21hb_ot_apply_context_tE
_ZN2OT33hb_accelerate_subtables_context_t15apply_cached_toINS_21ChainContextFormat1_4INS_6Layout10SmallTypesEEEEEbPKvPNS_21hb_ot_apply_context_tE
_ZN2OT33hb_accelerate_subtables_context_t15apply_cached_toINS_21ChainContextFormat2_5INS_6Layout10SmallTypesEEEEEbPKvPNS_21hb_ot_apply_context_tE
_ZN2OT33hb_accelerate_subtables_context_t15apply_cached_toINS_6Layout9GPOS_impl16PairPosFormat1_3INS2_10SmallTypesEEEEEbPKvPNS_21hb_ot_apply_context_tE
_ZN2OT33hb_accelerate_subtables_context_t15apply_cached_toINS_6Layout9GPOS_impl16PairPosFormat2_4INS2_10SmallTypesEEEEEbPKvPNS_21hb_ot_apply_context_tE
_ZN2OT33hb_accelerate_subtables_context_t15apply_cached_toINS_6Layout9GPOS_impl16SinglePosFormat1EEEbPKvPNS_21hb_ot_apply_context_tE
_ZN2OT33hb_accelerate_subtables_context_t15apply_cached_toINS_6Layout9GPOS_impl16SinglePosFormat2EEEbPKvPNS_21hb_ot_apply_context_tE
_ZN2OT33hb_accelerate_subtables_context_t15apply_cached_toINS_6Layout9GPOS_impl17CursivePosFormat1EEEbPKvPNS_21hb_ot_apply_context_tE
_ZN2OT33hb_accelerate_subtables_context_t15apply_cached_toINS_6Layout9GPOS_impl19MarkLigPosFormat1_2INS2_10SmallTypesEEEEEbPKvPNS_21hb_ot_apply_context_tE
_ZN2OT33hb_accelerate_subtables_context_t15apply_cached_toINS_6Layout9GPOS_impl20MarkBasePosFormat1_2INS2_10SmallTypesEEEEEbPKvPNS_21hb_ot_apply_context_tE
_ZN2OT33hb_accelerate_subtables_context_t15apply_cached_toINS_6Layout9GPOS_impl20MarkMarkPosFormat1_2INS2_10SmallTypesEEEEEbPKvPNS_21hb_ot_apply_context_tE
_ZN2OT33hb_accelerate_subtables_context_t15apply_cached_toINS_6Layout9GSUB_impl20SingleSubstFormat1_3INS2_10SmallTypesEEEEEbPKvPNS_21hb_ot_apply_context_tE
_ZN2OT33hb_accelerate_subtables_context_t15apply_cached_toINS_6Layout9GSUB_impl20SingleSubstFormat2_4INS2_10SmallTypesEEEEEbPKvPNS_21hb_ot_apply_context_tE
_ZN2OT33hb_accelerate_subtables_context_t15apply_cached_toINS_6Layout9GSUB_impl22LigatureSubstFormat1_2INS2_10SmallTypesEEEEEbPKvPNS_21hb_ot_apply_context_tE
_ZN2OT33hb_accelerate_subtables_context_t15apply_cached_toINS_6Layout9GSUB_impl22MultipleSubstFormat1_2INS2_10SmallTypesEEEEEbPKvPNS_21hb_ot_apply_context_tE
_ZN2OT33hb_accelerate_subtables_context_t15apply_cached_toINS_6Layout9GSUB_impl23AlternateSubstFormat1_2INS2_10SmallTypesEEEEEbPKvPNS_21hb_ot_apply_context_tE
_ZN2OT33hb_accelerate_subtables_context_t15apply_cached_toINS_6Layout9GSUB_impl30ReverseChainSingleSubstFormat1EEEbPKvPNS_21hb_ot_apply_context_tE
_ZN2OT33hb_accelerate_subtables_context_t15hb_applicable_t4initINS_14ContextFormat3EEEvRKT_PFbPKvPNS_21hb_ot_apply_context_tEESC_PFbS8_SA_bE
_ZN2OT33hb_accelerate_subtables_context_t15hb_applicable_t4initINS_16ContextFormat1_4INS_6Layout10SmallTypesEEEEEvRKT_PFbPKvPNS_21hb_ot_apply_context_tEESF_PFbSB_SD_bE
_ZN2OT33hb_accelerate_subtables_context_t15hb_applicable_t4initINS_16ContextFormat2_5INS_6Layout10SmallTypesEEEEEvRKT_PFbPKvPNS_21hb_ot_apply_context_tEESF_PFbSB_SD_bE
_ZN2OT33hb_accelerate_subtables_context_t15hb_applicable_t4initINS_19ChainContextFormat3EEEvRKT_PFbPKvPNS_21hb_ot_apply_context_tEESC_PFbS8_SA_bE
_ZN2OT33hb_accelerate_subtables_context_t15hb_applicable_t4initINS_21ChainContextFormat1_4INS_6Layout10SmallTypesEEEEEvRKT_PFbPKvPNS_21hb_ot_apply_context_tEESF_PFbSB_SD_bE
_ZN2OT33hb_accelerate_subtables_context_t15hb_applicable_t4initINS_21ChainContextFormat2_5INS_6Layout10SmallTypesEEEEEvRKT_PFbPKvPNS_21hb_ot_apply_context_tEESF_PFbSB_SD_bE
_ZN2OT33hb_accelerate_subtables_context_t15hb_applicable_t4initINS_6Layout9GPOS_impl16PairPosFormat1_3INS3_10SmallTypesEEEEEvRKT_PFbPKvPNS_21hb_ot_apply_context_tEESG_PFbSC_SE_bE
_ZN2OT33hb_accelerate_subtables_context_t15hb_applicable_t4initINS_6Layout9GPOS_impl16PairPosFormat2_4INS3_10SmallTypesEEEEEvRKT_PFbPKvPNS_21hb_ot_apply_context_tEESG_PFbSC_SE_bE
_ZN2OT33hb_accelerate_subtables_context_t15hb_applicable_t4initINS_6Layout9GPOS_impl16SinglePosFormat1EEEvRKT_PFbPKvPNS_21hb_ot_apply_context_tEESE_PFbSA_SC_bE
_ZN2OT33hb_accelerate_subtables_context_t15hb_applicable_t4initINS_6Layout9GPOS_impl16SinglePosFormat2EEEvRKT_PFbPKvPNS_21hb_ot_apply_context_tEESE_PFbSA_SC_bE
_ZN2OT33hb_accelerate_subtables_context_t15hb_applicable_t4initINS_6Layout9GPOS_impl17CursivePosFormat1EEEvRKT_PFbPKvPNS_21hb_ot_apply_context_tEESE_PFbSA_SC_bE
_ZN2OT33hb_accelerate_subtables_context_t15hb_applicable_t4initINS_6Layout9GPOS_impl19MarkLigPosFormat1_2INS3_10SmallTypesEEEEEvRKT_PFbPKvPNS_21hb_ot_apply_context_tEESG_PFbSC_SE_bE
_ZN2OT33hb_accelerate_subtables_context_t15hb_applicable_t4initINS_6Layout9GPOS_impl20MarkBasePosFormat1_2INS3_10SmallTypesEEEEEvRKT_PFbPKvPNS_21hb_ot_apply_context_tEESG_PFbSC_SE_bE
_ZN2OT33hb_accelerate_subtables_context_t15hb_applicable_t4initINS_6Layout9GPOS_impl20MarkMarkPosFormat1_2INS3_10SmallTypesEEEEEvRKT_PFbPKvPNS_21hb_ot_apply_context_tEESG_PFbSC_SE_bE
_ZN2OT33hb_accelerate_subtables_context_t15hb_applicable_t4initINS_6Layout9GSUB_impl20SingleSubstFormat1_3INS3_10SmallTypesEEEEEvRKT_PFbPKvPNS_21hb_ot_apply_context_tEESG_PFbSC_SE_bE
_ZN2OT33hb_accelerate_subtables_context_t15hb_applicable_t4initINS_6Layout9GSUB_impl20SingleSubstFormat2_4INS3_10SmallTypesEEEEEvRKT_PFbPKvPNS_21hb_ot_apply_context_tEESG_PFbSC_SE_bE
_ZN2OT33hb_accelerate_subtables_context_t15hb_applicable_t4initINS_6Layout9GSUB_impl22LigatureSubstFormat1_2INS3_10SmallTypesEEEEEvRKT_PFbPKvPNS_21hb_ot_apply_context_tEESG_PFbSC_SE_bE
_ZN2OT33hb_accelerate_subtables_context_t15hb_applicable_t4initINS_6Layout9GSUB_impl22MultipleSubstFormat1_2INS3_10SmallTypesEEEEEvRKT_PFbPKvPNS_21hb_ot_apply_context_tEESG_PFbSC_SE_bE
_ZN2OT33hb_accelerate_subtables_context_t15hb_applicable_t4initINS_6Layout9GSUB_impl23AlternateSubstFormat1_2INS3_10SmallTypesEEEEEvRKT_PFbPKvPNS_21hb_ot_apply_context_tEESG_PFbSC_SE_bE
_ZN2OT33hb_accelerate_subtables_context_t15hb_applicable_t4initINS_6Layout9GSUB_impl30ReverseChainSingleSubstFormat1EEEvRKT_PFbPKvPNS_21hb_ot_apply_context_tEESE_PFbSA_SC_bE
_ZN2OT33hb_accelerate_subtables_context_t8apply_toINS_14ContextFormat3EEEbPKvPNS_21hb_ot_apply_context_tE
_ZN2OT33hb_accelerate_subtables_context_t8apply_toINS_16ContextFormat1_4INS_6Layout10SmallTypesEEEEEbPKvPNS_21hb_ot_apply_context_tE
_ZN2OT33hb_accelerate_subtables_context_t8apply_toINS_16ContextFormat2_5INS_6Layout10SmallTypesEEEEEbPKvPNS_21hb_ot_apply_context_tE
_ZN2OT33hb_accelerate_subtables_context_t8apply_toINS_19ChainContextFormat3EEEbPKvPNS_21hb_ot_apply_context_tE
_ZN2OT33hb_accelerate_subtables_context_t8apply_toINS_21ChainContextFormat1_4INS_6Layout10SmallTypesEEEEEbPKvPNS_21hb_ot_apply_context_tE
_ZN2OT33hb_accelerate_subtables_context_t8apply_toINS_21ChainContextFormat2_5INS_6Layout10SmallTypesEEEEEbPKvPNS_21hb_ot_apply_context_tE
_ZN2OT33hb_accelerate_subtables_context_t8apply_toINS_6Layout9GPOS_impl16PairPosFormat1_3INS2_10SmallTypesEEEEEbPKvPNS_21hb_ot_apply_context_tE
_ZN2OT33hb_accelerate_subtables_context_t8apply_toINS_6Layout9GPOS_impl16PairPosFormat2_4INS2_10SmallTypesEEEEEbPKvPNS_21hb_ot_apply_context_tE
_ZN2OT33hb_accelerate_subtables_context_t8apply_toINS_6Layout9GPOS_impl16SinglePosFormat1EEEbPKvPNS_21hb_ot_apply_context_tE
_ZN2OT33hb_accelerate_subtables_context_t8apply_toINS_6Layout9GPOS_impl16SinglePosFormat2EEEbPKvPNS_21hb_ot_apply_context_tE
_ZN2OT33hb_accelerate_subtables_context_t8apply_toINS_6Layout9GPOS_impl17CursivePosFormat1EEEbPKvPNS_21hb_ot_apply_context_tE
_ZN2OT33hb_accelerate_subtables_context_t8apply_toINS_6Layout9GPOS_impl19MarkLigPosFormat1_2INS2_10SmallTypesEEEEEbPKvPNS_21hb_ot_apply_context_tE
_ZN2OT33hb_accelerate_subtables_context_t8apply_toINS_6Layout9GPOS_impl20MarkBasePosFormat1_2INS2_10SmallTypesEEEEEbPKvPNS_21hb_ot_apply_context_tE
_ZN2OT33hb_accelerate_subtables_context_t8apply_toINS_6Layout9GPOS_impl20MarkMarkPosFormat1_2INS2_10SmallTypesEEEEEbPKvPNS_21hb_ot_apply_context_tE
_ZN2OT33hb_accelerate_subtables_context_t8apply_toINS_6Layout9GSUB_impl20SingleSubstFormat1_3INS2_10SmallTypesEEEEEbPKvPNS_21hb_ot_apply_context_tE
_ZN2OT33hb_accelerate_subtables_context_t8apply_toINS_6Layout9GSUB_impl20SingleSubstFormat2_4INS2_10SmallTypesEEEEEbPKvPNS_21hb_ot_apply_context_tE
_ZN2OT33hb_accelerate_subtables_context_t8apply_toINS_6Layout9GSUB_impl22LigatureSubstFormat1_2INS2_10SmallTypesEEEEEbPKvPNS_21hb_ot_apply_context_tE
_ZN2OT33hb_accelerate_subtables_context_t8apply_toINS_6Layout9GSUB_impl22MultipleSubstFormat1_2INS2_10SmallTypesEEEEEbPKvPNS_21hb_ot_apply_context_tE
_ZN2OT33hb_accelerate_subtables_context_t8apply_toINS_6Layout9GSUB_impl23AlternateSubstFormat1_2INS2_10SmallTypesEEEEEbPKvPNS_21hb_ot_apply_context_tE
_ZN2OT33hb_accelerate_subtables_context_t8apply_toINS_6Layout9GSUB_impl30ReverseChainSingleSubstFormat1EEEbPKvPNS_21hb_ot_apply_context_tE
_ZN2OT33hb_accelerate_subtables_context_t8dispatchINS_16ContextFormat2_5INS_6Layout10SmallTypesEEEEE10hb_empty_tRKT_
_ZN2OT33hb_accelerate_subtables_context_t8dispatchINS_21ChainContextFormat2_5INS_6Layout10SmallTypesEEEEE10hb_empty_tRKT_
_ZN2OT33hb_ot_layout_lookup_accelerator_t4initINS_6Layout9GPOS_impl9PosLookupEEEvRKT_
_ZN2OT33hb_ot_layout_lookup_accelerator_t4initINS_6Layout9GSUB_impl11SubstLookupEEEvRKT_
_ZN2OT4GDEF13accelerator_tC2EP9hb_face_t
_ZN2OT4cff113accelerator_tD2Ev
_ZN2OT4cff119accelerator_templ_tIN3CFF25cff1_private_dict_opset_tENS2_31cff1_private_dict_values_base_tINS2_10dict_val_tEEEE4finiEv
_ZN2OT4cff119accelerator_templ_tIN3CFF25cff1_private_dict_opset_tENS2_31cff1_private_dict_values_base_tINS2_10dict_val_tEEEE4initEP9hb_face_t
_ZN2OT4cff129lookup_expert_charset_for_sidEj
_ZN2OT4cff131lookup_expert_charset_for_glyphEj
_ZN2OT4cff131lookup_expert_encoding_for_codeEj
_ZN2OT4cff132lookup_standard_encoding_for_sidEj
_ZN2OT4cff133lookup_standard_encoding_for_codeEj
_ZN2OT4cff136lookup_expert_subset_charset_for_sidEj
_ZN2OT4cff138lookup_expert_subset_charset_for_glyphEj
_ZN2OT4cff219accelerator_templ_tIN3CFF25cff2_private_dict_opset_tENS2_31cff2_private_dict_values_base_tINS2_10dict_val_tEEEE5_finiEv
_ZN2OT4cff219accelerator_templ_tIN3CFF25cff2_private_dict_opset_tENS2_31cff2_private_dict_values_base_tINS2_10dict_val_tEEEEC2EP9hb_face_t
_ZN2OT4cff219accelerator_templ_tIN3CFF25cff2_private_dict_opset_tENS2_31cff2_private_dict_values_base_tINS2_10dict_val_tEEEED2Ev
_ZN2OT4cmap13accelerator_t14get_glyph_fromINS_12CmapSubtableEEEbPKvjPj
_ZN2OT4cmap13accelerator_t14get_glyph_fromINS_20CmapSubtableFormat12EEEbPKvjPj
_ZN2OT4cmap13accelerator_tC2EP9hb_face_t
_ZN2OT4name13accelerator_tC2EP9hb_face_t
_ZN2OT4post13accelerator_t8cmp_gidsEPKvS3_Pv
_ZN2OT4post13accelerator_tC2EP9hb_face_t
_ZN2OT6Layout4GPOS23position_finish_offsetsEP9hb_font_tP11hb_buffer_t
_ZN2OT6Layout6Common17CoverageFormat2_4INS0_10SmallTypesEE6iter_t8__next__Ev
_ZN2OT6Layout6Common17CoverageFormat2_4INS0_10SmallTypesEE9serializeI17hb_sorted_array_tIKNS_11HBGlyphID16EELPv0EEEbP22hb_serialize_context_tT_
_ZN2OT6Layout6Common8Coverage9serializeI17hb_sorted_array_tIKNS_11HBGlyphID16EELPv0EEEbP22hb_serialize_context_tT_
_ZN2OT6Layout9GPOS_impl9PosLookup21dispatch_recurse_funcINS_21hb_ot_apply_context_tEEENT_8return_tEPS5_j
_ZN2OT6Layout9GSUB_impl11LigatureSetINS0_10SmallTypesEE9serializeEP22hb_serialize_context_t10hb_array_tIKNS_11HBGlyphID16EES7_IKjERSA_
_ZN2OT6Layout9GSUB_impl11SingleSubst9serializeI13hb_zip_iter_tI17hb_sorted_array_tINS_11HBGlyphID16EE10hb_array_tIS6_EELPv0EEEbP22hb_serialize_context_tT_
_ZN2OT6Layout9GSUB_impl11SubstLookup16serialize_singleI17hb_sorted_array_tINS_11HBGlyphID16EE10hb_array_tIS5_ELPv0EEEbP22hb_serialize_context_tjT_T0_
_ZN2OT6Layout9GSUB_impl11SubstLookup18serialize_ligatureEP22hb_serialize_context_tj17hb_sorted_array_tIKNS_11HBGlyphID16EE10hb_array_tIKjES9_IS7_ESB_SC_
_ZN2OT6Layout9GSUB_impl11SubstLookup21dispatch_recurse_funcINS_21hb_ot_apply_context_tEEENT_8return_tEPS5_j
_ZN2OT6Layout9GSUB_impl11SubstLookup21dispatch_recurse_funcINS_27hb_collect_glyphs_context_tEEENT_8return_tEPS5_j
_ZN2OT6Layout9GSUB_impl11SubstLookup27closure_glyphs_recurse_funcEPNS_20hb_closure_context_tEjP8hb_set_tjj
_ZN2OT6Layout9GSUB_impl11SubstLookup29dispatch_closure_recurse_funcEPNS_20hb_closure_context_tEjP8hb_set_tjj
_ZN2OT6Layout9GSUB_impl20SingleSubstFormat2_4INS0_10SmallTypesEE9serializeI13hb_zip_iter_tI17hb_sorted_array_tINS_11HBGlyphID16EE10hb_array_tIS8_EELPv0EEEbP22hb_serialize_context_tT_
_ZN2OT6Layout9GSUB_impl22LigatureSubstFormat1_2INS0_10SmallTypesEE9serializeEP22hb_serialize_context_t17hb_sorted_array_tIKNS_11HBGlyphID16EE10hb_array_tIKjESB_IS9_ESD_SE_
_ZN2OT6Layout9GSUB_impl8LigatureINS0_10SmallTypesEE9serializeI10hb_array_tIKNS_11HBGlyphID16EELPv0EEEbP22hb_serialize_context_tjT_
_ZN2OT6Lookup9serializeEP22hb_serialize_context_tjjj
_ZN2OT7ArrayOfINS_11TableRecordENS_15BinSearchHeaderINS_7IntTypeItLj2EEEEEE9serializeEP22hb_serialize_context_tj
_ZN2OT8GSUBGPOS13accelerator_tINS_6Layout4GPOSEEC2EP9hb_face_t
_ZN2OT8GSUBGPOS13accelerator_tINS_6Layout4GSUBEEC2EP9hb_face_t
_ZN2OT8hmtxvmtxINS_4hmtxENS_4hheaENS_4HVAREE13accelerator_tC2EP9hb_face_t
_ZN2OT8hmtxvmtxINS_4vmtxENS_4vheaENS_4VVAREE13accelerator_tC2EP9hb_face_t
_ZN2OT9glyf_impl14path_builder_t13consume_pointERKNS_15contour_point_tE
_ZN2OT9glyf_impl5GlyphC2E10hb_array_tIKcEj
_ZN30hb_ft_font_funcs_lazy_loader_t6createEv
_ZN30hb_ot_font_funcs_lazy_loader_t6createEv
_ZN34hb_get_glyph_alternates_dispatch_t9_dispatchIN2OT6Layout9GSUB_impl23AlternateSubstFormat1_2INS2_10SmallTypesEEEJRjS7_RPjS9_EEEDTcldtfp_20get_glyph_alternatesspclsr3stdE7forwardIT0_Efp1_EEERKT_11hb_priorityILj1EEDpOSA_
_ZN34hb_ucd_unicode_funcs_lazy_loader_t6createEv
_ZN35hb_glib_unicode_funcs_lazy_loader_t6createEv
_ZN3AAT16LigatureSubtableINS_13ExtendedTypesEE16driver_context_t10transitionEPNS_16StateTableDriverIS1_NS_13LigatureEntryILb1EE9EntryDataEEERKNS_5EntryIS7_EE
_ZN3AAT16LigatureSubtableINS_13ObsoleteTypesEE16driver_context_t10transitionEPNS_16StateTableDriverIS1_vEERKNS_5EntryIvEE
_ZN3AAT16StateTableDriverINS_13ExtendedTypesENS_12Format1EntryILb1EE9EntryDataEE5driveINS_19KerxSubTableFormat1INS_18KerxSubTableHeaderEE16driver_context_tEEEvPT_
_ZN3AAT16StateTableDriverINS_13ExtendedTypesENS_13LigatureEntryILb1EE9EntryDataEE5driveINS_16LigatureSubtableIS1_E16driver_context_tEEEvPT_
_ZN3AAT16StateTableDriverINS_13ExtendedTypesENS_17InsertionSubtableIS1_E9EntryDataEE5driveINS3_16driver_context_tEEEvPT_
_ZN3AAT16StateTableDriverINS_13ExtendedTypesENS_18ContextualSubtableIS1_E9EntryDataEE5driveINS3_16driver_context_tEEEvPT_
_ZN3AAT16StateTableDriverINS_13ExtendedTypesENS_19KerxSubTableFormat4INS_18KerxSubTableHeaderEE9EntryDataEE5driveINS4_16driver_context_tEEEvPT_
_ZN3AAT16StateTableDriverINS_13ExtendedTypesEvE5driveINS_21RearrangementSubtableIS1_E16driver_context_tEEEvPT_
_ZN3AAT16StateTableDriverINS_13ObsoleteTypesENS_17InsertionSubtableIS1_E9EntryDataEE5driveINS3_16driver_context_tEEEvPT_
_ZN3AAT16StateTableDriverINS_13ObsoleteTypesENS_18ContextualSubtableIS1_E9EntryDataEE5driveINS3_16driver_context_tEEEvPT_
_ZN3AAT16StateTableDriverINS_13ObsoleteTypesEvE5driveINS_16LigatureSubtableIS1_E16driver_context_tEEEvPT_
_ZN3AAT16StateTableDriverINS_13ObsoleteTypesEvE5driveINS_19KerxSubTableFormat1IN2OT21KernAATSubTableHeaderEE16driver_context_tEEEvPT_
_ZN3AAT16StateTableDriverINS_13ObsoleteTypesEvE5driveINS_21RearrangementSubtableIS1_E16driver_context_tEEEvPT_
_ZN3AAT17InsertionSubtableINS_13ExtendedTypesEE16driver_context_t10transitionEPNS_16StateTableDriverIS1_NS2_9EntryDataEEERKNS_5EntryIS5_EE
_ZN3AAT17InsertionSubtableINS_13ObsoleteTypesEE16driver_context_t10transitionEPNS_16StateTableDriverIS1_NS2_9EntryDataEEERKNS_5EntryIS5_EE
_ZN3AAT18ContextualSubtableINS_13ExtendedTypesEE16driver_context_t10transitionEPNS_16StateTableDriverIS1_NS2_9EntryDataEEERKNS_5EntryIS5_EE
_ZN3AAT18ContextualSubtableINS_13ObsoleteTypesEE16driver_context_t10transitionEPNS_16StateTableDriverIS1_NS2_9EntryDataEEERKNS_5EntryIS5_EE
_ZN3AAT19KerxSubTableFormat1IN2OT21KernAATSubTableHeaderEE16driver_context_t10transitionEPNS_16StateTableDriverINS_13ObsoleteTypesEvEERKNS_5EntryIvEE
_ZN3AAT19KerxSubTableFormat1INS_18KerxSubTableHeaderEE16driver_context_t10transitionEPNS_16StateTableDriverINS_13ExtendedTypesENS_12Format1EntryILb1EE9EntryDataEEERKNS_5EntryIS8_EE
_ZN3AAT19KerxSubTableFormat4INS_18KerxSubTableHeaderEE16driver_context_t10transitionEPNS_16StateTableDriverINS_13ExtendedTypesENS2_9EntryDataEEERKNS_5EntryIS6_EE
_ZN3AAT21RearrangementSubtableINS_13ExtendedTypesEE16driver_context_t10transitionEPNS_16StateTableDriverIS1_vEERKNS_5EntryIvEE
_ZN3AAT21RearrangementSubtableINS_13ObsoleteTypesEE16driver_context_t10transitionEPNS_16StateTableDriverIS1_vEERKNS_5EntryIvEE
_ZN3AAT22hb_aat_apply_context_t14set_ankr_tableEPKNS_4ankrE
_ZN3AAT22hb_aat_apply_context_tC1EPK18hb_ot_shape_plan_tP9hb_font_tP11hb_buffer_tP9hb_blob_t
_ZN3AAT22hb_aat_apply_context_tC2EPK18hb_ot_shape_plan_tP9hb_font_tP11hb_buffer_tP9hb_blob_t
_ZN3AAT22hb_aat_apply_context_tD1Ev
_ZN3AAT22hb_aat_apply_context_tD2Ev
_ZN3CFF10cs_opset_tINS_8number_tE20cff1_cs_opset_path_tNS_20cff1_cs_interp_env_tE17cff1_path_param_t22cff1_path_procs_path_tE10process_opEjRS3_RS4_
_ZN3CFF10cs_opset_tINS_8number_tE20cff1_cs_opset_seac_tNS_20cff1_cs_interp_env_tE16get_seac_param_tNS_17path_procs_null_tIS3_S4_EEE10process_opEjRS3_RS4_
_ZN3CFF10cs_opset_tINS_8number_tE20cff2_cs_opset_path_tNS_20cff2_cs_interp_env_tIS1_EE17cff2_path_param_t22cff2_path_procs_path_tE10process_opEjRS4_RS5_
_ZN3CFF10cs_opset_tINS_8number_tE23cff1_cs_opset_extents_tNS_20cff1_cs_interp_env_tE20cff1_extents_param_t25cff1_path_procs_extents_tE10process_opEjRS3_RS4_
_ZN3CFF10cs_opset_tINS_8number_tE23cff2_cs_opset_extents_tNS_20cff2_cs_interp_env_tIS1_EE20cff2_extents_param_t25cff2_path_procs_extents_tE10process_opEjRS4_RS5_
_ZN3CFF12dict_opset_t10process_opEjRNS_12interp_env_tINS_8number_tEEE
_ZN3CFF12dict_opset_t9parse_bcdERNS_14byte_str_ref_tE
_ZN3CFF12path_procs_tI22cff1_path_procs_path_tNS_20cff1_cs_interp_env_tE17cff1_path_param_tE10rcurvelineERS2_RS3_
_ZN3CFF12path_procs_tI22cff1_path_procs_path_tNS_20cff1_cs_interp_env_tE17cff1_path_param_tE10rlinecurveERS2_RS3_
_ZN3CFF12path_procs_tI22cff1_path_procs_path_tNS_20cff1_cs_interp_env_tE17cff1_path_param_tE4flexERS2_RS3_
_ZN3CFF12path_procs_tI22cff1_path_procs_path_tNS_20cff1_cs_interp_env_tE17cff1_path_param_tE5flex1ERS2_RS3_
_ZN3CFF12path_procs_tI22cff1_path_procs_path_tNS_20cff1_cs_interp_env_tE17cff1_path_param_tE5hflexERS2_RS3_
_ZN3CFF12path_procs_tI22cff1_path_procs_path_tNS_20cff1_cs_interp_env_tE17cff1_path_param_tE6curve2ERS2_RS3_RKNS_7point_tES9_S9_S9_S9_S9_
_ZN3CFF12path_procs_tI22cff1_path_procs_path_tNS_20cff1_cs_interp_env_tE17cff1_path_param_tE6hflex1ERS2_RS3_
_ZN3CFF12path_procs_tI22cff1_path_procs_path_tNS_20cff1_cs_interp_env_tE17cff1_path_param_tE7hlinetoERS2_RS3_
_ZN3CFF12path_procs_tI22cff1_path_procs_path_tNS_20cff1_cs_interp_env_tE17cff1_path_param_tE7vlinetoERS2_RS3_
_ZN3CFF12path_procs_tI22cff1_path_procs_path_tNS_20cff1_cs_interp_env_tE17cff1_path_param_tE9hhcurvetoERS2_RS3_
_ZN3CFF12path_procs_tI22cff1_path_procs_path_tNS_20cff1_cs_interp_env_tE17cff1_path_param_tE9hvcurvetoERS2_RS3_
_ZN3CFF12path_procs_tI22cff1_path_procs_path_tNS_20cff1_cs_interp_env_tE17cff1_path_param_tE9rrcurvetoERS2_RS3_
_ZN3CFF12path_procs_tI22cff1_path_procs_path_tNS_20cff1_cs_interp_env_tE17cff1_path_param_tE9vhcurvetoERS2_RS3_
_ZN3CFF12path_procs_tI22cff1_path_procs_path_tNS_20cff1_cs_interp_env_tE17cff1_path_param_tE9vvcurvetoERS2_RS3_
_ZN3CFF12path_procs_tI22cff2_path_procs_path_tNS_20cff2_cs_interp_env_tINS_8number_tEEE17cff2_path_param_tE10rcurvelineERS4_RS5_
_ZN3CFF12path_procs_tI22cff2_path_procs_path_tNS_20cff2_cs_interp_env_tINS_8number_tEEE17cff2_path_param_tE10rlinecurveERS4_RS5_
_ZN3CFF12path_procs_tI22cff2_path_procs_path_tNS_20cff2_cs_interp_env_tINS_8number_tEEE17cff2_path_param_tE4flexERS4_RS5_
_ZN3CFF12path_procs_tI22cff2_path_procs_path_tNS_20cff2_cs_interp_env_tINS_8number_tEEE17cff2_path_param_tE5flex1ERS4_RS5_
_ZN3CFF12path_procs_tI22cff2_path_procs_path_tNS_20cff2_cs_interp_env_tINS_8number_tEEE17cff2_path_param_tE5hflexERS4_RS5_
_ZN3CFF12path_procs_tI22cff2_path_procs_path_tNS_20cff2_cs_interp_env_tINS_8number_tEEE17cff2_path_param_tE6hflex1ERS4_RS5_
_ZN3CFF12path_procs_tI22cff2_path_procs_path_tNS_20cff2_cs_interp_env_tINS_8number_tEEE17cff2_path_param_tE7hlinetoERS4_RS5_
_ZN3CFF12path_procs_tI22cff2_path_procs_path_tNS_20cff2_cs_interp_env_tINS_8number_tEEE17cff2_path_param_tE7vlinetoERS4_RS5_
_ZN3CFF12path_procs_tI22cff2_path_procs_path_tNS_20cff2_cs_interp_env_tINS_8number_tEEE17cff2_path_param_tE9hhcurvetoERS4_RS5_
_ZN3CFF12path_procs_tI22cff2_path_procs_path_tNS_20cff2_cs_interp_env_tINS_8number_tEEE17cff2_path_param_tE9hvcurvetoERS4_RS5_
_ZN3CFF12path_procs_tI22cff2_path_procs_path_tNS_20cff2_cs_interp_env_tINS_8number_tEEE17cff2_path_param_tE9rrcurvetoERS4_RS5_
_ZN3CFF12path_procs_tI22cff2_path_procs_path_tNS_20cff2_cs_interp_env_tINS_8number_tEEE17cff2_path_param_tE9vhcurvetoERS4_RS5_
_ZN3CFF12path_procs_tI22cff2_path_procs_path_tNS_20cff2_cs_interp_env_tINS_8number_tEEE17cff2_path_param_tE9vvcurvetoERS4_RS5_
_ZN3CFF12path_procs_tI25cff1_path_procs_extents_tNS_20cff1_cs_interp_env_tE20cff1_extents_param_tE10rcurvelineERS2_RS3_
_ZN3CFF12path_procs_tI25cff1_path_procs_extents_tNS_20cff1_cs_interp_env_tE20cff1_extents_param_tE10rlinecurveERS2_RS3_
_ZN3CFF12path_procs_tI25cff1_path_procs_extents_tNS_20cff1_cs_interp_env_tE20cff1_extents_param_tE4flexERS2_RS3_
_ZN3CFF12path_procs_tI25cff1_path_procs_extents_tNS_20cff1_cs_interp_env_tE20cff1_extents_param_tE5flex1ERS2_RS3_
_ZN3CFF12path_procs_tI25cff1_path_procs_extents_tNS_20cff1_cs_interp_env_tE20cff1_extents_param_tE5hflexERS2_RS3_
_ZN3CFF12path_procs_tI25cff1_path_procs_extents_tNS_20cff1_cs_interp_env_tE20cff1_extents_param_tE6hflex1ERS2_RS3_
_ZN3CFF12path_procs_tI25cff1_path_procs_extents_tNS_20cff1_cs_interp_env_tE20cff1_extents_param_tE7hlinetoERS2_RS3_
_ZN3CFF12path_procs_tI25cff1_path_procs_extents_tNS_20cff1_cs_interp_env_tE20cff1_extents_param_tE7rlinetoERS2_RS3_
_ZN3CFF12path_procs_tI25cff1_path_procs_extents_tNS_20cff1_cs_interp_env_tE20cff1_extents_param_tE7vlinetoERS2_RS3_
_ZN3CFF12path_procs_tI25cff1_path_procs_extents_tNS_20cff1_cs_interp_env_tE20cff1_extents_param_tE9hhcurvetoERS2_RS3_
_ZN3CFF12path_procs_tI25cff1_path_procs_extents_tNS_20cff1_cs_interp_env_tE20cff1_extents_param_tE9hvcurvetoERS2_RS3_
_ZN3CFF12path_procs_tI25cff1_path_procs_extents_tNS_20cff1_cs_interp_env_tE20cff1_extents_param_tE9rrcurvetoERS2_RS3_
_ZN3CFF12path_procs_tI25cff1_path_procs_extents_tNS_20cff1_cs_interp_env_tE20cff1_extents_param_tE9vhcurvetoERS2_RS3_
_ZN3CFF12path_procs_tI25cff1_path_procs_extents_tNS_20cff1_cs_interp_env_tE20cff1_extents_param_tE9vvcurvetoERS2_RS3_
_ZN3CFF12path_procs_tI25cff2_path_procs_extents_tNS_20cff2_cs_interp_env_tINS_8number_tEEE20cff2_extents_param_tE10rcurvelineERS4_RS5_
_ZN3CFF12path_procs_tI25cff2_path_procs_extents_tNS_20cff2_cs_interp_env_tINS_8number_tEEE20cff2_extents_param_tE10rlinecurveERS4_RS5_
_ZN3CFF12path_procs_tI25cff2_path_procs_extents_tNS_20cff2_cs_interp_env_tINS_8number_tEEE20cff2_extents_param_tE4flexERS4_RS5_
_ZN3CFF12path_procs_tI25cff2_path_procs_extents_tNS_20cff2_cs_interp_env_tINS_8number_tEEE20cff2_extents_param_tE5flex1ERS4_RS5_
_ZN3CFF12path_procs_tI25cff2_path_procs_extents_tNS_20cff2_cs_interp_env_tINS_8number_tEEE20cff2_extents_param_tE5hflexERS4_RS5_
_ZN3CFF12path_procs_tI25cff2_path_procs_extents_tNS_20cff2_cs_interp_env_tINS_8number_tEEE20cff2_extents_param_tE6hflex1ERS4_RS5_
_ZN3CFF12path_procs_tI25cff2_path_procs_extents_tNS_20cff2_cs_interp_env_tINS_8number_tEEE20cff2_extents_param_tE7hlinetoERS4_RS5_
_ZN3CFF12path_procs_tI25cff2_path_procs_extents_tNS_20cff2_cs_interp_env_tINS_8number_tEEE20cff2_extents_param_tE7rlinetoERS4_RS5_
_ZN3CFF12path_procs_tI25cff2_path_procs_extents_tNS_20cff2_cs_interp_env_tINS_8number_tEEE20cff2_extents_param_tE7vlinetoERS4_RS5_
_ZN3CFF12path_procs_tI25cff2_path_procs_extents_tNS_20cff2_cs_interp_env_tINS_8number_tEEE20cff2_extents_param_tE9hhcurvetoERS4_RS5_
_ZN3CFF12path_procs_tI25cff2_path_procs_extents_tNS_20cff2_cs_interp_env_tINS_8number_tEEE20cff2_extents_param_tE9hvcurvetoERS4_RS5_
_ZN3CFF12path_procs_tI25cff2_path_procs_extents_tNS_20cff2_cs_interp_env_tINS_8number_tEEE20cff2_extents_param_tE9rrcurvetoERS4_RS5_
_ZN3CFF12path_procs_tI25cff2_path_procs_extents_tNS_20cff2_cs_interp_env_tINS_8number_tEEE20cff2_extents_param_tE9vhcurvetoERS4_RS5_
_ZN3CFF12path_procs_tI25cff2_path_procs_extents_tNS_20cff2_cs_interp_env_tINS_8number_tEEE20cff2_extents_param_tE9vvcurvetoERS4_RS5_
_ZN3CFF15cff2_cs_opset_tI20cff2_cs_opset_path_t17cff2_path_param_tNS_8number_tE22cff2_path_procs_path_tE10process_opEjRNS_20cff2_cs_interp_env_tIS3_EERS2_
_ZN3CFF15cff2_cs_opset_tI20cff2_cs_opset_path_t17cff2_path_param_tNS_8number_tE22cff2_path_procs_path_tE13process_blendERNS_20cff2_cs_interp_env_tIS3_EERS2_
_ZN3CFF15cff2_cs_opset_tI23cff2_cs_opset_extents_t20cff2_extents_param_tNS_8number_tE25cff2_path_procs_extents_tE10process_opEjRNS_20cff2_cs_interp_env_tIS3_EERS2_
_ZN3CFF15cff2_cs_opset_tI23cff2_cs_opset_extents_t20cff2_extents_param_tNS_8number_tE25cff2_path_procs_extents_tE13process_blendERNS_20cff2_cs_interp_env_tIS3_EERS2_
_ZN3CFF15cs_interp_env_tINS_8number_tENS_5SubrsIN2OT7IntTypeIjLj4EEEEEE9call_subrERKNS_14biased_subrs_tIS6_EENS_9cs_type_tE
_ZN3CFF15cs_interp_env_tINS_8number_tENS_5SubrsIN2OT7IntTypeItLj2EEEEEE9call_subrERKNS_14biased_subrs_tIS6_EENS_9cs_type_tE
_ZN3CFF15parsed_values_tINS_8op_str_tEE6add_opEjRKNS_14byte_str_ref_tE
_ZN3CFF16cs_interpreter_tINS_20cff1_cs_interp_env_tE20cff1_cs_opset_seac_t16get_seac_param_tE9interpretERS3_
_ZN3CFF16cs_interpreter_tINS_20cff2_cs_interp_env_tINS_8number_tEEE20cff2_cs_opset_path_t17cff2_path_param_tE9interpretERS5_
_ZN3CFF16cs_interpreter_tINS_20cff2_cs_interp_env_tINS_8number_tEEE23cff2_cs_opset_extents_t20cff2_extents_param_tE9interpretERS5_
_ZN3CFF18dict_interpreter_tINS_21cff1_top_dict_opset_tENS_22cff1_top_dict_values_tENS_26cff1_top_dict_interp_env_tEE9interpretERS2_
_ZN3CFF18dict_interpreter_tINS_21cff2_top_dict_opset_tENS_22cff2_top_dict_values_tENS_12interp_env_tINS_8number_tEEEE9interpretERS2_
_ZN3CFF18dict_interpreter_tINS_22cff1_font_dict_opset_tENS_23cff1_font_dict_values_tENS_12interp_env_tINS_8number_tEEEE9interpretERS2_
_ZN3CFF18dict_interpreter_tINS_22cff2_font_dict_opset_tENS_23cff2_font_dict_values_tENS_12interp_env_tINS_8number_tEEEE9interpretERS2_
_ZN3CFF18dict_interpreter_tINS_25cff1_private_dict_opset_tENS_31cff1_private_dict_values_base_tINS_10dict_val_tEEENS_12interp_env_tINS_8number_tEEEE9interpretERS4_
_ZN3CFF18dict_interpreter_tINS_25cff2_private_dict_opset_tENS_31cff2_private_dict_values_base_tINS_10dict_val_tEEENS_27cff2_priv_dict_interp_env_tEE9interpretERS4_
_ZN3CFF20cff2_cs_interp_env_tINS_8number_tEE13process_blendEv
_ZN3CFF21cff1_top_dict_opset_t10process_opEjRNS_26cff1_top_dict_interp_env_tERNS_22cff1_top_dict_values_tE
_ZN3CFF21cff2_top_dict_opset_t10process_opEjRNS_12interp_env_tINS_8number_tEEERNS_22cff2_top_dict_values_tE
_ZN3CFF22cff1_font_dict_opset_t10process_opEjRNS_12interp_env_tINS_8number_tEEERNS_23cff1_font_dict_values_tE
_ZN3CFF25cff1_private_dict_opset_t10process_opEjRNS_12interp_env_tINS_8number_tEEERNS_31cff1_private_dict_values_base_tINS_10dict_val_tEEE
_ZN3CFF25cff2_private_dict_opset_t10process_opEjRNS_27cff2_priv_dict_interp_env_tERNS_31cff2_private_dict_values_base_tINS_10dict_val_tEEE
_ZN3CFF7opset_tINS_8number_tEE10process_opEjRNS_12interp_env_tIS1_EE
_ZN9hb_blob_t17try_make_writableEv
_ZN9hb_blob_t25try_make_writable_inplaceEv
_ZN9hb_blob_t30try_make_writable_inplace_unixEv
_ZN9hb_font_t12has_func_setEj
_ZN9hb_font_t13mults_changedEv
_ZN9hb_font_t17glyph_from_stringEPKciPj
_ZN9hb_font_t32get_glyph_h_origin_with_fallbackEjPiS0_
_ZN9hb_font_t32get_glyph_v_origin_with_fallbackEjPiS0_
_ZN9hb_font_t34get_glyph_contour_point_for_originEjj14hb_direction_tPiS1_
_ZN9hb_font_t8has_funcEj
_ZN9hb_pool_tIN22hb_serialize_context_t8object_tELj16EE7chunk_t6threadEv
_ZN9hb_sink_tIR8hb_set_tEclI13hb_map_iter_tIN2OT6Layout6Common8Coverage6iter_tEZNKS6_9GSUB_impl20SingleSubstFormat1_3INS6_10SmallTypesEE14collect_glyphsEPNS5_27hb_collect_glyphs_context_tEEUljE_L24hb_function_sortedness_t0ELPv0EELSI_0EEEvT_
_ZN9hb_utf8_t4nextEPKhS1_Pjj
_ZNK10hb_array_tIKhE8sanitizeI21hb_sanitize_context_tEEbPT_
_ZNK11hb_ot_map_t10substituteEPK18hb_ot_shape_plan_tP9hb_font_tP11hb_buffer_t
_ZNK11hb_ot_map_t15collect_lookupsEjP8hb_set_t
_ZNK11hb_ot_map_t5applyI9GPOSProxyEEvRKT_PK18hb_ot_shape_plan_tP9hb_font_tP11hb_buffer_t
_ZNK11hb_ot_map_t5applyI9GSUBProxyEEvRKT_PK18hb_ot_shape_plan_tP9hb_font_tP11hb_buffer_t
_ZNK11hb_ot_map_t8positionEPK18hb_ot_shape_plan_tP9hb_font_tP11hb_buffer_t
_ZNK12hb_bit_set_t14previous_rangeEPjS0_
_ZNK12hb_bit_set_t18next_many_invertedEjPjj
_ZNK12hb_bit_set_t4nextEPj
_ZNK12hb_bit_set_t7get_maxEv
_ZNK12hb_bit_set_t7get_minEv
_ZNK12hb_bit_set_t8is_equalERKS_
_ZNK12hb_bit_set_t8previousEPj
_ZNK12hb_bit_set_t9is_subsetERKS_
_ZNK12hb_bit_set_t9next_manyEjPjj
_ZNK12hb_hashmap_tIPKN22hb_serialize_context_t8object_tEjLb0EE15bucket_for_hashERKS3_j
_ZNK12hb_hashmap_tIPKN22hb_serialize_context_t8object_tEjLb0EE3getES3_
_ZNK12hb_hashmap_tIjjLb1EE8is_equalERKS0_
_ZNK14hb_sparseset_tI23hb_bit_set_invertible_tE10next_rangeEPjS2_
_ZNK14hb_sparseset_tI23hb_bit_set_invertible_tE4nextEPj
_ZNK14hb_sparseset_tI23hb_bit_set_invertible_tE8is_equalERKS1_
_ZNK14hb_sparseset_tI23hb_bit_set_invertible_tE8previousEPj
_ZNK14hb_sparseset_tI23hb_bit_set_invertible_tE9is_subsetERKS1_
_ZNK16hb_lazy_loader_tI17hb_ot_face_data_t23hb_shaper_lazy_loader_tI9hb_face_tLj1ES0_ES2_Lj1ES0_EcvbEv
_ZNK16hb_lazy_loader_tI23hb_fallback_face_data_t23hb_shaper_lazy_loader_tI9hb_face_tLj2ES0_ES2_Lj2ES0_EcvbEv
_ZNK16hb_lazy_loader_tIN2OT17SVG_accelerator_tE21hb_face_lazy_loader_tIS1_Lj38EE9hb_face_tLj38ES1_E3getEv
_ZNK16hb_lazy_loader_tIN2OT18GPOS_accelerator_tE21hb_face_lazy_loader_tIS1_Lj25EE9hb_face_tLj25ES1_E3getEv
_ZNK16hb_lazy_loader_tIN2OT18GSUB_accelerator_tE21hb_face_lazy_loader_tIS1_Lj24EE9hb_face_tLj24ES1_E3getEv
_ZNK16hb_lazy_loader_tIN2OT18gvar_accelerator_tE21hb_face_lazy_loader_tIS1_Lj20EE9hb_face_tLj20ES1_E3getEv
_ZNK16hb_lazy_loader_tIN2OT18hmtx_accelerator_tE21hb_face_lazy_loader_tIS1_Lj5EE9hb_face_tLj5ES1_E3getEv
_ZNK16hb_lazy_loader_tIN2OT18meta_accelerator_tE21hb_face_lazy_loader_tIS1_Lj10EE9hb_face_tLj10ES1_E3getEv
_ZNK16hb_lazy_loader_tIN2OT18name_accelerator_tE21hb_face_lazy_loader_tIS1_Lj8EE9hb_face_tLj8ES1_E3getEv
_ZNK16hb_lazy_loader_tIN2OT18post_accelerator_tE21hb_face_lazy_loader_tIS1_Lj7EE9hb_face_tLj7ES1_E3getEv
_ZNK16hb_lazy_loader_tIN2OT18sbix_accelerator_tE21hb_face_lazy_loader_tIS1_Lj37EE9hb_face_tLj37ES1_E3getEv
_ZNK16hb_lazy_loader_tIN2OT18vmtx_accelerator_tE21hb_face_lazy_loader_tIS1_Lj12EE9hb_face_tLj12ES1_E3getEv
_ZNK16hb_lazy_loader_tIN2OT3OS2E22hb_table_lazy_loader_tIS1_Lj6ELb0EE9hb_face_tLj6E9hb_blob_tE3getEv
_ZNK16hb_lazy_loader_tIN2OT4BASEE22hb_table_lazy_loader_tIS1_Lj26ELb0EE9hb_face_tLj26E9hb_blob_tE3getEv
_ZNK16hb_lazy_loader_tIN2OT4COLRE22hb_table_lazy_loader_tIS1_Lj34ELb0EE9hb_face_tLj34E9hb_blob_tE3getEv
_ZNK16hb_lazy_loader_tIN2OT4CPALE22hb_table_lazy_loader_tIS1_Lj35ELb0EE9hb_face_tLj35E9hb_blob_tE3getEv
_ZNK16hb_lazy_loader_tIN2OT4MATHE22hb_table_lazy_loader_tIS1_Lj39ELb0EE9hb_face_tLj39E9hb_blob_tE3getEv
_ZNK16hb_lazy_loader_tIN2OT4MVARE22hb_table_lazy_loader_tIS1_Lj21ELb0EE9hb_face_tLj21E9hb_blob_tE3getEv
_ZNK16hb_lazy_loader_tIN2OT4STATE22hb_table_lazy_loader_tIS1_Lj9ELb0EE9hb_face_tLj9E9hb_blob_tE3getEv
_ZNK16hb_lazy_loader_tIN2OT4VORGE22hb_table_lazy_loader_tIS1_Lj13ELb0EE9hb_face_tLj13E9hb_blob_tE3getEv
_ZNK16hb_lazy_loader_tIN2OT4avarE22hb_table_lazy_loader_tIS1_Lj19ELb0EE9hb_face_tLj19E9hb_blob_tE3getEv
_ZNK16hb_lazy_loader_tIN2OT4fvarE22hb_table_lazy_loader_tIS1_Lj18ELb0EE9hb_face_tLj18E9hb_blob_tE3getEv
_ZNK16hb_lazy_loader_tIN2OT4headE22hb_table_lazy_loader_tIS1_Lj1ELb1EE9hb_face_tLj1E9hb_blob_tE3getEv
_ZNK16hb_lazy_loader_tIN2OT4hheaE22hb_table_lazy_loader_tIS1_Lj4ELb0EE9hb_face_tLj4E9hb_blob_tE3getEv
_ZNK16hb_lazy_loader_tIN2OT4kernE22hb_table_lazy_loader_tIS1_Lj22ELb0EE9hb_face_tLj22E9hb_blob_tE3getEv
_ZNK16hb_lazy_loader_tIN2OT4maxpE22hb_table_lazy_loader_tIS1_Lj2ELb1EE9hb_face_tLj2E9hb_blob_tE3getEv
_ZNK16hb_lazy_loader_tIN2OT4vheaE22hb_table_lazy_loader_tIS1_Lj11ELb0EE9hb_face_tLj11E9hb_blob_tE3getEv
_ZNK16hb_lazy_loader_tIN3AAT4ankrE22hb_table_lazy_loader_tIS1_Lj30ELb0EE9hb_face_tLj30E9hb_blob_tE3getEv
_ZNK16hb_lazy_loader_tIN3AAT4featE22hb_table_lazy_loader_tIS1_Lj33ELb0EE9hb_face_tLj33E9hb_blob_tE3getEv
_ZNK16hb_lazy_loader_tIN3AAT4kerxE22hb_table_lazy_loader_tIS1_Lj29ELb0EE9hb_face_tLj29E9hb_blob_tE3getEv
_ZNK16hb_lazy_loader_tIN3AAT4ltagE22hb_table_lazy_loader_tIS1_Lj32ELb0EE9hb_face_tLj32E9hb_blob_tE3getEv
_ZNK16hb_lazy_loader_tIN3AAT4mortE22hb_table_lazy_loader_tIS1_Lj28ELb0EE9hb_face_tLj28E9hb_blob_tE3getEv
_ZNK16hb_lazy_loader_tIN3AAT4morxE22hb_table_lazy_loader_tIS1_Lj27ELb0EE9hb_face_tLj27E9hb_blob_tE3getEv
_ZNK16hb_lazy_loader_tIN3AAT4trakE22hb_table_lazy_loader_tIS1_Lj31ELb0EE9hb_face_tLj31E9hb_blob_tE3getEv
_ZNK18hb_ot_shape_plan_t10substituteEP9hb_font_tP11hb_buffer_t
_ZNK18hb_ot_shape_plan_t8positionEP9hb_font_tP11hb_buffer_t
_ZNK22hb_table_lazy_loader_tIN2OT4kernELj22ELb0EE8get_blobEv
_ZNK22hb_table_lazy_loader_tIN2OT4locaELj14ELb1EE8get_blobEv
_ZNK22hb_table_lazy_loader_tIN3AAT4kerxELj29ELb0EE8get_blobEv
_ZNK22hb_table_lazy_loader_tIN3AAT4mortELj28ELb0EE8get_blobEv
_ZNK22hb_table_lazy_loader_tIN3AAT4morxELj27ELb0EE8get_blobEv
_ZNK23hb_bit_set_invertible_t10intersectsEjj
_ZNK23hb_bit_set_invertible_t14get_populationEv
_ZNK23hb_bit_set_invertible_t14previous_rangeEPjS0_
_ZNK23hb_bit_set_invertible_t7get_maxEv
_ZNK23hb_bit_set_invertible_t7get_minEv
_ZNK23hb_bit_set_invertible_t8is_emptyEv
_ZNK23hb_bit_set_invertible_t8previousEPj
_ZNK2OT10AttachList17get_attach_pointsEjjPjS1_
_ZNK2OT10AttachList8sanitizeEP21hb_sanitize_context_t
_ZNK2OT10BaseScript8sanitizeEP21hb_sanitize_context_t
_ZNK2OT10CPALV1Tail8sanitizeEP21hb_sanitize_context_tPKvjj
_ZNK2OT10CaretValue15get_caret_valueEP9hb_font_t14hb_direction_tjRKNS_14VariationStoreE
_ZNK2OT10CaretValue8sanitizeEP21hb_sanitize_context_t
_ZNK2OT10NameRecord8languageEP9hb_face_t
_ZNK2OT10PaintScale8sanitizeEP21hb_sanitize_context_t
_ZNK2OT10SBIXStrike14get_glyph_blobEjP9hb_blob_tjPiS3_jPj
_ZNK2OT11PaintRotate8sanitizeEP21hb_sanitize_context_t
_ZNK2OT11SegmentMaps3mapEijj
_ZNK2OT12ChainContext8dispatchI21hb_sanitize_context_tJEEENT_8return_tEPS3_DpOT0_
_ZNK2OT12ChainContext8dispatchINS_21hb_ot_apply_context_tEJEEENT_8return_tEPS3_DpOT0_
_ZNK2OT12ChainContext8dispatchINS_24hb_would_apply_context_tEJEEENT_8return_tEPS3_DpOT0_
_ZNK2OT12ChainContext8dispatchINS_33hb_accelerate_subtables_context_tEJEEENT_8return_tEPS3_DpOT0_
_ZNK2OT12ChainRuleSetINS_6Layout10SmallTypesEE5applyEPNS_21hb_ot_apply_context_tERNS_30ChainContextApplyLookupContextE
_ZNK2OT12ChainRuleSetINS_6Layout10SmallTypesEE7closureEPNS_20hb_closure_context_tEjRNS_32ChainContextClosureLookupContextE
_ZNK2OT12CmapSubtable16collect_unicodesEP8hb_set_tj
_ZNK2OT12CmapSubtable8sanitizeEP21hb_sanitize_context_t
_ZNK2OT12CmapSubtable9get_glyphEjPj
_ZNK2OT12KernSubTableINS_20KernOTSubTableHeaderEE8dispatchI21hb_sanitize_context_tJEEENT_8return_tEPS5_DpOT0_
_ZNK2OT12KernSubTableINS_20KernOTSubTableHeaderEE8dispatchIN3AAT22hb_aat_apply_context_tEJEEENT_8return_tEPS6_DpOT0_
_ZNK2OT12KernSubTableINS_21KernAATSubTableHeaderEE8dispatchI21hb_sanitize_context_tJEEENT_8return_tEPS5_DpOT0_
_ZNK2OT12KernSubTableINS_21KernAATSubTableHeaderEE8dispatchIN3AAT22hb_aat_apply_context_tEJEEENT_8return_tEPS6_DpOT0_
_ZNK2OT12LigCaretList14get_lig_caretsEP9hb_font_t14hb_direction_tjRKNS_14VariationStoreEjPjPi
_ZNK2OT12MathVariants18get_glyph_variantsEj14hb_direction_tP9hb_font_tjPjP26hb_ot_math_glyph_variant_t
_ZNK2OT12MathVariants8sanitizeEP21hb_sanitize_context_t
_ZNK2OT13FeatureParams8sanitizeEP21hb_sanitize_context_tj
_ZNK2OT13IndexSubtable14get_image_dataEjPjS1_S1_
_ZNK2OT13IndexSubtable8sanitizeEP21hb_sanitize_context_tj
_ZNK2OT13MathConstants8sanitizeEP21hb_sanitize_context_t
_ZNK2OT13MathConstants9get_valueE21hb_ot_math_constant_tP9hb_font_t
_ZNK2OT13MathGlyphInfo8sanitizeEP21hb_sanitize_context_t
_ZNK2OT13VarRegionList8evaluateEjPKijPf
_ZNK2OT14BaseScriptList15get_base_scriptEj
_ZNK2OT14ContextFormat314collect_glyphsEPNS_27hb_collect_glyphs_context_tE
_ZNK2OT14ContextFormat37closureEPNS_20hb_closure_context_tE
_ZNK2OT14ContextFormat38sanitizeEP21hb_sanitize_context_t
_ZNK2OT14GDEFVersion1_2INS_6Layout10SmallTypesEE8sanitizeEP21hb_sanitize_context_t
_ZNK2OT14PaintTranslate8sanitizeEP21hb_sanitize_context_t
_ZNK2OT14ResourceRecord8sanitizeEP21hb_sanitize_context_tPKv
_ZNK2OT14UnsizedArrayOfIN3AAT11FeatureNameEE8sanitizeIJPKNS1_4featEEEEbP21hb_sanitize_context_tjDpOT_
_ZNK2OT14UnsizedArrayOfIN3AAT15TrackTableEntryEE8sanitizeIJRPKvRKNS_7IntTypeItLj2EEEEEEbP21hb_sanitize_context_tjDpOT_
_ZNK2OT14UnsizedArrayOfINS_10NameRecordEE8sanitizeIJRPKvEEEbP21hb_sanitize_context_tjDpOT_
_ZNK2OT14UnsizedArrayOfINS_8OffsetToINS_7ArrayOfIN3AAT6AnchorENS_7IntTypeIjLj4EEEEENS5_ItLj2EEELb0EEEE8sanitizeIJRPKvEEEbP21hb_sanitize_context_tjDpOT_
_ZNK2OT14UnsizedArrayOfINS_8OffsetToINS_9AxisValueENS_7IntTypeItLj2EEELb1EEEE8sanitizeIJPKNS_20AxisValueOffsetArrayEEEEbP21hb_sanitize_context_tjDpOT_
_ZNK2OT14VariationStore18get_region_scalarsEjPKijPfj
_ZNK2OT16ContextFormat1_4INS_6Layout10SmallTypesEE11would_applyEPNS_24hb_would_apply_context_tE
_ZNK2OT16ContextFormat1_4INS_6Layout10SmallTypesEE7closureEPNS_20hb_closure_context_tE
_ZNK2OT16ContextFormat1_4INS_6Layout10SmallTypesEE8sanitizeEP21hb_sanitize_context_t
_ZNK2OT16ContextFormat2_5INS_6Layout10SmallTypesEE11would_applyEPNS_24hb_would_apply_context_tE
_ZNK2OT16ContextFormat2_5INS_6Layout10SmallTypesEE5applyEPNS_21hb_ot_apply_context_tEb
_ZNK2OT16ContextFormat2_5INS_6Layout10SmallTypesEE7closureEPNS_20hb_closure_context_tE
_ZNK2OT16ContextFormat2_5INS_6Layout10SmallTypesEE8sanitizeEP21hb_sanitize_context_t
_ZNK2OT16DeltaSetIndexMap3mapEj
_ZNK2OT16DeltaSetIndexMap8sanitizeEP21hb_sanitize_context_t
_ZNK2OT16ExtensionFormat1INS_6Layout9GPOS_impl12ExtensionPosEE8dispatchI21hb_sanitize_context_tJEEENT_8return_tEPS7_DpOT0_
_ZNK2OT16ExtensionFormat1INS_6Layout9GPOS_impl12ExtensionPosEE8dispatchINS_21hb_ot_apply_context_tEJEEENT_8return_tEPS7_DpOT0_
_ZNK2OT16ExtensionFormat1INS_6Layout9GPOS_impl12ExtensionPosEE8dispatchINS_27hb_collect_glyphs_context_tEJEEENT_8return_tEPS7_DpOT0_
_ZNK2OT16ExtensionFormat1INS_6Layout9GPOS_impl12ExtensionPosEE8dispatchINS_29hb_collect_coverage_context_tI24hb_set_digest_combiner_tI28hb_set_digest_bits_pattern_tImLj4EES7_IS8_ImLj0EES8_ImLj9EEEEEEJEEENT_8return_tEPSF_DpOT0_
_ZNK2OT16ExtensionFormat1INS_6Layout9GPOS_impl12ExtensionPosEE8dispatchINS_33hb_accelerate_subtables_context_tEJEEENT_8return_tEPS7_DpOT0_
_ZNK2OT16ExtensionFormat1INS_6Layout9GSUB_impl14ExtensionSubstEE8dispatchI21hb_sanitize_context_tJEEENT_8return_tEPS7_DpOT0_
_ZNK2OT16ExtensionFormat1INS_6Layout9GSUB_impl14ExtensionSubstEE8dispatchI34hb_get_glyph_alternates_dispatch_tJRjS7_RPjS9_EEENT_8return_tEPSA_DpOT0_
_ZNK2OT16ExtensionFormat1INS_6Layout9GSUB_impl14ExtensionSubstEE8dispatchINS_20hb_closure_context_tEJEEENT_8return_tEPS7_DpOT0_
_ZNK2OT16ExtensionFormat1INS_6Layout9GSUB_impl14ExtensionSubstEE8dispatchINS_21hb_ot_apply_context_tEJEEENT_8return_tEPS7_DpOT0_
_ZNK2OT16ExtensionFormat1INS_6Layout9GSUB_impl14ExtensionSubstEE8dispatchINS_24hb_would_apply_context_tEJEEENT_8return_tEPS7_DpOT0_
_ZNK2OT16ExtensionFormat1INS_6Layout9GSUB_impl14ExtensionSubstEE8dispatchINS_26hb_have_non_1to1_context_tEJEEENT_8return_tEPS7_DpOT0_
_ZNK2OT16ExtensionFormat1INS_6Layout9GSUB_impl14ExtensionSubstEE8dispatchINS_27hb_collect_glyphs_context_tEJEEENT_8return_tEPS7_DpOT0_
_ZNK2OT16ExtensionFormat1INS_6Layout9GSUB_impl14ExtensionSubstEE8dispatchINS_29hb_collect_coverage_context_tI24hb_set_digest_combiner_tI28hb_set_digest_bits_pattern_tImLj4EES7_IS8_ImLj0EES8_ImLj9EEEEEEJEEENT_8return_tEPSF_DpOT0_
_ZNK2OT16ExtensionFormat1INS_6Layout9GSUB_impl14ExtensionSubstEE8dispatchINS_33hb_accelerate_subtables_context_tEJEEENT_8return_tEPS7_DpOT0_
_ZNK2OT16FeatMinMaxRecord8sanitizeEP21hb_sanitize_context_tPKv
_ZNK2OT16OpenTypeFontFile14get_face_countEv
_ZNK2OT16OpenTypeFontFile8get_faceEjPj
_ZNK2OT16OpenTypeFontFile8sanitizeEP21hb_sanitize_context_t
_ZNK2OT17CaretValueFormat215get_caret_valueEP9hb_font_t14hb_direction_tj
_ZNK2OT17ClassDefFormat1_3INS_6Layout10SmallTypesEE16collect_coverageI8hb_set_tEEbPT_
_ZNK2OT17ClassDefFormat1_3INS_6Layout10SmallTypesEE16intersects_classEPK8hb_set_tt
_ZNK2OT17ClassDefFormat1_3INS_6Layout10SmallTypesEE24intersected_class_glyphsEPK8hb_set_tjPS4_
_ZNK2OT17ClassDefFormat2_4INS_6Layout10SmallTypesEE13collect_classI8hb_set_tEEbPT_j
_ZNK2OT17ClassDefFormat2_4INS_6Layout10SmallTypesEE16collect_coverageI8hb_set_tEEbPT_
_ZNK2OT17ClassDefFormat2_4INS_6Layout10SmallTypesEE16intersects_classEPK8hb_set_tt
_ZNK2OT17ClassDefFormat2_4INS_6Layout10SmallTypesEE24intersected_class_glyphsEPK8hb_set_tjPS4_
_ZNK2OT17FeatureParamsSize8sanitizeEP21hb_sanitize_context_t
_ZNK2OT17FeatureVariations10find_indexEPKijPj
_ZNK2OT17MathGlyphAssembly8sanitizeEP21hb_sanitize_context_t
_ZNK2OT17MathGlyphAssembly9get_partsE14hb_direction_tP9hb_font_tjPjP23hb_ot_math_glyph_part_tPi
_ZNK2OT17PaintScaleUniform8sanitizeEP21hb_sanitize_context_t
_ZNK2OT17hb_kern_machine_tI34hb_ot_shape_fallback_kern_driver_tE4kernEP9hb_font_tP11hb_buffer_tjb
_ZNK2OT17hb_kern_machine_tIN3AAT19KerxSubTableFormat0INS1_18KerxSubTableHeaderEE13accelerator_tEE4kernEP9hb_font_tP11hb_buffer_tjb
_ZNK2OT17hb_kern_machine_tIN3AAT19KerxSubTableFormat0INS_20KernOTSubTableHeaderEE13accelerator_tEE4kernEP9hb_font_tP11hb_buffer_tjb
_ZNK2OT17hb_kern_machine_tIN3AAT19KerxSubTableFormat0INS_21KernAATSubTableHeaderEE13accelerator_tEE4kernEP9hb_font_tP11hb_buffer_tjb
_ZNK2OT17hb_kern_machine_tIN3AAT19KerxSubTableFormat2INS1_18KerxSubTableHeaderEE13accelerator_tEE4kernEP9hb_font_tP11hb_buffer_tjb
_ZNK2OT17hb_kern_machine_tIN3AAT19KerxSubTableFormat2INS_20KernOTSubTableHeaderEE13accelerator_tEE4kernEP9hb_font_tP11hb_buffer_tjb
_ZNK2OT17hb_kern_machine_tIN3AAT19KerxSubTableFormat2INS_21KernAATSubTableHeaderEE13accelerator_tEE4kernEP9hb_font_tP11hb_buffer_tjb
_ZNK2OT17hb_kern_machine_tIN3AAT19KerxSubTableFormat6INS1_18KerxSubTableHeaderEE13accelerator_tEE4kernEP9hb_font_tP11hb_buffer_tjb
_ZNK2OT17hb_kern_machine_tINS_19KernSubTableFormat3INS_21KernAATSubTableHeaderEEEE4kernEP9hb_font_tP11hb_buffer_tjb
_ZNK2OT18GSUBGPOSVersion1_2INS_6Layout10SmallTypesEE8sanitizeINS1_9GPOS_impl9PosLookupEEEbP21hb_sanitize_context_t
_ZNK2OT18GSUBGPOSVersion1_2INS_6Layout10SmallTypesEE8sanitizeINS1_9GSUB_impl11SubstLookupEEEbP21hb_sanitize_context_t
_ZNK2OT18ResourceForkHeader8get_faceEjPj
_ZNK2OT18ResourceForkHeader8sanitizeEP21hb_sanitize_context_t
_ZNK2OT18ResourceTypeRecord8sanitizeEP21hb_sanitize_context_tPKvS4_
_ZNK2OT18glyf_accelerator_t10get_pointsINS0_19points_aggregator_tEEEbP9hb_font_tjT_
_ZNK2OT18glyf_accelerator_t10get_pointsINS_9glyf_impl14path_builder_tEEEbP9hb_font_tjT_
_ZNK2OT18glyf_accelerator_t13glyph_for_gidEjb
_ZNK2OT18glyf_accelerator_t29get_advance_with_var_unscaledEP9hb_font_tjb
_ZNK2OT19ChainContextFormat311would_applyEPNS_24hb_would_apply_context_tE
_ZNK2OT19ChainContextFormat314collect_glyphsEPNS_27hb_collect_glyphs_context_tE
_ZNK2OT19ChainContextFormat35applyEPNS_21hb_ot_apply_context_tE
_ZNK2OT19ChainContextFormat37closureEPNS_20hb_closure_context_tE
_ZNK2OT19ChainContextFormat38sanitizeEP21hb_sanitize_context_t
_ZNK2OT19CmapSubtableFormat413accelerator_t16collect_unicodesEP8hb_set_t
_ZNK2OT19CmapSubtableFormat413accelerator_t9get_glyphEjPj
_ZNK2OT19CmapSubtableFormat49get_glyphEjPj
_ZNK2OT19IndexSubtableRecord8sanitizeEP21hb_sanitize_context_tPKv
_ZNK2OT20BaseGlyphPaintRecord8sanitizeEP21hb_sanitize_context_tPKv
_ZNK2OT20TupleVariationHeader16calculate_scalarE10hb_array_tIiEjS1_IKNS_7F2DOT14EE
_ZNK2OT21ChainContextFormat1_4INS_6Layout10SmallTypesEE14collect_glyphsEPNS_27hb_collect_glyphs_context_tE
_ZNK2OT21ChainContextFormat1_4INS_6Layout10SmallTypesEE7closureEPNS_20hb_closure_context_tE
_ZNK2OT21ChainContextFormat2_5INS_6Layout10SmallTypesEE11would_applyEPNS_24hb_would_apply_context_tE
_ZNK2OT21ChainContextFormat2_5INS_6Layout10SmallTypesEE14collect_glyphsEPNS_27hb_collect_glyphs_context_tE
_ZNK2OT21ChainContextFormat2_5INS_6Layout10SmallTypesEE5applyEPNS_21hb_ot_apply_context_tEb
_ZNK2OT21ChainContextFormat2_5INS_6Layout10SmallTypesEE7closureEPNS_20hb_closure_context_tE
_ZNK2OT21ChainContextFormat2_5INS_6Layout10SmallTypesEE8sanitizeEP21hb_sanitize_context_t
_ZNK2OT21MathGlyphConstruction8sanitizeEP21hb_sanitize_context_t
_ZNK2OT21PaintSkewAroundCenter8sanitizeEP21hb_sanitize_context_t
_ZNK2OT21hb_ot_apply_context_t13replace_glyphEj
_ZNK2OT21hb_ot_apply_context_t21match_properties_markEjjj
_ZNK2OT21hb_ot_apply_context_t21replace_glyph_inplaceEj
_ZNK2OT21hb_ot_apply_context_t26output_glyph_for_componentEjj
_ZNK2OT21hb_ot_apply_context_t27replace_glyph_with_ligatureEjj
_ZNK2OT22PaintScaleAroundCenter8sanitizeEP21hb_sanitize_context_t
_ZNK2OT23IndexSubtableFormat1Or3INS_7IntTypeIjLj4EEEE14get_image_dataEjPjS4_
_ZNK2OT23MathTopAccentAttachment9get_valueEjP9hb_font_t
_ZNK2OT23PaintRotateAroundCenter8sanitizeEP21hb_sanitize_context_t
_ZNK2OT23VariationSelectorRecord16collect_unicodesEP8hb_set_tPKv
_ZNK2OT23VariationSelectorRecord9get_glyphEjPjPKv
_ZNK2OT24FeatureTableSubstitution15collect_lookupsEPK8hb_set_tPS1_
_ZNK2OT24VarSizedBinSearchArrayOfIN3AAT12LookupSingleINS_8OffsetToINS_7ArrayOfINS1_6AnchorENS_7IntTypeIjLj4EEEEENS6_ItLj2EEELb0EEEEEE8sanitizeIJRPKvEEEbP21hb_sanitize_context_tDpOT_
_ZNK2OT24VarSizedBinSearchArrayOfIN3AAT18LookupSegmentArrayINS_11HBGlyphID16EEEE8sanitizeIJPKNS1_13LookupFormat4IS3_EEEEEbP21hb_sanitize_context_tDpOT_
_ZNK2OT24VarSizedBinSearchArrayOfIN3AAT18LookupSegmentArrayINS_7IntTypeIjLj4EEEEEE8sanitizeIJPKNS1_13LookupFormat4IS4_EEEEEbP21hb_sanitize_context_tDpOT_
_ZNK2OT24VarSizedBinSearchArrayOfIN3AAT18LookupSegmentArrayINS_7IntTypeItLj2EEEEEE8sanitizeIJPKNS1_13LookupFormat4IS4_EEEEEbP21hb_sanitize_context_tDpOT_
_ZNK2OT24VarSizedBinSearchArrayOfIN3AAT18LookupSegmentArrayINS_8OffsetToINS_7ArrayOfINS1_6AnchorENS_7IntTypeIjLj4EEEEENS6_ItLj2EEELb0EEEEEE8sanitizeIJPKNS1_13LookupFormat4ISA_EERPKvEEEbP21hb_sanitize_context_tDpOT_
_ZNK2OT24VarSizedBinSearchArrayOfIN3AAT19LookupSegmentSingleINS_8OffsetToINS_7ArrayOfINS1_6AnchorENS_7IntTypeIjLj4EEEEENS6_ItLj2EEELb0EEEEEE8sanitizeIJRPKvEEEbP21hb_sanitize_context_tDpOT_
_ZNK2OT25CmapSubtableLongSegmentedINS_20CmapSubtableFormat12EE16collect_unicodesEP8hb_set_tj
_ZNK2OT25CmapSubtableLongSegmentedINS_20CmapSubtableFormat12EE9get_glyphEjPj
_ZNK2OT25CmapSubtableLongSegmentedINS_20CmapSubtableFormat13EE16collect_unicodesEP8hb_set_tj
_ZNK2OT25CmapSubtableLongSegmentedINS_20CmapSubtableFormat13EE9get_glyphEjPj
_ZNK2OT29PaintScaleUniformAroundCenter8sanitizeEP21hb_sanitize_context_t
_ZNK2OT33hb_ot_layout_lookup_accelerator_t5applyEPNS_21hb_ot_apply_context_tEb
_ZNK2OT3OS28sanitizeEP21hb_sanitize_context_t
_ZNK2OT3OS29get_widthEv
_ZNK2OT3SVG13accelerator_t24reference_blob_for_glyphEj
_ZNK2OT4Axis12get_baselineEjjjPPKNS_9BaseCoordE
_ZNK2OT4Axis8sanitizeEP21hb_sanitize_context_t
_ZNK2OT4BASE12get_baselineEP9hb_font_tj14hb_direction_tjjPi
_ZNK2OT4BASE8sanitizeEP21hb_sanitize_context_t
_ZNK2OT4CBDT13accelerator_t11get_extentsEP9hb_font_tjP18hb_glyph_extents_t
_ZNK2OT4CBDT13accelerator_t13reference_pngEP9hb_font_tj
_ZNK2OT4CBLC13choose_strikeEP9hb_font_t
_ZNK2OT4COLR16get_glyph_layersEjjPjP19hb_ot_color_layer_t
_ZNK2OT4COLR8sanitizeEP21hb_sanitize_context_t
_ZNK2OT4CPAL8sanitizeEP21hb_sanitize_context_t
_ZNK2OT4GDEF14is_blocklistedEP9hb_blob_tP9hb_face_t
_ZNK2OT4GDEF15get_glyph_classEj
_ZNK2OT4GDEF19get_glyphs_in_classEjP8hb_set_t
_ZNK2OT4GDEF24get_mark_attachment_typeEj
_ZNK2OT4MATH8sanitizeEP21hb_sanitize_context_t
_ZNK2OT4MVAR7get_varEjPKij
_ZNK2OT4MVAR8sanitizeEP21hb_sanitize_context_t
_ZNK2OT4STAT8sanitizeEP21hb_sanitize_context_t
_ZNK2OT4STAT9get_valueEjPf
_ZNK2OT4VVAR23get_vorg_delta_unscaledEjPKijPf
_ZNK2OT4avar8sanitizeEP21hb_sanitize_context_t
_ZNK2OT4cff113accelerator_t11get_extentsEP9hb_font_tjP18hb_glyph_extents_t
_ZNK2OT4cff113accelerator_t14get_glyph_nameEjPcj
_ZNK2OT4cff113accelerator_t19get_glyph_from_nameEPKciPj
_ZNK2OT4cff113accelerator_t19get_seac_componentsEjPjS2_
_ZNK2OT4cff113accelerator_t8get_pathEP9hb_font_tjR17hb_draw_session_t
_ZNK2OT4cff213accelerator_t11get_extentsEP9hb_font_tjP18hb_glyph_extents_t
_ZNK2OT4cff213accelerator_t8get_pathEP9hb_font_tjR17hb_draw_session_t
_ZNK2OT4cmap13find_subtableEjj
_ZNK2OT4cmap18find_best_subtableEPb
_ZNK2OT4fvar14find_axis_infoEjP21hb_ot_var_axis_info_t
_ZNK2OT4fvar14get_axis_infosEjPjP21hb_ot_var_axis_info_t
_ZNK2OT4fvar19get_axes_deprecatedEjPjP16hb_ot_var_axis_t
_ZNK2OT4fvar20find_axis_deprecatedEjPjP16hb_ot_var_axis_t
_ZNK2OT4fvar20normalize_axis_valueEjf
_ZNK2OT4fvar22unnormalize_axis_valueEji
_ZNK2OT4fvar8sanitizeEP21hb_sanitize_context_t
_ZNK2OT4gvar13accelerator_t22apply_deltas_to_pointsEjP9hb_font_t10hb_array_tINS_15contour_point_tEE
_ZNK2OT4gvar16sanitize_shallowEP21hb_sanitize_context_t
_ZNK2OT4gvar24get_glyph_var_data_bytesEP9hb_blob_tj
_ZNK2OT4kern16has_cross_streamEv
_ZNK2OT4kern17has_state_machineEv
_ZNK2OT4meta13accelerator_t11get_entriesEjPjP16hb_ot_meta_tag_t
_ZNK2OT4meta13accelerator_t15reference_entryEj
_ZNK2OT4name13accelerator_t9get_indexEjPK18hb_language_impl_tPj
_ZNK2OT4name8sanitizeEP21hb_sanitize_context_t
_ZNK2OT4post13accelerator_t14get_glyph_nameEjPcj
_ZNK2OT4post13accelerator_t19get_glyph_from_nameEPKciPj
_ZNK2OT4post8sanitizeEP21hb_sanitize_context_t
_ZNK2OT4sbix13accelerator_t13choose_strikeEP9hb_font_t
_ZNK2OT4sbix13accelerator_t15get_png_extentsEP9hb_font_tjP18hb_glyph_extents_t
_ZNK2OT5Paint8dispatchI21hb_sanitize_context_tJEEENT_8return_tEPS3_DpOT0_
_ZNK2OT6Device11get_x_deltaEP9hb_font_tRKNS_14VariationStoreEPf
_ZNK2OT6Device11get_y_deltaEP9hb_font_tRKNS_14VariationStoreEPf
_ZNK2OT6Device8sanitizeEP21hb_sanitize_context_t
_ZNK2OT6Layout4GPOS14is_blocklistedEP9hb_blob_tP9hb_face_t
_ZNK2OT6Layout4GSUB14is_blocklistedEP9hb_blob_tP9hb_face_t
_ZNK2OT6Layout6Common17CoverageFormat1_3INS0_10SmallTypesEE10intersectsEPK8hb_set_t
_ZNK2OT6Layout6Common17CoverageFormat1_3INS0_10SmallTypesEE13intersect_setIR8hb_set_tLPv0EEEvRKS6_OT_
_ZNK2OT6Layout6Common17CoverageFormat2_4INS0_10SmallTypesEE13intersect_setIR8hb_set_tLPv0EEEvRKS6_OT_
_ZNK2OT6Layout6Common17CoverageFormat2_4INS0_10SmallTypesEE16collect_coverageI24hb_set_digest_combiner_tI28hb_set_digest_bits_pattern_tImLj4EES6_IS7_ImLj0EES7_ImLj9EEEEEEbPT_
_ZNK2OT6Layout6Common8Coverage12get_coverageEj
_ZNK2OT6Layout6Common8Coverage16collect_coverageI8hb_set_tEEbPT_
_ZNK2OT6Layout6Common8Coverage8sanitizeEP21hb_sanitize_context_t
_ZNK2OT6Layout9GPOS_impl10CursivePos8dispatchI21hb_sanitize_context_tJEEENT_8return_tEPS5_DpOT0_
_ZNK2OT6Layout9GPOS_impl11ValueFormat11apply_valueEPNS_21hb_ot_apply_context_tEPKvPKNS_7IntTypeItLj2EEER19hb_glyph_position_t
_ZNK2OT6Layout9GPOS_impl11ValueFormat22sanitize_value_devicesEP21hb_sanitize_context_tPKvPKNS_7IntTypeItLj2EEE
_ZNK2OT6Layout9GPOS_impl13AnchorFormat210get_anchorEPNS_21hb_ot_apply_context_tEjPfS5_
_ZNK2OT6Layout9GPOS_impl13AnchorFormat310get_anchorEPNS_21hb_ot_apply_context_tEjPfS5_
_ZNK2OT6Layout9GPOS_impl13AnchorFormat38sanitizeEP21hb_sanitize_context_t
_ZNK2OT6Layout9GPOS_impl16PairPosFormat1_3INS0_10SmallTypesEE14collect_glyphsEPNS_27hb_collect_glyphs_context_tE
_ZNK2OT6Layout9GPOS_impl16PairPosFormat1_3INS0_10SmallTypesEE5applyEPNS_21hb_ot_apply_context_tE
_ZNK2OT6Layout9GPOS_impl16PairPosFormat1_3INS0_10SmallTypesEE8sanitizeEP21hb_sanitize_context_t
_ZNK2OT6Layout9GPOS_impl16PairPosFormat2_4INS0_10SmallTypesEE5applyEPNS_21hb_ot_apply_context_tE
_ZNK2OT6Layout9GPOS_impl16PairPosFormat2_4INS0_10SmallTypesEE8sanitizeEP21hb_sanitize_context_t
_ZNK2OT6Layout9GPOS_impl16SinglePosFormat15applyEPNS_21hb_ot_apply_context_tE
_ZNK2OT6Layout9GPOS_impl16SinglePosFormat18sanitizeEP21hb_sanitize_context_t
_ZNK2OT6Layout9GPOS_impl16SinglePosFormat25applyEPNS_21hb_ot_apply_context_tE
_ZNK2OT6Layout9GPOS_impl16SinglePosFormat28sanitizeEP21hb_sanitize_context_t
_ZNK2OT6Layout9GPOS_impl17CursivePosFormat15applyEPNS_21hb_ot_apply_context_tE
_ZNK2OT6Layout9GPOS_impl17PosLookupSubTable8dispatchI21hb_sanitize_context_tJEEENT_8return_tEPS5_jDpOT0_
_ZNK2OT6Layout9GPOS_impl17PosLookupSubTable8dispatchINS_21hb_ot_apply_context_tEJEEENT_8return_tEPS5_jDpOT0_
_ZNK2OT6Layout9GPOS_impl17PosLookupSubTable8dispatchINS_27hb_collect_glyphs_context_tEJEEENT_8return_tEPS5_jDpOT0_
_ZNK2OT6Layout9GPOS_impl17PosLookupSubTable8dispatchINS_29hb_collect_coverage_context_tI24hb_set_digest_combiner_tI28hb_set_digest_bits_pattern_tImLj4EES5_IS6_ImLj0EES6_ImLj9EEEEEEJEEENT_8return_tEPSD_jDpOT0_
_ZNK2OT6Layout9GPOS_impl17PosLookupSubTable8dispatchINS_33hb_accelerate_subtables_context_tEJEEENT_8return_tEPS5_jDpOT0_
_ZNK2OT6Layout9GPOS_impl19MarkLigPosFormat1_2INS0_10SmallTypesEE5applyEPNS_21hb_ot_apply_context_tE
_ZNK2OT6Layout9GPOS_impl19MarkLigPosFormat1_2INS0_10SmallTypesEE8sanitizeEP21hb_sanitize_context_t
_ZNK2OT6Layout9GPOS_impl20MarkBasePosFormat1_2INS0_10SmallTypesEE5applyEPNS_21hb_ot_apply_context_tE
_ZNK2OT6Layout9GPOS_impl20MarkBasePosFormat1_2INS0_10SmallTypesEE8sanitizeEP21hb_sanitize_context_t
_ZNK2OT6Layout9GPOS_impl20MarkMarkPosFormat1_2INS0_10SmallTypesEE5applyEPNS_21hb_ot_apply_context_tE
_ZNK2OT6Layout9GPOS_impl20MarkMarkPosFormat1_2INS0_10SmallTypesEE8sanitizeEP21hb_sanitize_context_t
_ZNK2OT6Layout9GPOS_impl7PairPos8dispatchINS_27hb_collect_glyphs_context_tEJEEENT_8return_tEPS5_DpOT0_
_ZNK2OT6Layout9GPOS_impl7PairPos8dispatchINS_33hb_accelerate_subtables_context_tEJEEENT_8return_tEPS5_DpOT0_
_ZNK2OT6Layout9GPOS_impl7PairSetINS0_10SmallTypesEE5applyEPNS_21hb_ot_apply_context_tEPKNS1_11ValueFormatEj
_ZNK2OT6Layout9GPOS_impl7PairSetINS0_10SmallTypesEE8sanitizeEP21hb_sanitize_context_tPKNS4_18sanitize_closure_tE
_ZNK2OT6Layout9GPOS_impl9MarkArray5applyEPNS_21hb_ot_apply_context_tEjjRKNS1_12AnchorMatrixEjj
_ZNK2OT6Layout9GPOS_impl9PosLookup16collect_coverageI24hb_set_digest_combiner_tI28hb_set_digest_bits_pattern_tImLj4EES4_IS5_ImLj0EES5_ImLj9EEEEEEvPT_
_ZNK2OT6Layout9GPOS_impl9SinglePos8dispatchINS_33hb_accelerate_subtables_context_tEJEEENT_8return_tEPS5_DpOT0_
_ZNK2OT6Layout9GSUB_impl11SingleSubst8dispatchI21hb_sanitize_context_tJEEENT_8return_tEPS5_DpOT0_
_ZNK2OT6Layout9GSUB_impl11SingleSubst8dispatchINS_20hb_closure_context_tEJEEENT_8return_tEPS5_DpOT0_
_ZNK2OT6Layout9GSUB_impl11SingleSubst8dispatchINS_33hb_accelerate_subtables_context_tEJEEENT_8return_tEPS5_DpOT0_
_ZNK2OT6Layout9GSUB_impl11SubstLookup11would_applyEPNS_24hb_would_apply_context_tEPKNS_33hb_ot_layout_lookup_accelerator_tE
_ZNK2OT6Layout9GSUB_impl11SubstLookup16collect_coverageI24hb_set_digest_combiner_tI28hb_set_digest_bits_pattern_tImLj4EES4_IS5_ImLj0EES5_ImLj9EEEEEEvPT_
_ZNK2OT6Layout9GSUB_impl12AlternateSetINS0_10SmallTypesEE5applyEPNS_21hb_ot_apply_context_tE
_ZNK2OT6Layout9GSUB_impl19SubstLookupSubTable8dispatchI21hb_sanitize_context_tJEEENT_8return_tEPS5_jDpOT0_
_ZNK2OT6Layout9GSUB_impl19SubstLookupSubTable8dispatchI34hb_get_glyph_alternates_dispatch_tJRjS5_RPjS7_EEENT_8return_tEPS8_jDpOT0_
_ZNK2OT6Layout9GSUB_impl19SubstLookupSubTable8dispatchINS_20hb_closure_context_tEJEEENT_8return_tEPS5_jDpOT0_
_ZNK2OT6Layout9GSUB_impl19SubstLookupSubTable8dispatchINS_21hb_ot_apply_context_tEJEEENT_8return_tEPS5_jDpOT0_
_ZNK2OT6Layout9GSUB_impl19SubstLookupSubTable8dispatchINS_24hb_would_apply_context_tEJEEENT_8return_tEPS5_jDpOT0_
_ZNK2OT6Layout9GSUB_impl19SubstLookupSubTable8dispatchINS_26hb_have_non_1to1_context_tEJEEENT_8return_tEPS5_jDpOT0_
_ZNK2OT6Layout9GSUB_impl19SubstLookupSubTable8dispatchINS_27hb_collect_glyphs_context_tEJEEENT_8return_tEPS5_jDpOT0_
_ZNK2OT6Layout9GSUB_impl19SubstLookupSubTable8dispatchINS_29hb_collect_coverage_context_tI24hb_set_digest_combiner_tI28hb_set_digest_bits_pattern_tImLj4EES5_IS6_ImLj0EES6_ImLj9EEEEEEJEEENT_8return_tEPSD_jDpOT0_
_ZNK2OT6Layout9GSUB_impl19SubstLookupSubTable8dispatchINS_33hb_accelerate_subtables_context_tEJEEENT_8return_tEPS5_jDpOT0_
_ZNK2OT6Layout9GSUB_impl20SingleSubstFormat1_3INS0_10SmallTypesEE14collect_glyphsEPNS_27hb_collect_glyphs_context_tE
_ZNK2OT6Layout9GSUB_impl20SingleSubstFormat1_3INS0_10SmallTypesEE5applyEPNS_21hb_ot_apply_context_tE
_ZNK2OT6Layout9GSUB_impl20SingleSubstFormat1_3INS0_10SmallTypesEE7closureEPNS_20hb_closure_context_tE
_ZNK2OT6Layout9GSUB_impl20SingleSubstFormat2_4INS0_10SmallTypesEE14collect_glyphsEPNS_27hb_collect_glyphs_context_tE
_ZNK2OT6Layout9GSUB_impl20SingleSubstFormat2_4INS0_10SmallTypesEE5applyEPNS_21hb_ot_apply_context_tE
_ZNK2OT6Layout9GSUB_impl20SingleSubstFormat2_4INS0_10SmallTypesEE8sanitizeEP21hb_sanitize_context_t
_ZNK2OT6Layout9GSUB_impl22LigatureSubstFormat1_2INS0_10SmallTypesEE14collect_glyphsEPNS_27hb_collect_glyphs_context_tE
_ZNK2OT6Layout9GSUB_impl22LigatureSubstFormat1_2INS0_10SmallTypesEE7closureEPNS_20hb_closure_context_tE
_ZNK2OT6Layout9GSUB_impl22LigatureSubstFormat1_2INS0_10SmallTypesEE8sanitizeEP21hb_sanitize_context_t
_ZNK2OT6Layout9GSUB_impl22MultipleSubstFormat1_2INS0_10SmallTypesEE14collect_glyphsEPNS_27hb_collect_glyphs_context_tE
_ZNK2OT6Layout9GSUB_impl22MultipleSubstFormat1_2INS0_10SmallTypesEE7closureEPNS_20hb_closure_context_tE
_ZNK2OT6Layout9GSUB_impl22MultipleSubstFormat1_2INS0_10SmallTypesEE8sanitizeEP21hb_sanitize_context_t
_ZNK2OT6Layout9GSUB_impl23AlternateSubstFormat1_2INS0_10SmallTypesEE14collect_glyphsEPNS_27hb_collect_glyphs_context_tE
_ZNK2OT6Layout9GSUB_impl23AlternateSubstFormat1_2INS0_10SmallTypesEE7closureEPNS_20hb_closure_context_tE
_ZNK2OT6Layout9GSUB_impl23AlternateSubstFormat1_2INS0_10SmallTypesEE8sanitizeEP21hb_sanitize_context_t
_ZNK2OT6Layout9GSUB_impl30ReverseChainSingleSubstFormat110intersectsEPK8hb_set_t
_ZNK2OT6Layout9GSUB_impl30ReverseChainSingleSubstFormat114collect_glyphsEPNS_27hb_collect_glyphs_context_tE
_ZNK2OT6Layout9GSUB_impl30ReverseChainSingleSubstFormat15applyEPNS_21hb_ot_apply_context_tE
_ZNK2OT6Layout9GSUB_impl30ReverseChainSingleSubstFormat17closureEPNS_20hb_closure_context_tE
_ZNK2OT6Layout9GSUB_impl30ReverseChainSingleSubstFormat18sanitizeEP21hb_sanitize_context_t
_ZNK2OT6Layout9GSUB_impl8LigatureINS0_10SmallTypesEE5applyEPNS_21hb_ot_apply_context_tE
_ZNK2OT6Layout9GSUB_impl8SequenceINS0_10SmallTypesEE5applyEPNS_21hb_ot_apply_context_tE
_ZNK2OT6Lookup8dispatchINS_6Layout9GSUB_impl19SubstLookupSubTableE34hb_get_glyph_alternates_dispatch_tJRjS6_RPjS8_EEENT0_8return_tEPS9_DpOT1_
_ZNK2OT6Lookup8dispatchINS_6Layout9GSUB_impl19SubstLookupSubTableENS_26hb_have_non_1to1_context_tEJEEENT0_8return_tEPS6_DpOT1_
_ZNK2OT6Lookup8sanitizeINS_6Layout9GPOS_impl17PosLookupSubTableEEEbP21hb_sanitize_context_t
_ZNK2OT6Lookup8sanitizeINS_6Layout9GSUB_impl19SubstLookupSubTableEEEbP21hb_sanitize_context_t
_ZNK2OT6MinMax8sanitizeEP21hb_sanitize_context_t
_ZNK2OT6RecordINS_6ScriptEE8sanitizeEP21hb_sanitize_context_tPKv
_ZNK2OT6RecordINS_7FeatureEE8sanitizeEP21hb_sanitize_context_tPKv
_ZNK2OT7ArrayOfIN3AAT13FTStringRangeENS_7IntTypeIjLj4EEEE8sanitizeIJPKNS1_4ltagEEEEbP21hb_sanitize_context_tDpOT_
_ZNK2OT7ArrayOfIN3CFF17FDSelect3_4_RangeINS_7IntTypeIjLj4EEENS3_ItLj2EEEEES4_E8sanitizeIJDnRjEEEbP21hb_sanitize_context_tDpOT_
_ZNK2OT7ArrayOfINS_10ClipRecordENS_7IntTypeIjLj4EEEE8sanitizeIJPKNS_8ClipListEEEEbP21hb_sanitize_context_tDpOT_
_ZNK2OT7ArrayOfINS_14EncodingRecordENS_7IntTypeItLj2EEEE8sanitizeIJPKNS_4cmapEEEEbP21hb_sanitize_context_tDpOT_
_ZNK2OT7ArrayOfINS_15BitmapSizeTableENS_7IntTypeIjLj4EEEE8sanitizeIJPKNS_4CBLCEEEEbP21hb_sanitize_context_tDpOT_
_ZNK2OT7ArrayOfINS_15MathValueRecordENS_7IntTypeItLj2EEEE8sanitizeIJPKNS_23MathTopAccentAttachmentEEEEbP21hb_sanitize_context_tDpOT_
_ZNK2OT7ArrayOfINS_15MathValueRecordENS_7IntTypeItLj2EEEE8sanitizeIJPKNS_25MathItalicsCorrectionInfoEEEEbP21hb_sanitize_context_tDpOT_
_ZNK2OT7ArrayOfINS_16BaseScriptRecordENS_7IntTypeItLj2EEEE8sanitizeIJPKNS_14BaseScriptListEEEEbP21hb_sanitize_context_tDpOT_
_ZNK2OT7ArrayOfINS_17BaseLangSysRecordENS_7IntTypeItLj2EEEE8sanitizeIJPKNS_10BaseScriptEEEEbP21hb_sanitize_context_tDpOT_
_ZNK2OT7ArrayOfINS_18MathKernInfoRecordENS_7IntTypeItLj2EEEE8sanitizeIJPKNS_12MathKernInfoEEEEbP21hb_sanitize_context_tDpOT_
_ZNK2OT7ArrayOfINS_20BaseGlyphPaintRecordENS_7IntTypeIjLj4EEEE8sanitizeIJPKNS_13BaseGlyphListEEEEbP21hb_sanitize_context_tDpOT_
_ZNK2OT7ArrayOfINS_22FeatureVariationRecordENS_7IntTypeIjLj4EEEE8sanitizeIJPKNS_17FeatureVariationsEEEEbP21hb_sanitize_context_tDpOT_
_ZNK2OT7ArrayOfINS_23VariationSelectorRecordENS_7IntTypeIjLj4EEEE8sanitizeIJPKNS_20CmapSubtableFormat14EEEEbP21hb_sanitize_context_tDpOT_
_ZNK2OT7ArrayOfINS_30FeatureTableSubstitutionRecordENS_7IntTypeItLj2EEEE8sanitizeIJPKNS_24FeatureTableSubstitutionEEEEbP21hb_sanitize_context_tDpOT_
_ZNK2OT7ArrayOfINS_6Layout9GPOS_impl10MarkRecordENS_7IntTypeItLj2EEEE8sanitizeIJPKNS2_9MarkArrayEEEEbP21hb_sanitize_context_tDpOT_
_ZNK2OT7ArrayOfINS_6Layout9GPOS_impl15EntryExitRecordENS_7IntTypeItLj2EEEE8sanitizeIJPKNS2_17CursivePosFormat1EEEEbP21hb_sanitize_context_tDpOT_
_ZNK2OT7ArrayOfINS_6RecordINS_7LangSysEEENS_7IntTypeItLj2EEEE8sanitizeIJPKNS_6ScriptEEEEbP21hb_sanitize_context_tDpOT_
_ZNK2OT7ArrayOfINS_7DataMapENS_7IntTypeIjLj4EEEE8sanitizeIJPKNS_4metaEEEEbP21hb_sanitize_context_tDpOT_
_ZNK2OT7ArrayOfINS_8OffsetToINS_10CaretValueENS_7IntTypeItLj2EEELb1EEES4_E8sanitizeIJPKNS_8LigGlyphEEEEbP21hb_sanitize_context_tDpOT_
_ZNK2OT7ArrayOfINS_8OffsetToINS_10SBIXStrikeENS_7IntTypeIjLj4EEELb1EEES4_E8sanitizeIJPKNS_4sbixEEEEbP21hb_sanitize_context_tDpOT_
_ZNK2OT7ArrayOfINS_8OffsetToINS_12ChainRuleSetINS_6Layout10SmallTypesEEENS_7IntTypeItLj2EEELb1EEES7_E8sanitizeIJPKNS_21ChainContextFormat1_4IS4_EEEEEbP21hb_sanitize_context_tDpOT_
_ZNK2OT7ArrayOfINS_8OffsetToINS_12ChainRuleSetINS_6Layout10SmallTypesEEENS_7IntTypeItLj2EEELb1EEES7_E8sanitizeIJPKNS_21ChainContextFormat2_5IS4_EEEEEbP21hb_sanitize_context_tDpOT_
_ZNK2OT7ArrayOfINS_8OffsetToINS_19OpenTypeOffsetTableENS_7IntTypeIjLj4EEELb1EEES4_E8sanitizeIJPKNS_17TTCHeaderVersion1EEEEbP21hb_sanitize_context_tDpOT_
_ZNK2OT7ArrayOfINS_8OffsetToINS_5PaintENS_7IntTypeIjLj4EEELb1EEES4_E8sanitizeIJPKNS_9LayerListEEEEbP21hb_sanitize_context_tDpOT_
_ZNK2OT7ArrayOfINS_8OffsetToINS_6Layout6Common8CoverageENS_7IntTypeIjLj4EEELb1EEENS5_ItLj2EEEE8sanitizeIJPKNS_20MarkGlyphSetsFormat1EEEEbP21hb_sanitize_context_tDpOT_
_ZNK2OT7ArrayOfINS_8OffsetToINS_6Layout6Common8CoverageENS_7IntTypeItLj2EEELb1EEES6_E8sanitizeIJPKNS2_9GSUB_impl30ReverseChainSingleSubstFormat1EEEEbP21hb_sanitize_context_tDpOT_
_ZNK2OT7ArrayOfINS_8OffsetToINS_6Layout6Common8CoverageENS_7IntTypeItLj2EEELb1EEES6_E8sanitizeIJPKNS_19ChainContextFormat3EEEEbP21hb_sanitize_context_tDpOT_
_ZNK2OT7ArrayOfINS_8OffsetToINS_6Layout9GPOS_impl17PosLookupSubTableENS_7IntTypeItLj2EEELb1EEES6_E8sanitizeIJPKNS_6LookupEjEEEbP21hb_sanitize_context_tDpOT_
_ZNK2OT7ArrayOfINS_8OffsetToINS_6Layout9GPOS_impl7PairSetINS2_10SmallTypesEEENS_7IntTypeItLj2EEELb1EEES8_E8sanitizeIJPKNS3_16PairPosFormat1_3IS5_EEPNS6_18sanitize_closure_tEEEEbP21hb_sanitize_context_tDpOT_
_ZNK2OT7ArrayOfINS_8OffsetToINS_6Layout9GPOS_impl9PosLookupENS_7IntTypeItLj2EEELb1EEES6_E8sanitizeIJPKNS_16List16OfOffsetToIS4_S6_EEEEEbP21hb_sanitize_context_tDpOT_
_ZNK2OT7ArrayOfINS_8OffsetToINS_6Layout9GSUB_impl11SubstLookupENS_7IntTypeItLj2EEELb1EEES6_E8sanitizeIJPKNS_16List16OfOffsetToIS4_S6_EEEEEbP21hb_sanitize_context_tDpOT_
_ZNK2OT7ArrayOfINS_8OffsetToINS_6Layout9GSUB_impl19SubstLookupSubTableENS_7IntTypeItLj2EEELb1EEES6_E8sanitizeIJPKNS_6LookupEjEEEbP21hb_sanitize_context_tDpOT_
_ZNK2OT7ArrayOfINS_8OffsetToINS_7VarDataENS_7IntTypeIjLj4EEELb1EEENS3_ItLj2EEEE8sanitizeIJPKNS_14VariationStoreEEEEbP21hb_sanitize_context_tDpOT_
_ZNK2OT7ArrayOfINS_8OffsetToINS_8LigGlyphENS_7IntTypeItLj2EEELb1EEES4_E8sanitizeIJPKNS_12LigCaretListEEEEbP21hb_sanitize_context_tDpOT_
_ZNK2OT7ArrayOfINS_8OffsetToINS_9BaseCoordENS_7IntTypeItLj2EEELb1EEES4_E8sanitizeIJPKNS_10BaseValuesEEEEbP21hb_sanitize_context_tDpOT_
_ZNK2OT7ArrayOfINS_8OffsetToINS_9ChainRuleINS_6Layout10SmallTypesEEENS_7IntTypeItLj2EEELb1EEES7_E8sanitizeIJPKNS_12ChainRuleSetIS4_EEEEEbP21hb_sanitize_context_tDpOT_
_ZNK2OT7Context8dispatchINS_21hb_ot_apply_context_tEJEEENT_8return_tEPS3_DpOT0_
_ZNK2OT7Context8dispatchINS_24hb_would_apply_context_tEJEEENT_8return_tEPS3_DpOT0_
_ZNK2OT7Context8dispatchINS_27hb_collect_glyphs_context_tEJEEENT_8return_tEPS3_DpOT0_
_ZNK2OT7Context8dispatchINS_33hb_accelerate_subtables_context_tEJEEENT_8return_tEPS3_DpOT0_
_ZNK2OT7DataMap8sanitizeEP21hb_sanitize_context_tPKv
_ZNK2OT7Feature8sanitizeEP21hb_sanitize_context_tPKNS_25Record_sanitize_closure_tE
_ZNK2OT7RuleSetINS_6Layout10SmallTypesEE14collect_glyphsEPNS_27hb_collect_glyphs_context_tERNS_33ContextCollectGlyphsLookupContextE
_ZNK2OT7RuleSetINS_6Layout10SmallTypesEE5applyEPNS_21hb_ot_apply_context_tERNS_25ContextApplyLookupContextE
_ZNK2OT7RuleSetINS_6Layout10SmallTypesEE7closureEPNS_20hb_closure_context_tEjRNS_27ContextClosureLookupContextE
_ZNK2OT7VarData8sanitizeEP21hb_sanitize_context_t
_ZNK2OT7VarData9get_deltaEjPKijRKNS_13VarRegionListEPf
_ZNK2OT8ClassDef8sanitizeEP21hb_sanitize_context_t
_ZNK2OT8ClassDef9get_classEj
_ZNK2OT8GSUBGPOS21get_feature_variationEjj
_ZNK2OT8GSUBGPOS33feature_variation_collect_lookupsEPK8hb_set_tPS1_
_ZNK2OT8HVARVVAR22get_lsb_delta_unscaledEjPKijPf
_ZNK2OT8HVARVVAR26get_advance_delta_unscaledEjPKijPf
_ZNK2OT8HVARVVAR8sanitizeEP21hb_sanitize_context_t
_ZNK2OT8MathKern11get_entriesEjPjP23hb_ot_math_kern_entry_tP9hb_font_t
_ZNK2OT8MathKern27sanitize_math_value_recordsEP21hb_sanitize_context_t
_ZNK2OT8MathKern9get_valueEiP9hb_font_t
_ZNK2OT8OffsetToIN3AAT10ClassTableINS_7IntTypeIhLj1EEEEENS3_ItLj2EEELb0EE8sanitizeIJEEEbP21hb_sanitize_context_tPKvDpOT_
_ZNK2OT8OffsetToIN3AAT10ClassTableINS_7IntTypeItLj2EEEEES4_Lb0EE8sanitizeIJEEEbP21hb_sanitize_context_tPKvDpOT_
_ZNK2OT8OffsetToINS_10DefaultUVSENS_7IntTypeIjLj4EEELb1EE8sanitizeIJEEEbP21hb_sanitize_context_tPKvDpOT_
_ZNK2OT8OffsetToINS_10NoVariableINS_9Affine2x3EEENS_7IntTypeIjLj3EEELb1EE8sanitizeIJEEEbP21hb_sanitize_context_tPKvDpOT_
_ZNK2OT8OffsetToINS_10SBIXStrikeENS_7IntTypeIjLj4EEELb1EE8sanitizeIJEEEbP21hb_sanitize_context_tPKvDpOT_
_ZNK2OT8OffsetToINS_11AttachPointENS_7IntTypeItLj2EEELb1EE8sanitizeIJEEEbP21hb_sanitize_context_tPKvDpOT_
_ZNK2OT8OffsetToINS_12ConditionSetENS_7IntTypeIjLj4EEELb1EE8sanitizeIJEEEbP21hb_sanitize_context_tPKvDpOT_
_ZNK2OT8OffsetToINS_12LigCaretListENS_7IntTypeItLj2EEELb1EE8sanitizeIJEEEbP21hb_sanitize_context_tPKvDpOT_
_ZNK2OT8OffsetToINS_12MathKernInfoENS_7IntTypeItLj2EEELb1EE8sanitizeIJEEEbP21hb_sanitize_context_tPKvDpOT_
_ZNK2OT8OffsetToINS_12RecordListOfINS_7FeatureEEENS_7IntTypeItLj2EEELb1EE8sanitizeIJEEEbP21hb_sanitize_context_tPKvDpOT_
_ZNK2OT8OffsetToINS_13FeatureParamsENS_7IntTypeItLj2EEELb1EE8sanitizeIJjEEEbP21hb_sanitize_context_tPKvDpOT_
_ZNK2OT8OffsetToINS_13MarkGlyphSetsENS_7IntTypeItLj2EEELb1EE8sanitizeIJEEEbP21hb_sanitize_context_tPKvDpOT_
_ZNK2OT8OffsetToINS_13NonDefaultUVSENS_7IntTypeIjLj4EEELb1EE8sanitizeIJEEEbP21hb_sanitize_context_tPKvDpOT_
_ZNK2OT8OffsetToINS_13VarRegionListENS_7IntTypeIjLj4EEELb1EE8sanitizeIJEEEbP21hb_sanitize_context_tPKvDpOT_
_ZNK2OT8OffsetToINS_14VariationStoreENS_7IntTypeIjLj4EEELb1EE8sanitizeIJEEEbP21hb_sanitize_context_tPKvDpOT_
_ZNK2OT8OffsetToINS_14VariationStoreENS_7IntTypeItLj2EEELb1EE8sanitizeIJEEEbP21hb_sanitize_context_tPKvDpOT_
_ZNK2OT8OffsetToINS_16DeltaSetIndexMapENS_7IntTypeIjLj4EEELb1EE8sanitizeIJEEEbP21hb_sanitize_context_tPKvDpOT_
_ZNK2OT8OffsetToINS_17FeatureVariationsENS_7IntTypeIjLj4EEELb1EE8sanitizeIJEEEbP21hb_sanitize_context_tPKvDpOT_
_ZNK2OT8OffsetToINS_18IndexSubtableArrayENS_7IntTypeIjLj4EEELb0EE8sanitizeIJRKS3_EEEbP21hb_sanitize_context_tPKvDpOT_
_ZNK2OT8OffsetToINS_18RecordListOfScriptENS_7IntTypeItLj2EEELb1EE8sanitizeIJEEEbP21hb_sanitize_context_tPKvDpOT_
_ZNK2OT8OffsetToINS_19OpenTypeOffsetTableENS_7IntTypeIjLj4EEELb1EE8sanitizeIJEEEbP21hb_sanitize_context_tPKvDpOT_
_ZNK2OT8OffsetToINS_23MathTopAccentAttachmentENS_7IntTypeItLj2EEELb1EE8sanitizeIJEEEbP21hb_sanitize_context_tPKvDpOT_
_ZNK2OT8OffsetToINS_23UnsizedListOfOffset16ToIN3AAT6LookupINS_11HBGlyphID16EEENS_7IntTypeIjLj4EEELb0EEES7_Lb0EE8sanitizeIJRjEEEbP21hb_sanitize_context_tPKvDpOT_
_ZNK2OT8OffsetToINS_23UnsizedListOfOffset16ToIN3AAT6LookupINS_11HBGlyphID16EEENS_7IntTypeItLj2EEELb0EEES7_Lb0EE8sanitizeIJiEEEbP21hb_sanitize_context_tPKvDpOT_
_ZNK2OT8OffsetToINS_24FeatureTableSubstitutionENS_7IntTypeIjLj4EEELb1EE8sanitizeIJEEEbP21hb_sanitize_context_tPKvDpOT_
_ZNK2OT8OffsetToINS_25MathItalicsCorrectionInfoENS_7IntTypeItLj2EEELb1EE8sanitizeIJEEEbP21hb_sanitize_context_tPKvDpOT_
_ZNK2OT8OffsetToINS_4RuleINS_6Layout10SmallTypesEEENS_7IntTypeItLj2EEELb1EE8sanitizeIJEEEbP21hb_sanitize_context_tPKvDpOT_
_ZNK2OT8OffsetToINS_5PaintENS_7IntTypeIjLj3EEELb1EE8sanitizeIJEEEbP21hb_sanitize_context_tPKvDpOT_
_ZNK2OT8OffsetToINS_6Layout9GPOS_impl12AnchorMatrixENS_7IntTypeItLj2EEELb1EE8sanitizeIJjEEEbP21hb_sanitize_context_tPKvDpOT_
_ZNK2OT8OffsetToINS_6Layout9GPOS_impl13LigatureArrayENS_7IntTypeItLj2EEELb1EE8sanitizeIJjEEEbP21hb_sanitize_context_tPKvDpOT_
_ZNK2OT8OffsetToINS_6Layout9GPOS_impl6AnchorENS_7IntTypeItLj2EEELb1EE8sanitizeIJEEEbP21hb_sanitize_context_tPKvDpOT_
_ZNK2OT8OffsetToINS_6Layout9GSUB_impl11LigatureSetINS1_10SmallTypesEEENS_7IntTypeItLj2EEELb1EE8sanitizeIJEEEbP21hb_sanitize_context_tPKvDpOT_
_ZNK2OT8OffsetToINS_6Layout9GSUB_impl12AlternateSetINS1_10SmallTypesEEENS_7IntTypeItLj2EEELb1EE8sanitizeIJEEEbP21hb_sanitize_context_tPKvDpOT_
_ZNK2OT8OffsetToINS_6Layout9GSUB_impl8LigatureINS1_10SmallTypesEEENS_7IntTypeItLj2EEELb1EE8sanitizeIJEEEbP21hb_sanitize_context_tPKvDpOT_
_ZNK2OT8OffsetToINS_6Layout9GSUB_impl8SequenceINS1_10SmallTypesEEENS_7IntTypeItLj2EEELb1EE8sanitizeIJEEEbP21hb_sanitize_context_tPKvDpOT_
_ZNK2OT8OffsetToINS_7ArrayOfINS_7IntTypeIhLj1EEENS2_IjLj4EEEEENS2_IjLj3EEELb0EE8sanitizeIJEEEbP21hb_sanitize_context_tPKvDpOT_
_ZNK2OT8OffsetToINS_7ClipBoxENS_7IntTypeIjLj3EEELb1EE8sanitizeIJEEEbP21hb_sanitize_context_tPKvDpOT_
_ZNK2OT8OffsetToINS_7LangSysENS_7IntTypeItLj2EEELb1EE8sanitizeIJEEEbP21hb_sanitize_context_tPKvDpOT_
_ZNK2OT8OffsetToINS_7LangSysENS_7IntTypeItLj2EEELb1EE8sanitizeIJPKNS_25Record_sanitize_closure_tEEEEbP21hb_sanitize_context_tPKvDpOT_
_ZNK2OT8OffsetToINS_7RuleSetINS_6Layout10SmallTypesEEENS_7IntTypeItLj2EEELb1EE8sanitizeIJEEEbP21hb_sanitize_context_tPKvDpOT_
_ZNK2OT8OffsetToINS_8ClipListENS_7IntTypeIjLj4EEELb1EE8sanitizeIJEEEbP21hb_sanitize_context_tPKvDpOT_
_ZNK2OT8OffsetToINS_8MathKernENS_7IntTypeItLj2EEELb1EE8sanitizeIJEEEbP21hb_sanitize_context_tPKvDpOT_
_ZNK2OT8OffsetToINS_8VariableINS_9Affine2x3EEENS_7IntTypeIjLj3EEELb1EE8sanitizeIJEEEbP21hb_sanitize_context_tPKvDpOT_
_ZNK2OT8OffsetToINS_9ArrayOfM1INS_18ResourceTypeRecordENS_7IntTypeItLj2EEEEES4_Lb0EE8sanitizeIJPKS5_RPKvEEEbP21hb_sanitize_context_tSB_DpOT_
_ZNK2OT8OffsetToINS_9ColorLineINS_10NoVariableEEENS_7IntTypeIjLj3EEELb1EE8sanitizeIJEEEbP21hb_sanitize_context_tPKvDpOT_
_ZNK2OT8OffsetToINS_9ColorLineINS_8VariableEEENS_7IntTypeIjLj3EEELb1EE8sanitizeIJEEEbP21hb_sanitize_context_tPKvDpOT_
_ZNK2OT8OffsetToINS_9ConditionENS_7IntTypeIjLj4EEELb1EE8sanitizeIJEEEbP21hb_sanitize_context_tPKvDpOT_
_ZNK2OT8OffsetToINS_9LayerListENS_7IntTypeIjLj4EEELb1EE8sanitizeIJEEEbP21hb_sanitize_context_tPKvDpOT_
_ZNK2OT8hmtxvmtxINS_4hmtxENS_4hheaENS_4HVAREE13accelerator_t29get_advance_with_var_unscaledEjP9hb_font_tPf
_ZNK2OT8hmtxvmtxINS_4vmtxENS_4vheaENS_4VVAREE13accelerator_t29get_advance_with_var_unscaledEjP9hb_font_tPf
_ZNK2OT8hmtxvmtxINS_4vmtxENS_4vheaENS_4VVAREE13accelerator_t37get_leading_bearing_with_var_unscaledEP9hb_font_tjPi
_ZNK2OT9AxisValue8sanitizeEP21hb_sanitize_context_t
_ZNK2OT9BaseCoord8sanitizeEP21hb_sanitize_context_t
_ZNK2OT9BaseCoord9get_coordEP9hb_font_tRKNS_14VariationStoreE14hb_direction_t
_ZNK2OT9ChainRuleINS_6Layout10SmallTypesEE11would_applyEPNS_24hb_would_apply_context_tERNS_30ChainContextApplyLookupContextE
_ZNK2OT9ChainRuleINS_6Layout10SmallTypesEE8sanitizeEP21hb_sanitize_context_t
_ZNK2OT9ExtensionINS_6Layout9GPOS_impl12ExtensionPosEE8dispatchI21hb_sanitize_context_tJEEENT_8return_tEPS7_DpOT0_
_ZNK2OT9ExtensionINS_6Layout9GPOS_impl12ExtensionPosEE8dispatchINS_21hb_ot_apply_context_tEJEEENT_8return_tEPS7_DpOT0_
_ZNK2OT9ExtensionINS_6Layout9GPOS_impl12ExtensionPosEE8dispatchINS_27hb_collect_glyphs_context_tEJEEENT_8return_tEPS7_DpOT0_
_ZNK2OT9ExtensionINS_6Layout9GPOS_impl12ExtensionPosEE8dispatchINS_29hb_collect_coverage_context_tI24hb_set_digest_combiner_tI28hb_set_digest_bits_pattern_tImLj4EES7_IS8_ImLj0EES8_ImLj9EEEEEEJEEENT_8return_tEPSF_DpOT0_
_ZNK2OT9ExtensionINS_6Layout9GPOS_impl12ExtensionPosEE8dispatchINS_33hb_accelerate_subtables_context_tEJEEENT_8return_tEPS7_DpOT0_
_ZNK2OT9ExtensionINS_6Layout9GSUB_impl14ExtensionSubstEE8dispatchI21hb_sanitize_context_tJEEENT_8return_tEPS7_DpOT0_
_ZNK2OT9ExtensionINS_6Layout9GSUB_impl14ExtensionSubstEE8dispatchI34hb_get_glyph_alternates_dispatch_tJRjS7_RPjS9_EEENT_8return_tEPSA_DpOT0_
_ZNK2OT9ExtensionINS_6Layout9GSUB_impl14ExtensionSubstEE8dispatchINS_20hb_closure_context_tEJEEENT_8return_tEPS7_DpOT0_
_ZNK2OT9ExtensionINS_6Layout9GSUB_impl14ExtensionSubstEE8dispatchINS_21hb_ot_apply_context_tEJEEENT_8return_tEPS7_DpOT0_
_ZNK2OT9ExtensionINS_6Layout9GSUB_impl14ExtensionSubstEE8dispatchINS_24hb_would_apply_context_tEJEEENT_8return_tEPS7_DpOT0_
_ZNK2OT9ExtensionINS_6Layout9GSUB_impl14ExtensionSubstEE8dispatchINS_26hb_have_non_1to1_context_tEJEEENT_8return_tEPS7_DpOT0_
_ZNK2OT9ExtensionINS_6Layout9GSUB_impl14ExtensionSubstEE8dispatchINS_27hb_collect_glyphs_context_tEJEEENT_8return_tEPS7_DpOT0_
_ZNK2OT9ExtensionINS_6Layout9GSUB_impl14ExtensionSubstEE8dispatchINS_29hb_collect_coverage_context_tI24hb_set_digest_combiner_tI28hb_set_digest_bits_pattern_tImLj4EES7_IS8_ImLj0EES8_ImLj9EEEEEEJEEENT_8return_tEPSF_DpOT0_
_ZNK2OT9ExtensionINS_6Layout9GSUB_impl14ExtensionSubstEE8dispatchINS_33hb_accelerate_subtables_context_tEJEEENT_8return_tEPS7_DpOT0_
_ZNK2OT9PaintSkew8sanitizeEP21hb_sanitize_context_t
_ZNK2OT9glyf_impl11GlyphHeader30get_extents_without_var_scaledINS_18glyf_accelerator_tEEEbP9hb_font_tRKT_jP18hb_glyph_extents_t
_ZNK2OT9glyf_impl11SimpleGlyph18get_contour_pointsERNS_22contour_point_vector_tEb
_ZNK2OT9glyf_impl20CompositeGlyphRecord16transform_pointsERNS_22contour_point_vector_tE
_ZNK2OT9glyf_impl20CompositeGlyphRecord18get_transformationERA4_fRNS_15contour_point_tE
_ZNK2OT9glyf_impl5Glyph10get_pointsINS_18glyf_accelerator_tEEEbP9hb_font_tRKT_RNS_22contour_point_vector_tEPS9_bbj
_ZNK3AAT10StateTableINS_13ExtendedTypesENS_12Format1EntryILb1EE9EntryDataEE8sanitizeEP21hb_sanitize_context_tPj
_ZNK3AAT10StateTableINS_13ExtendedTypesENS_13LigatureEntryILb1EE9EntryDataEE8sanitizeEP21hb_sanitize_context_tPj
_ZNK3AAT10StateTableINS_13ExtendedTypesENS_17InsertionSubtableIS1_E9EntryDataEE8sanitizeEP21hb_sanitize_context_tPj
_ZNK3AAT10StateTableINS_13ExtendedTypesENS_18ContextualSubtableIS1_E9EntryDataEE8sanitizeEP21hb_sanitize_context_tPj
_ZNK3AAT10StateTableINS_13ExtendedTypesENS_19KerxSubTableFormat4INS_18KerxSubTableHeaderEE9EntryDataEE8sanitizeEP21hb_sanitize_context_tPj
_ZNK3AAT10StateTableINS_13ExtendedTypesEvE8sanitizeEP21hb_sanitize_context_tPj
_ZNK3AAT10StateTableINS_13ObsoleteTypesENS_17InsertionSubtableIS1_E9EntryDataEE8sanitizeEP21hb_sanitize_context_tPj
_ZNK3AAT10StateTableINS_13ObsoleteTypesENS_18ContextualSubtableIS1_E9EntryDataEE8sanitizeEP21hb_sanitize_context_tPj
_ZNK3AAT10StateTableINS_13ObsoleteTypesEvE8sanitizeEP21hb_sanitize_context_tPj
_ZNK3AAT11FeatureName18get_selector_infosEjPjP37hb_aat_layout_feature_selector_info_tS1_PKv
_ZNK3AAT12KerxSubTable8dispatchI21hb_sanitize_context_tJEEENT_8return_tEPS3_DpOT0_
_ZNK3AAT12KerxSubTable8dispatchINS_22hb_aat_apply_context_tEJEEENT_8return_tEPS3_DpOT0_
_ZNK3AAT12LookupSingleIN2OT8OffsetToINS1_7ArrayOfINS_6AnchorENS1_7IntTypeIjLj4EEEEENS5_ItLj2EEELb0EEEE8sanitizeEP21hb_sanitize_context_tPKv
_ZNK3AAT13ChainSubtableINS_13ExtendedTypesEE8dispatchI21hb_sanitize_context_tJEEENT_8return_tEPS5_DpOT0_
_ZNK3AAT13ChainSubtableINS_13ExtendedTypesEE8dispatchINS_22hb_aat_apply_context_tEJEEENT_8return_tEPS5_DpOT0_
_ZNK3AAT13ChainSubtableINS_13ExtendedTypesEE8sanitizeEP21hb_sanitize_context_t
_ZNK3AAT13ChainSubtableINS_13ObsoleteTypesEE8dispatchI21hb_sanitize_context_tJEEENT_8return_tEPS5_DpOT0_
_ZNK3AAT13ChainSubtableINS_13ObsoleteTypesEE8dispatchINS_22hb_aat_apply_context_tEJEEENT_8return_tEPS5_DpOT0_
_ZNK3AAT13LookupFormat4IN2OT11HBGlyphID16EE9get_valueEj
_ZNK3AAT13LookupFormat4IN2OT7IntTypeIjLj4EEEE9get_valueEj
_ZNK3AAT13LookupFormat4IN2OT7IntTypeItLj2EEEE9get_valueEj
_ZNK3AAT13LookupFormat4IN2OT8OffsetToINS1_7ArrayOfINS_6AnchorENS1_7IntTypeIjLj4EEEEENS5_ItLj2EEELb0EEEE9get_valueEj
_ZNK3AAT16LigatureSubtableINS_13ExtendedTypesEE5applyEPNS_22hb_aat_apply_context_tE
_ZNK3AAT16LigatureSubtableINS_13ExtendedTypesEE8sanitizeEP21hb_sanitize_context_t
_ZNK3AAT18ContextualSubtableINS_13ExtendedTypesEE5applyEPNS_22hb_aat_apply_context_tE
_ZNK3AAT19KerxSubTableFormat0INS_18KerxSubTableHeaderEE11get_kerningEjjPNS_22hb_aat_apply_context_tE
_ZNK3AAT19KerxSubTableFormat2IN2OT20KernOTSubTableHeaderEE11get_kerningEjjPNS_22hb_aat_apply_context_tE
_ZNK3AAT19KerxSubTableFormat2IN2OT21KernAATSubTableHeaderEE11get_kerningEjjPNS_22hb_aat_apply_context_tE
_ZNK3AAT19KerxSubTableFormat2INS_18KerxSubTableHeaderEE11get_kerningEjjPNS_22hb_aat_apply_context_tE
_ZNK3AAT19KerxSubTableFormat2INS_18KerxSubTableHeaderEE8sanitizeEP21hb_sanitize_context_t
_ZNK3AAT19KerxSubTableFormat6INS_18KerxSubTableHeaderEE11get_kerningEjjPNS_22hb_aat_apply_context_tE
_ZNK3AAT19KerxSubTableFormat6INS_18KerxSubTableHeaderEE8sanitizeEP21hb_sanitize_context_t
_ZNK3AAT19LookupSegmentSingleIN2OT8OffsetToINS1_7ArrayOfINS_6AnchorENS1_7IntTypeIjLj4EEEEENS5_ItLj2EEELb0EEEE8sanitizeEP21hb_sanitize_context_tPKv
_ZNK3AAT21NoncontextualSubtableINS_13ExtendedTypesEE5applyEPNS_22hb_aat_apply_context_tE
_ZNK3AAT21NoncontextualSubtableINS_13ObsoleteTypesEE5applyEPNS_22hb_aat_apply_context_tE
_ZNK3AAT4ankr8sanitizeEP21hb_sanitize_context_t
_ZNK3AAT4trak5applyEPNS_22hb_aat_apply_context_tE
_ZNK3AAT4trak8sanitizeEP21hb_sanitize_context_t
_ZNK3AAT5ChainINS_13ExtendedTypesEE13compile_flagsEPK20hb_aat_map_builder_t
_ZNK3AAT5ChainINS_13ExtendedTypesEE5applyEPNS_22hb_aat_apply_context_tEj
_ZNK3AAT5ChainINS_13ExtendedTypesEE8sanitizeEP21hb_sanitize_context_tj
_ZNK3AAT5ChainINS_13ObsoleteTypesEE13compile_flagsEPK20hb_aat_map_builder_t
_ZNK3AAT5ChainINS_13ObsoleteTypesEE5applyEPNS_22hb_aat_apply_context_tEj
_ZNK3AAT5ChainINS_13ObsoleteTypesEE8sanitizeEP21hb_sanitize_context_tj
_ZNK3AAT6LookupIN2OT11HBGlyphID16EE8sanitizeEP21hb_sanitize_context_t
_ZNK3AAT6LookupIN2OT11HBGlyphID16EE9get_valueEjj
_ZNK3AAT6LookupIN2OT7IntTypeIjLj4EEEE17get_value_or_nullEjj
_ZNK3AAT6LookupIN2OT7IntTypeIjLj4EEEE8sanitizeEP21hb_sanitize_context_t
_ZNK3AAT6LookupIN2OT7IntTypeIjLj4EEEE9get_valueEjj
_ZNK3AAT6LookupIN2OT7IntTypeItLj2EEEE8sanitizeEP21hb_sanitize_context_t
_ZNK3AAT6LookupIN2OT7IntTypeItLj2EEEE9get_valueEjj
_ZNK3AAT6LookupIN2OT8OffsetToINS1_7ArrayOfINS_6AnchorENS1_7IntTypeIjLj4EEEEENS5_ItLj2EEELb0EEEE8sanitizeEP21hb_sanitize_context_tPKv
_ZNK3AAT6LookupIN2OT8OffsetToINS1_7ArrayOfINS_6AnchorENS1_7IntTypeIjLj4EEEEENS5_ItLj2EEELb0EEEE9get_valueEjj
_ZNK3AAT8mortmorxINS_13ExtendedTypesELj1836020344EE13compile_flagsEPK20hb_aat_map_builder_tP12hb_aat_map_t
_ZNK3AAT8mortmorxINS_13ExtendedTypesELj1836020344EE8sanitizeEP21hb_sanitize_context_t
_ZNK3AAT8mortmorxINS_13ObsoleteTypesELj1836020340EE13compile_flagsEPK20hb_aat_map_builder_tP12hb_aat_map_t
_ZNK3AAT8mortmorxINS_13ObsoleteTypesELj1836020340EE8sanitizeEP21hb_sanitize_context_t
_ZNK3AAT9KerxTableIN2OT6KernOTEE5applyEPNS_22hb_aat_apply_context_tE
_ZNK3AAT9KerxTableIN2OT6KernOTEE8sanitizeEP21hb_sanitize_context_t
_ZNK3AAT9KerxTableIN2OT7KernAATEE5applyEPNS_22hb_aat_apply_context_tE
_ZNK3AAT9KerxTableIN2OT7KernAATEE8sanitizeEP21hb_sanitize_context_t
_ZNK3AAT9KerxTableINS_4kerxEE5applyEPNS_22hb_aat_apply_context_tE
_ZNK3AAT9KerxTableINS_4kerxEE8sanitizeEP21hb_sanitize_context_t
_ZNK3AAT9TrackData12get_trackingEPKvf
_ZNK3AAT9TrackData14interpolate_atEjfRKNS_15TrackTableEntryEPKv
_ZNK3AAT9TrackData8sanitizeEP21hb_sanitize_context_tPKv
_ZNK3CFF11FDSelect3_4IN2OT7IntTypeIjLj4EEENS2_ItLj2EEEE6get_fdEj
_ZNK3CFF11FDSelect3_4IN2OT7IntTypeIjLj4EEENS2_ItLj2EEEE8sanitizeEP21hb_sanitize_context_tj
_ZNK3CFF11FDSelect3_4IN2OT7IntTypeItLj2EEENS2_IhLj1EEEE8sanitizeEP21hb_sanitize_context_tj
_ZNK3CFF12CFF2FDSelect8sanitizeEP21hb_sanitize_context_tj
_ZNK3CFF18CFF2VariationStore8sanitizeEP21hb_sanitize_context_t
_ZNK3CFF7Charset7get_sidEjj
_ZNK3CFF7Charset8sanitizeEP21hb_sanitize_context_t
_ZNK3CFF7Charset9get_glyphEjj
_ZNK3CFF8CFFIndexIN2OT7IntTypeIjLj4EEEE8sanitizeEP21hb_sanitize_context_t
_ZNK3CFF8CFFIndexIN2OT7IntTypeIjLj4EEEE9length_atEj
_ZNK3CFF8CFFIndexIN2OT7IntTypeIjLj4EEEEixEj
_ZNK3CFF8CFFIndexIN2OT7IntTypeItLj2EEEE8get_sizeEv
_ZNK3CFF8CFFIndexIN2OT7IntTypeItLj2EEEE8sanitizeEP21hb_sanitize_context_t
_ZNK3CFF8CFFIndexIN2OT7IntTypeItLj2EEEE9length_atEj
_ZNK3CFF8CFFIndexIN2OT7IntTypeItLj2EEEEixEj
_ZNK3CFF8Encoding8sanitizeEP21hb_sanitize_context_t
_ZNK3CFF8FDSelect8sanitizeEP21hb_sanitize_context_tj
_ZNK9hb_face_t15load_num_glyphsEv
_ZNK9hb_face_t9load_upemEv
_hb_CrapPool DATA
_hb_NullPool DATA
_hb_Null_AAT_Lookup DATA
_hb_Null_AAT_SettingName DATA
_hb_Null_OT_CmapSubtableLongGroup DATA
_hb_Null_OT_Index DATA
_hb_Null_OT_LangSys DATA
_hb_Null_OT_RangeRecord DATA
_hb_Null_OT_VarIdx DATA
_hb_Null_hb_buffer_t DATA
_hb_Null_hb_draw_funcs_t DATA
_hb_Null_hb_face_t DATA
_hb_Null_hb_font_funcs_t DATA
_hb_Null_hb_font_t DATA
_hb_Null_hb_unicode_funcs_t DATA
_hb_fallback_shape
_hb_fallback_shaper_face_data_create
_hb_fallback_shaper_face_data_destroy
_hb_fallback_shaper_font_data_create
_hb_fallback_shaper_font_data_destroy
_hb_modified_combining_class DATA
_hb_options DATA
_hb_ot_shape
_hb_ot_shaper_arabic DATA
_hb_ot_shaper_default DATA
_hb_ot_shaper_dumber DATA
_hb_ot_shaper_face_data_create
_hb_ot_shaper_face_data_destroy
_hb_ot_shaper_font_data_create
_hb_ot_shaper_font_data_destroy
_hb_ot_shaper_hangul DATA
_hb_ot_shaper_hebrew DATA
_hb_ot_shaper_indic DATA
_hb_ot_shaper_khmer DATA
_hb_ot_shaper_myanmar DATA
_hb_ot_shaper_myanmar_zawgyi DATA
_hb_ot_shaper_thai DATA
_hb_ot_shaper_use DATA
hb_aat_layout_feature_type_get_name_id
hb_aat_layout_feature_type_get_selector_infos
hb_aat_layout_get_feature_types
hb_aat_layout_has_positioning
hb_aat_layout_has_substitution
hb_aat_layout_has_tracking
hb_blob_copy_writable_or_fail
hb_blob_create
hb_blob_create_from_file
hb_blob_create_from_file_or_fail
hb_blob_create_or_fail
hb_blob_create_sub_blob
hb_blob_destroy
hb_blob_get_data
hb_blob_get_data_writable
hb_blob_get_empty
hb_blob_get_length
hb_blob_get_user_data
hb_blob_is_immutable
hb_blob_make_immutable
hb_blob_reference
hb_blob_set_user_data
hb_buffer_add
hb_buffer_add_codepoints
hb_buffer_add_latin1
hb_buffer_add_utf16
hb_buffer_add_utf32
hb_buffer_add_utf8
hb_buffer_allocation_successful
hb_buffer_append
hb_buffer_clear_contents
hb_buffer_create
hb_buffer_create_similar
hb_buffer_deserialize_glyphs
hb_buffer_deserialize_unicode
hb_buffer_destroy
hb_buffer_diff
hb_buffer_get_cluster_level
hb_buffer_get_content_type
hb_buffer_get_direction
hb_buffer_get_empty
hb_buffer_get_flags
hb_buffer_get_glyph_infos
hb_buffer_get_glyph_positions
hb_buffer_get_invisible_glyph
hb_buffer_get_language
hb_buffer_get_length
hb_buffer_get_not_found_glyph
hb_buffer_get_replacement_codepoint
hb_buffer_get_script
hb_buffer_get_segment_properties
hb_buffer_get_unicode_funcs
hb_buffer_get_user_data
hb_buffer_guess_segment_properties
hb_buffer_has_positions
hb_buffer_normalize_glyphs
hb_buffer_pre_allocate
hb_buffer_reference
hb_buffer_reset
hb_buffer_reverse
hb_buffer_reverse_clusters
hb_buffer_reverse_range
hb_buffer_serialize
hb_buffer_serialize_format_from_string
hb_buffer_serialize_format_to_string
hb_buffer_serialize_glyphs
hb_buffer_serialize_list_formats
hb_buffer_serialize_unicode
hb_buffer_set_cluster_level
hb_buffer_set_content_type
hb_buffer_set_direction
hb_buffer_set_flags
hb_buffer_set_invisible_glyph
hb_buffer_set_language
hb_buffer_set_length
hb_buffer_set_message_func
hb_buffer_set_not_found_glyph
hb_buffer_set_replacement_codepoint
hb_buffer_set_script
hb_buffer_set_segment_properties
hb_buffer_set_unicode_funcs
hb_buffer_set_user_data
hb_color_get_alpha
hb_color_get_blue
hb_color_get_green
hb_color_get_red
hb_direction_from_string
hb_direction_to_string
hb_draw_close_path
hb_draw_cubic_to
hb_draw_funcs_create
hb_draw_funcs_destroy
hb_draw_funcs_is_immutable
hb_draw_funcs_make_immutable
hb_draw_funcs_reference
hb_draw_funcs_set_close_path_func
hb_draw_funcs_set_cubic_to_func
hb_draw_funcs_set_line_to_func
hb_draw_funcs_set_move_to_func
hb_draw_funcs_set_quadratic_to_func
hb_draw_line_to
hb_draw_move_to
hb_draw_quadratic_to
hb_face_builder_add_table
hb_face_builder_create
hb_face_collect_unicodes
hb_face_collect_variation_selectors
hb_face_collect_variation_unicodes
hb_face_count
hb_face_create
hb_face_create_for_tables
hb_face_destroy
hb_face_get_empty
hb_face_get_glyph_count
hb_face_get_index
hb_face_get_table_tags
hb_face_get_upem
hb_face_get_user_data
hb_face_is_immutable
hb_face_make_immutable
hb_face_reference
hb_face_reference_blob
hb_face_reference_table
hb_face_set_glyph_count
hb_face_set_index
hb_face_set_upem
hb_face_set_user_data
hb_feature_from_string
hb_feature_to_string
hb_font_add_glyph_origin_for_direction
hb_font_changed
hb_font_create
hb_font_create_sub_font
hb_font_destroy
hb_font_funcs_create
hb_font_funcs_destroy
hb_font_funcs_get_empty
hb_font_funcs_get_user_data
hb_font_funcs_is_immutable
hb_font_funcs_make_immutable
hb_font_funcs_reference
hb_font_funcs_set_font_h_extents_func
hb_font_funcs_set_font_v_extents_func
hb_font_funcs_set_glyph_contour_point_func
hb_font_funcs_set_glyph_extents_func
hb_font_funcs_set_glyph_from_name_func
hb_font_funcs_set_glyph_func
hb_font_funcs_set_glyph_h_advance_func
hb_font_funcs_set_glyph_h_advances_func
hb_font_funcs_set_glyph_h_kerning_func
hb_font_funcs_set_glyph_h_origin_func
hb_font_funcs_set_glyph_name_func
hb_font_funcs_set_glyph_shape_func
hb_font_funcs_set_glyph_v_advance_func
hb_font_funcs_set_glyph_v_advances_func
hb_font_funcs_set_glyph_v_kerning_func
hb_font_funcs_set_glyph_v_origin_func
hb_font_funcs_set_nominal_glyph_func
hb_font_funcs_set_nominal_glyphs_func
hb_font_funcs_set_user_data
hb_font_funcs_set_variation_glyph_func
hb_font_get_empty
hb_font_get_extents_for_direction
hb_font_get_face
hb_font_get_glyph
hb_font_get_glyph_advance_for_direction
hb_font_get_glyph_advances_for_direction
hb_font_get_glyph_contour_point
hb_font_get_glyph_contour_point_for_origin
hb_font_get_glyph_extents
hb_font_get_glyph_extents_for_origin
hb_font_get_glyph_from_name
hb_font_get_glyph_h_advance
hb_font_get_glyph_h_advances
hb_font_get_glyph_h_kerning
hb_font_get_glyph_h_origin
hb_font_get_glyph_kerning_for_direction
hb_font_get_glyph_name
hb_font_get_glyph_origin_for_direction
hb_font_get_glyph_shape
hb_font_get_glyph_v_advance
hb_font_get_glyph_v_advances
hb_font_get_glyph_v_kerning
hb_font_get_glyph_v_origin
hb_font_get_h_extents
hb_font_get_nominal_glyph
hb_font_get_nominal_glyphs
hb_font_get_parent
hb_font_get_ppem
hb_font_get_ptem
hb_font_get_scale
hb_font_get_serial
hb_font_get_synthetic_slant
hb_font_get_user_data
hb_font_get_v_extents
hb_font_get_var_coords_design
hb_font_get_var_coords_normalized
hb_font_get_variation_glyph
hb_font_glyph_from_string
hb_font_glyph_to_string
hb_font_is_immutable
hb_font_make_immutable
hb_font_reference
hb_font_set_face
hb_font_set_funcs
hb_font_set_funcs_data
hb_font_set_parent
hb_font_set_ppem
hb_font_set_ptem
hb_font_set_scale
hb_font_set_synthetic_slant
hb_font_set_user_data
hb_font_set_var_coords_design
hb_font_set_var_coords_normalized
hb_font_set_var_named_instance
hb_font_set_variations
hb_font_subtract_glyph_origin_for_direction
hb_ft_face_create
hb_ft_face_create_cached
hb_ft_face_create_referenced
hb_ft_font_changed
hb_ft_font_create
hb_ft_font_create_referenced
hb_ft_font_get_face
hb_ft_font_get_load_flags
hb_ft_font_lock_face
hb_ft_font_set_funcs
hb_ft_font_set_load_flags
hb_ft_font_unlock_face
hb_ft_hb_font_changed
hb_glib_blob_create
hb_glib_get_unicode_funcs
hb_glib_script_from_script
hb_glib_script_to_script
hb_glyph_info_get_glyph_flags
hb_language_from_string
hb_language_get_default
hb_language_matches
hb_language_to_string
hb_map_allocation_successful
hb_map_clear
hb_map_copy
hb_map_create
hb_map_del
hb_map_destroy
hb_map_get
hb_map_get_empty
hb_map_get_population
hb_map_get_user_data
hb_map_has
hb_map_hash
hb_map_is_empty
hb_map_is_equal
hb_map_reference
hb_map_set
hb_map_set_user_data
hb_ot_color_glyph_get_layers
hb_ot_color_glyph_reference_png
hb_ot_color_glyph_reference_svg
hb_ot_color_has_layers
hb_ot_color_has_palettes
hb_ot_color_has_png
hb_ot_color_has_svg
hb_ot_color_palette_color_get_name_id
hb_ot_color_palette_get_colors
hb_ot_color_palette_get_count
hb_ot_color_palette_get_flags
hb_ot_color_palette_get_name_id
hb_ot_font_set_funcs
hb_ot_layout_collect_features
hb_ot_layout_collect_lookups
hb_ot_layout_feature_get_characters
hb_ot_layout_feature_get_lookups
hb_ot_layout_feature_get_name_ids
hb_ot_layout_feature_with_variations_get_lookups
hb_ot_layout_get_attach_points
hb_ot_layout_get_baseline
hb_ot_layout_get_baseline_with_fallback
hb_ot_layout_get_glyph_class
hb_ot_layout_get_glyphs_in_class
hb_ot_layout_get_horizontal_baseline_tag_for_script
hb_ot_layout_get_ligature_carets
hb_ot_layout_get_size_params
hb_ot_layout_has_glyph_classes
hb_ot_layout_has_positioning
hb_ot_layout_has_substitution
hb_ot_layout_language_find_feature
hb_ot_layout_language_get_feature_indexes
hb_ot_layout_language_get_feature_tags
hb_ot_layout_language_get_required_feature
hb_ot_layout_language_get_required_feature_index
hb_ot_layout_lookup_collect_glyphs
hb_ot_layout_lookup_get_glyph_alternates
hb_ot_layout_lookup_substitute_closure
hb_ot_layout_lookup_would_substitute
hb_ot_layout_lookups_substitute_closure
hb_ot_layout_script_find_language
hb_ot_layout_script_get_language_tags
hb_ot_layout_script_select_language
hb_ot_layout_table_choose_script
hb_ot_layout_table_find_feature_variations
hb_ot_layout_table_find_script
hb_ot_layout_table_get_feature_tags
hb_ot_layout_table_get_lookup_count
hb_ot_layout_table_get_script_tags
hb_ot_layout_table_select_script
hb_ot_math_get_constant
hb_ot_math_get_glyph_assembly
hb_ot_math_get_glyph_italics_correction
hb_ot_math_get_glyph_kerning
hb_ot_math_get_glyph_kernings
hb_ot_math_get_glyph_top_accent_attachment
hb_ot_math_get_glyph_variants
hb_ot_math_get_min_connector_overlap
hb_ot_math_has_data
hb_ot_math_is_glyph_extended_shape
hb_ot_meta_get_entry_tags
hb_ot_meta_reference_entry
hb_ot_metrics_get_position
hb_ot_metrics_get_position_with_fallback
hb_ot_metrics_get_variation
hb_ot_metrics_get_x_variation
hb_ot_metrics_get_y_variation
hb_ot_name_get_utf16
hb_ot_name_get_utf32
hb_ot_name_get_utf8
hb_ot_name_list_names
hb_ot_shape_glyphs_closure
hb_ot_shape_plan_collect_lookups
hb_ot_tag_from_language
hb_ot_tag_to_language
hb_ot_tag_to_script
hb_ot_tags_from_script
hb_ot_tags_from_script_and_language
hb_ot_tags_to_script_and_language
hb_ot_var_find_axis
hb_ot_var_find_axis_info
hb_ot_var_get_axes
hb_ot_var_get_axis_count
hb_ot_var_get_axis_infos
hb_ot_var_get_named_instance_count
hb_ot_var_has_data
hb_ot_var_named_instance_get_design_coords
hb_ot_var_named_instance_get_postscript_name_id
hb_ot_var_named_instance_get_subfamily_name_id
hb_ot_var_normalize_coords
hb_ot_var_normalize_variations
hb_script_from_iso15924_tag
hb_script_from_string
hb_script_get_horizontal_direction
hb_script_to_iso15924_tag
hb_segment_properties_equal
hb_segment_properties_hash
hb_segment_properties_overlay
hb_set_add
hb_set_add_range
hb_set_add_sorted_array
hb_set_allocation_successful
hb_set_clear
hb_set_copy
hb_set_create
hb_set_del
hb_set_del_range
hb_set_destroy
hb_set_get_empty
hb_set_get_max
hb_set_get_min
hb_set_get_population
hb_set_get_user_data
hb_set_has
hb_set_hash
hb_set_intersect
hb_set_invert
hb_set_is_empty
hb_set_is_equal
hb_set_is_subset
hb_set_next
hb_set_next_many
hb_set_next_range
hb_set_previous
hb_set_previous_range
hb_set_reference
hb_set_set
hb_set_set_user_data
hb_set_subtract
hb_set_symmetric_difference
hb_set_union
hb_shape
hb_shape_full
hb_shape_list_shapers
hb_shape_plan_create
hb_shape_plan_create2
hb_shape_plan_create_cached
hb_shape_plan_create_cached2
hb_shape_plan_destroy
hb_shape_plan_execute
hb_shape_plan_get_empty
hb_shape_plan_get_shaper
hb_shape_plan_get_user_data
hb_shape_plan_reference
hb_shape_plan_set_user_data
hb_style_get_value
hb_tag_from_string
hb_tag_to_string
hb_ucd_get_unicode_funcs
hb_unicode_combining_class
hb_unicode_compose
hb_unicode_decompose
hb_unicode_decompose_compatibility
hb_unicode_eastasian_width
hb_unicode_funcs_create
hb_unicode_funcs_destroy
hb_unicode_funcs_get_default
hb_unicode_funcs_get_empty
hb_unicode_funcs_get_parent
hb_unicode_funcs_get_user_data
hb_unicode_funcs_is_immutable
hb_unicode_funcs_make_immutable
hb_unicode_funcs_reference
hb_unicode_funcs_set_combining_class_func
hb_unicode_funcs_set_compose_func
hb_unicode_funcs_set_decompose_compatibility_func
hb_unicode_funcs_set_decompose_func
hb_unicode_funcs_set_eastasian_width_func
hb_unicode_funcs_set_general_category_func
hb_unicode_funcs_set_mirroring_func
hb_unicode_funcs_set_script_func
hb_unicode_funcs_set_user_data
hb_unicode_general_category
hb_unicode_mirroring
hb_unicode_script
hb_variation_from_string
hb_variation_to_string
hb_version
hb_version_atleast
hb_version_string
minus_1 DATA
