;
; Definition file of libIlmThread-3_1.dll
; Automatic generated by gendef
; written by Kai Tietz 2008
;
LIBRARY "libIlmThread-3_1.dll"
EXPORTS
_ZN13IlmThread_3_110ThreadPool13addGlobalTaskEPNS_4TaskE
_ZN13IlmThread_3_110ThreadPool13setNumThreadsEi
_ZN13IlmThread_3_110ThreadPool16globalThreadPoolEv
_ZN13IlmThread_3_110ThreadPool17setThreadProviderEPNS_18ThreadPoolProviderE
_ZN13IlmThread_3_110ThreadPool28estimateThreadCountForFileIOEv
_ZN13IlmThread_3_110ThreadPool7addTaskEPNS_4TaskE
_ZN13IlmThread_3_110ThreadPoolC1Ej
_ZN13IlmThread_3_110ThreadPoolC2Ej
_ZN13IlmThread_3_110ThreadPoolD0Ev
_ZN13IlmThread_3_110ThreadPoolD1Ev
_ZN13IlmThread_3_110ThreadPoolD2Ev
_ZN13IlmThread_3_115supportsThreadsEv
_ZN13IlmThread_3_118ThreadPoolProviderC2Ev
_ZN13IlmThread_3_118ThreadPoolProviderD0Ev
_ZN13IlmThread_3_118ThreadPoolProviderD1Ev
_ZN13IlmThread_3_118ThreadPoolProviderD2Ev
_ZN13IlmThread_3_14Task5groupEv
_ZN13IlmThread_3_14TaskC2EPNS_9TaskGroupE
_ZN13IlmThread_3_14TaskD0Ev
_ZN13IlmThread_3_14TaskD1Ev
_ZN13IlmThread_3_14TaskD2Ev
_ZN13IlmThread_3_16Thread4joinEv
_ZN13IlmThread_3_16Thread5startEv
_ZN13IlmThread_3_16ThreadC2Ev
_ZN13IlmThread_3_16ThreadD0Ev
_ZN13IlmThread_3_16ThreadD1Ev
_ZN13IlmThread_3_16ThreadD2Ev
_ZN13IlmThread_3_19Semaphore4postEv
_ZN13IlmThread_3_19Semaphore4waitEv
_ZN13IlmThread_3_19Semaphore7tryWaitEv
_ZN13IlmThread_3_19SemaphoreC1Ej
_ZN13IlmThread_3_19SemaphoreC2Ej
_ZN13IlmThread_3_19SemaphoreD0Ev
_ZN13IlmThread_3_19SemaphoreD1Ev
_ZN13IlmThread_3_19SemaphoreD2Ev
_ZN13IlmThread_3_19TaskGroup13finishOneTaskEv
_ZN13IlmThread_3_19TaskGroupC1Ev
_ZN13IlmThread_3_19TaskGroupC2Ev
_ZN13IlmThread_3_19TaskGroupD1Ev
_ZN13IlmThread_3_19TaskGroupD2Ev
_ZNK13IlmThread_3_110ThreadPool10numThreadsEv
_ZNK13IlmThread_3_16Thread8joinableEv
_ZNK13IlmThread_3_19Semaphore5valueEv
