;
; Definition file of libIex-3_1.dll
; Automatic generated by gendef
; written by Kai Tietz 2008
;
LIBRARY "libIex-3_1.dll"
EXPORTS
_Z13iex_debugTrapv
_ZN7Iex_3_110DivzeroExcC1EONSt3__112basic_stringIcNS1_11char_traitsIcEENS1_9allocatorIcEEEE
_ZN7Iex_3_110DivzeroExcC1EOS0_
_ZN7Iex_3_110DivzeroExcC1EPKc
_ZN7Iex_3_110DivzeroExcC1ERKNSt3__112basic_stringIcNS1_11char_traitsIcEENS1_9allocatorIcEEEE
_ZN7Iex_3_110DivzeroExcC1ERKS0_
_ZN7Iex_3_110DivzeroExcC1ERNSt3__118basic_stringstreamIcNS1_11char_traitsIcEENS1_9allocatorIcEEEE
_ZN7Iex_3_110DivzeroExcC1Ev
_ZN7Iex_3_110DivzeroExcC2EONSt3__112basic_stringIcNS1_11char_traitsIcEENS1_9allocatorIcEEEE
_ZN7Iex_3_110DivzeroExcC2EOS0_
_ZN7Iex_3_110DivzeroExcC2EPKc
_ZN7Iex_3_110DivzeroExcC2ERKNSt3__112basic_stringIcNS1_11char_traitsIcEENS1_9allocatorIcEEEE
_ZN7Iex_3_110DivzeroExcC2ERKS0_
_ZN7Iex_3_110DivzeroExcC2ERNSt3__118basic_stringstreamIcNS1_11char_traitsIcEENS1_9allocatorIcEEEE
_ZN7Iex_3_110DivzeroExcC2Ev
_ZN7Iex_3_110DivzeroExcD0Ev
_ZN7Iex_3_110DivzeroExcD1Ev
_ZN7Iex_3_110DivzeroExcD2Ev
_ZN7Iex_3_110DivzeroExcaSEOS0_
_ZN7Iex_3_110DivzeroExcaSERS0_
_ZN7Iex_3_110EbadmsgExcC1EONSt3__112basic_stringIcNS1_11char_traitsIcEENS1_9allocatorIcEEEE
_ZN7Iex_3_110EbadmsgExcC1EOS0_
_ZN7Iex_3_110EbadmsgExcC1EPKc
_ZN7Iex_3_110EbadmsgExcC1ERKNSt3__112basic_stringIcNS1_11char_traitsIcEENS1_9allocatorIcEEEE
_ZN7Iex_3_110EbadmsgExcC1ERKS0_
_ZN7Iex_3_110EbadmsgExcC1ERNSt3__118basic_stringstreamIcNS1_11char_traitsIcEENS1_9allocatorIcEEEE
_ZN7Iex_3_110EbadmsgExcC1Ev
_ZN7Iex_3_110EbadmsgExcC2EONSt3__112basic_stringIcNS1_11char_traitsIcEENS1_9allocatorIcEEEE
_ZN7Iex_3_110EbadmsgExcC2EOS0_
_ZN7Iex_3_110EbadmsgExcC2EPKc
_ZN7Iex_3_110EbadmsgExcC2ERKNSt3__112basic_stringIcNS1_11char_traitsIcEENS1_9allocatorIcEEEE
_ZN7Iex_3_110EbadmsgExcC2ERKS0_
_ZN7Iex_3_110EbadmsgExcC2ERNSt3__118basic_stringstreamIcNS1_11char_traitsIcEENS1_9allocatorIcEEEE
_ZN7Iex_3_110EbadmsgExcC2Ev
_ZN7Iex_3_110EbadmsgExcD0Ev
_ZN7Iex_3_110EbadmsgExcD1Ev
_ZN7Iex_3_110EbadmsgExcD2Ev
_ZN7Iex_3_110EbadmsgExcaSEOS0_
_ZN7Iex_3_110EbadmsgExcaSERS0_
_ZN7Iex_3_110EbadrqcExcC1EONSt3__112basic_stringIcNS1_11char_traitsIcEENS1_9allocatorIcEEEE
_ZN7Iex_3_110EbadrqcExcC1EOS0_
_ZN7Iex_3_110EbadrqcExcC1EPKc
_ZN7Iex_3_110EbadrqcExcC1ERKNSt3__112basic_stringIcNS1_11char_traitsIcEENS1_9allocatorIcEEEE
_ZN7Iex_3_110EbadrqcExcC1ERKS0_
_ZN7Iex_3_110EbadrqcExcC1ERNSt3__118basic_stringstreamIcNS1_11char_traitsIcEENS1_9allocatorIcEEEE
_ZN7Iex_3_110EbadrqcExcC1Ev
_ZN7Iex_3_110EbadrqcExcC2EONSt3__112basic_stringIcNS1_11char_traitsIcEENS1_9allocatorIcEEEE
_ZN7Iex_3_110EbadrqcExcC2EOS0_
_ZN7Iex_3_110EbadrqcExcC2EPKc
_ZN7Iex_3_110EbadrqcExcC2ERKNSt3__112basic_stringIcNS1_11char_traitsIcEENS1_9allocatorIcEEEE
_ZN7Iex_3_110EbadrqcExcC2ERKS0_
_ZN7Iex_3_110EbadrqcExcC2ERNSt3__118basic_stringstreamIcNS1_11char_traitsIcEENS1_9allocatorIcEEEE
_ZN7Iex_3_110EbadrqcExcC2Ev
_ZN7Iex_3_110EbadrqcExcD0Ev
_ZN7Iex_3_110EbadrqcExcD1Ev
_ZN7Iex_3_110EbadrqcExcD2Ev
_ZN7Iex_3_110EbadrqcExcaSEOS0_
_ZN7Iex_3_110EbadrqcExcaSERS0_
_ZN7Iex_3_110EbadsltExcC1EONSt3__112basic_stringIcNS1_11char_traitsIcEENS1_9allocatorIcEEEE
_ZN7Iex_3_110EbadsltExcC1EOS0_
_ZN7Iex_3_110EbadsltExcC1EPKc
_ZN7Iex_3_110EbadsltExcC1ERKNSt3__112basic_stringIcNS1_11char_traitsIcEENS1_9allocatorIcEEEE
_ZN7Iex_3_110EbadsltExcC1ERKS0_
_ZN7Iex_3_110EbadsltExcC1ERNSt3__118basic_stringstreamIcNS1_11char_traitsIcEENS1_9allocatorIcEEEE
_ZN7Iex_3_110EbadsltExcC1Ev
_ZN7Iex_3_110EbadsltExcC2EONSt3__112basic_stringIcNS1_11char_traitsIcEENS1_9allocatorIcEEEE
_ZN7Iex_3_110EbadsltExcC2EOS0_
_ZN7Iex_3_110EbadsltExcC2EPKc
_ZN7Iex_3_110EbadsltExcC2ERKNSt3__112basic_stringIcNS1_11char_traitsIcEENS1_9allocatorIcEEEE
_ZN7Iex_3_110EbadsltExcC2ERKS0_
_ZN7Iex_3_110EbadsltExcC2ERNSt3__118basic_stringstreamIcNS1_11char_traitsIcEENS1_9allocatorIcEEEE
_ZN7Iex_3_110EbadsltExcC2Ev
_ZN7Iex_3_110EbadsltExcD0Ev
_ZN7Iex_3_110EbadsltExcD1Ev
_ZN7Iex_3_110EbadsltExcD2Ev
_ZN7Iex_3_110EbadsltExcaSEOS0_
_ZN7Iex_3_110EbadsltExcaSERS0_
_ZN7Iex_3_110EdeadlkExcC1EONSt3__112basic_stringIcNS1_11char_traitsIcEENS1_9allocatorIcEEEE
_ZN7Iex_3_110EdeadlkExcC1EOS0_
_ZN7Iex_3_110EdeadlkExcC1EPKc
_ZN7Iex_3_110EdeadlkExcC1ERKNSt3__112basic_stringIcNS1_11char_traitsIcEENS1_9allocatorIcEEEE
_ZN7Iex_3_110EdeadlkExcC1ERKS0_
_ZN7Iex_3_110EdeadlkExcC1ERNSt3__118basic_stringstreamIcNS1_11char_traitsIcEENS1_9allocatorIcEEEE
_ZN7Iex_3_110EdeadlkExcC1Ev
_ZN7Iex_3_110EdeadlkExcC2EONSt3__112basic_stringIcNS1_11char_traitsIcEENS1_9allocatorIcEEEE
_ZN7Iex_3_110EdeadlkExcC2EOS0_
_ZN7Iex_3_110EdeadlkExcC2EPKc
_ZN7Iex_3_110EdeadlkExcC2ERKNSt3__112basic_stringIcNS1_11char_traitsIcEENS1_9allocatorIcEEEE
_ZN7Iex_3_110EdeadlkExcC2ERKS0_
_ZN7Iex_3_110EdeadlkExcC2ERNSt3__118basic_stringstreamIcNS1_11char_traitsIcEENS1_9allocatorIcEEEE
_ZN7Iex_3_110EdeadlkExcC2Ev
_ZN7Iex_3_110EdeadlkExcD0Ev
_ZN7Iex_3_110EdeadlkExcD1Ev
_ZN7Iex_3_110EdeadlkExcD2Ev
_ZN7Iex_3_110EdeadlkExcaSEOS0_
_ZN7Iex_3_110EdeadlkExcaSERS0_
_ZN7Iex_3_110EisconnExcC1EONSt3__112basic_stringIcNS1_11char_traitsIcEENS1_9allocatorIcEEEE
_ZN7Iex_3_110EisconnExcC1EOS0_
_ZN7Iex_3_110EisconnExcC1EPKc
_ZN7Iex_3_110EisconnExcC1ERKNSt3__112basic_stringIcNS1_11char_traitsIcEENS1_9allocatorIcEEEE
_ZN7Iex_3_110EisconnExcC1ERKS0_
_ZN7Iex_3_110EisconnExcC1ERNSt3__118basic_stringstreamIcNS1_11char_traitsIcEENS1_9allocatorIcEEEE
_ZN7Iex_3_110EisconnExcC1Ev
_ZN7Iex_3_110EisconnExcC2EONSt3__112basic_stringIcNS1_11char_traitsIcEENS1_9allocatorIcEEEE
_ZN7Iex_3_110EisconnExcC2EOS0_
_ZN7Iex_3_110EisconnExcC2EPKc
_ZN7Iex_3_110EisconnExcC2ERKNSt3__112basic_stringIcNS1_11char_traitsIcEENS1_9allocatorIcEEEE
_ZN7Iex_3_110EisconnExcC2ERKS0_
_ZN7Iex_3_110EisconnExcC2ERNSt3__118basic_stringstreamIcNS1_11char_traitsIcEENS1_9allocatorIcEEEE
_ZN7Iex_3_110EisconnExcC2Ev
_ZN7Iex_3_110EisconnExcD0Ev
_ZN7Iex_3_110EisconnExcD1Ev
_ZN7Iex_3_110EisconnExcD2Ev
_ZN7Iex_3_110EisconnExcaSEOS0_
_ZN7Iex_3_110EisconnExcaSERS0_
_ZN7Iex_3_110EjoinedExcC1EONSt3__112basic_stringIcNS1_11char_traitsIcEENS1_9allocatorIcEEEE
_ZN7Iex_3_110EjoinedExcC1EOS0_
_ZN7Iex_3_110EjoinedExcC1EPKc
_ZN7Iex_3_110EjoinedExcC1ERKNSt3__112basic_stringIcNS1_11char_traitsIcEENS1_9allocatorIcEEEE
_ZN7Iex_3_110EjoinedExcC1ERKS0_
_ZN7Iex_3_110EjoinedExcC1ERNSt3__118basic_stringstreamIcNS1_11char_traitsIcEENS1_9allocatorIcEEEE
_ZN7Iex_3_110EjoinedExcC1Ev
_ZN7Iex_3_110EjoinedExcC2EONSt3__112basic_stringIcNS1_11char_traitsIcEENS1_9allocatorIcEEEE
_ZN7Iex_3_110EjoinedExcC2EOS0_
_ZN7Iex_3_110EjoinedExcC2EPKc
_ZN7Iex_3_110EjoinedExcC2ERKNSt3__112basic_stringIcNS1_11char_traitsIcEENS1_9allocatorIcEEEE
_ZN7Iex_3_110EjoinedExcC2ERKS0_
_ZN7Iex_3_110EjoinedExcC2ERNSt3__118basic_stringstreamIcNS1_11char_traitsIcEENS1_9allocatorIcEEEE
_ZN7Iex_3_110EjoinedExcC2Ev
_ZN7Iex_3_110EjoinedExcD0Ev
_ZN7Iex_3_110EjoinedExcD1Ev
_ZN7Iex_3_110EjoinedExcD2Ev
_ZN7Iex_3_110EjoinedExcaSEOS0_
_ZN7Iex_3_110EjoinedExcaSERS0_
_ZN7Iex_3_110ElibaccExcC1EONSt3__112basic_stringIcNS1_11char_traitsIcEENS1_9allocatorIcEEEE
_ZN7Iex_3_110ElibaccExcC1EOS0_
_ZN7Iex_3_110ElibaccExcC1EPKc
_ZN7Iex_3_110ElibaccExcC1ERKNSt3__112basic_stringIcNS1_11char_traitsIcEENS1_9allocatorIcEEEE
_ZN7Iex_3_110ElibaccExcC1ERKS0_
_ZN7Iex_3_110ElibaccExcC1ERNSt3__118basic_stringstreamIcNS1_11char_traitsIcEENS1_9allocatorIcEEEE
_ZN7Iex_3_110ElibaccExcC1Ev
_ZN7Iex_3_110ElibaccExcC2EONSt3__112basic_stringIcNS1_11char_traitsIcEENS1_9allocatorIcEEEE
_ZN7Iex_3_110ElibaccExcC2EOS0_
_ZN7Iex_3_110ElibaccExcC2EPKc
_ZN7Iex_3_110ElibaccExcC2ERKNSt3__112basic_stringIcNS1_11char_traitsIcEENS1_9allocatorIcEEEE
_ZN7Iex_3_110ElibaccExcC2ERKS0_
_ZN7Iex_3_110ElibaccExcC2ERNSt3__118basic_stringstreamIcNS1_11char_traitsIcEENS1_9allocatorIcEEEE
_ZN7Iex_3_110ElibaccExcC2Ev
_ZN7Iex_3_110ElibaccExcD0Ev
_ZN7Iex_3_110ElibaccExcD1Ev
_ZN7Iex_3_110ElibaccExcD2Ev
_ZN7Iex_3_110ElibaccExcaSEOS0_
_ZN7Iex_3_110ElibaccExcaSERS0_
_ZN7Iex_3_110ElibbadExcC1EONSt3__112basic_stringIcNS1_11char_traitsIcEENS1_9allocatorIcEEEE
_ZN7Iex_3_110ElibbadExcC1EOS0_
_ZN7Iex_3_110ElibbadExcC1EPKc
_ZN7Iex_3_110ElibbadExcC1ERKNSt3__112basic_stringIcNS1_11char_traitsIcEENS1_9allocatorIcEEEE
_ZN7Iex_3_110ElibbadExcC1ERKS0_
_ZN7Iex_3_110ElibbadExcC1ERNSt3__118basic_stringstreamIcNS1_11char_traitsIcEENS1_9allocatorIcEEEE
_ZN7Iex_3_110ElibbadExcC1Ev
_ZN7Iex_3_110ElibbadExcC2EONSt3__112basic_stringIcNS1_11char_traitsIcEENS1_9allocatorIcEEEE
_ZN7Iex_3_110ElibbadExcC2EOS0_
_ZN7Iex_3_110ElibbadExcC2EPKc
_ZN7Iex_3_110ElibbadExcC2ERKNSt3__112basic_stringIcNS1_11char_traitsIcEENS1_9allocatorIcEEEE
_ZN7Iex_3_110ElibbadExcC2ERKS0_
_ZN7Iex_3_110ElibbadExcC2ERNSt3__118basic_stringstreamIcNS1_11char_traitsIcEENS1_9allocatorIcEEEE
_ZN7Iex_3_110ElibbadExcC2Ev
_ZN7Iex_3_110ElibbadExcD0Ev
_ZN7Iex_3_110ElibbadExcD1Ev
_ZN7Iex_3_110ElibbadExcD2Ev
_ZN7Iex_3_110ElibbadExcaSEOS0_
_ZN7Iex_3_110ElibbadExcaSERS0_
_ZN7Iex_3_110ElibmaxExcC1EONSt3__112basic_stringIcNS1_11char_traitsIcEENS1_9allocatorIcEEEE
_ZN7Iex_3_110ElibmaxExcC1EOS0_
_ZN7Iex_3_110ElibmaxExcC1EPKc
_ZN7Iex_3_110ElibmaxExcC1ERKNSt3__112basic_stringIcNS1_11char_traitsIcEENS1_9allocatorIcEEEE
_ZN7Iex_3_110ElibmaxExcC1ERKS0_
_ZN7Iex_3_110ElibmaxExcC1ERNSt3__118basic_stringstreamIcNS1_11char_traitsIcEENS1_9allocatorIcEEEE
_ZN7Iex_3_110ElibmaxExcC1Ev
_ZN7Iex_3_110ElibmaxExcC2EONSt3__112basic_stringIcNS1_11char_traitsIcEENS1_9allocatorIcEEEE
_ZN7Iex_3_110ElibmaxExcC2EOS0_
_ZN7Iex_3_110ElibmaxExcC2EPKc
_ZN7Iex_3_110ElibmaxExcC2ERKNSt3__112basic_stringIcNS1_11char_traitsIcEENS1_9allocatorIcEEEE
_ZN7Iex_3_110ElibmaxExcC2ERKS0_
_ZN7Iex_3_110ElibmaxExcC2ERNSt3__118basic_stringstreamIcNS1_11char_traitsIcEENS1_9allocatorIcEEEE
_ZN7Iex_3_110ElibmaxExcC2Ev
_ZN7Iex_3_110ElibmaxExcD0Ev
_ZN7Iex_3_110ElibmaxExcD1Ev
_ZN7Iex_3_110ElibmaxExcD2Ev
_ZN7Iex_3_110ElibmaxExcaSEOS0_
_ZN7Iex_3_110ElibmaxExcaSERS0_
_ZN7Iex_3_110ElibscnExcC1EONSt3__112basic_stringIcNS1_11char_traitsIcEENS1_9allocatorIcEEEE
_ZN7Iex_3_110ElibscnExcC1EOS0_
_ZN7Iex_3_110ElibscnExcC1EPKc
_ZN7Iex_3_110ElibscnExcC1ERKNSt3__112basic_stringIcNS1_11char_traitsIcEENS1_9allocatorIcEEEE
_ZN7Iex_3_110ElibscnExcC1ERKS0_
_ZN7Iex_3_110ElibscnExcC1ERNSt3__118basic_stringstreamIcNS1_11char_traitsIcEENS1_9allocatorIcEEEE
_ZN7Iex_3_110ElibscnExcC1Ev
_ZN7Iex_3_110ElibscnExcC2EONSt3__112basic_stringIcNS1_11char_traitsIcEENS1_9allocatorIcEEEE
_ZN7Iex_3_110ElibscnExcC2EOS0_
_ZN7Iex_3_110ElibscnExcC2EPKc
_ZN7Iex_3_110ElibscnExcC2ERKNSt3__112basic_stringIcNS1_11char_traitsIcEENS1_9allocatorIcEEEE
_ZN7Iex_3_110ElibscnExcC2ERKS0_
_ZN7Iex_3_110ElibscnExcC2ERNSt3__118basic_stringstreamIcNS1_11char_traitsIcEENS1_9allocatorIcEEEE
_ZN7Iex_3_110ElibscnExcC2Ev
_ZN7Iex_3_110ElibscnExcD0Ev
_ZN7Iex_3_110ElibscnExcD1Ev
_ZN7Iex_3_110ElibscnExcD2Ev
_ZN7Iex_3_110ElibscnExcaSEOS0_
_ZN7Iex_3_110ElibscnExcaSERS0_
_ZN7Iex_3_110EnavailExcC1EONSt3__112basic_stringIcNS1_11char_traitsIcEENS1_9allocatorIcEEEE
_ZN7Iex_3_110EnavailExcC1EOS0_
_ZN7Iex_3_110EnavailExcC1EPKc
_ZN7Iex_3_110EnavailExcC1ERKNSt3__112basic_stringIcNS1_11char_traitsIcEENS1_9allocatorIcEEEE
_ZN7Iex_3_110EnavailExcC1ERKS0_
_ZN7Iex_3_110EnavailExcC1ERNSt3__118basic_stringstreamIcNS1_11char_traitsIcEENS1_9allocatorIcEEEE
_ZN7Iex_3_110EnavailExcC1Ev
_ZN7Iex_3_110EnavailExcC2EONSt3__112basic_stringIcNS1_11char_traitsIcEENS1_9allocatorIcEEEE
_ZN7Iex_3_110EnavailExcC2EOS0_
_ZN7Iex_3_110EnavailExcC2EPKc
_ZN7Iex_3_110EnavailExcC2ERKNSt3__112basic_stringIcNS1_11char_traitsIcEENS1_9allocatorIcEEEE
_ZN7Iex_3_110EnavailExcC2ERKS0_
_ZN7Iex_3_110EnavailExcC2ERNSt3__118basic_stringstreamIcNS1_11char_traitsIcEENS1_9allocatorIcEEEE
_ZN7Iex_3_110EnavailExcC2Ev
_ZN7Iex_3_110EnavailExcD0Ev
_ZN7Iex_3_110EnavailExcD1Ev
_ZN7Iex_3_110EnavailExcD2Ev
_ZN7Iex_3_110EnavailExcaSEOS0_
_ZN7Iex_3_110EnavailExcaSERS0_
_ZN7Iex_3_110EnoattrExcC1EONSt3__112basic_stringIcNS1_11char_traitsIcEENS1_9allocatorIcEEEE
_ZN7Iex_3_110EnoattrExcC1EOS0_
_ZN7Iex_3_110EnoattrExcC1EPKc
_ZN7Iex_3_110EnoattrExcC1ERKNSt3__112basic_stringIcNS1_11char_traitsIcEENS1_9allocatorIcEEEE
_ZN7Iex_3_110EnoattrExcC1ERKS0_
_ZN7Iex_3_110EnoattrExcC1ERNSt3__118basic_stringstreamIcNS1_11char_traitsIcEENS1_9allocatorIcEEEE
_ZN7Iex_3_110EnoattrExcC1Ev
_ZN7Iex_3_110EnoattrExcC2EONSt3__112basic_stringIcNS1_11char_traitsIcEENS1_9allocatorIcEEEE
_ZN7Iex_3_110EnoattrExcC2EOS0_
_ZN7Iex_3_110EnoattrExcC2EPKc
_ZN7Iex_3_110EnoattrExcC2ERKNSt3__112basic_stringIcNS1_11char_traitsIcEENS1_9allocatorIcEEEE
_ZN7Iex_3_110EnoattrExcC2ERKS0_
_ZN7Iex_3_110EnoattrExcC2ERNSt3__118basic_stringstreamIcNS1_11char_traitsIcEENS1_9allocatorIcEEEE
_ZN7Iex_3_110EnoattrExcC2Ev
_ZN7Iex_3_110EnoattrExcD0Ev
_ZN7Iex_3_110EnoattrExcD1Ev
_ZN7Iex_3_110EnoattrExcD2Ev
_ZN7Iex_3_110EnoattrExcaSEOS0_
_ZN7Iex_3_110EnoattrExcaSERS0_
_ZN7Iex_3_110EnobufsExcC1EONSt3__112basic_stringIcNS1_11char_traitsIcEENS1_9allocatorIcEEEE
_ZN7Iex_3_110EnobufsExcC1EOS0_
_ZN7Iex_3_110EnobufsExcC1EPKc
_ZN7Iex_3_110EnobufsExcC1ERKNSt3__112basic_stringIcNS1_11char_traitsIcEENS1_9allocatorIcEEEE
_ZN7Iex_3_110EnobufsExcC1ERKS0_
_ZN7Iex_3_110EnobufsExcC1ERNSt3__118basic_stringstreamIcNS1_11char_traitsIcEENS1_9allocatorIcEEEE
_ZN7Iex_3_110EnobufsExcC1Ev
_ZN7Iex_3_110EnobufsExcC2EONSt3__112basic_stringIcNS1_11char_traitsIcEENS1_9allocatorIcEEEE
_ZN7Iex_3_110EnobufsExcC2EOS0_
_ZN7Iex_3_110EnobufsExcC2EPKc
_ZN7Iex_3_110EnobufsExcC2ERKNSt3__112basic_stringIcNS1_11char_traitsIcEENS1_9allocatorIcEEEE
_ZN7Iex_3_110EnobufsExcC2ERKS0_
_ZN7Iex_3_110EnobufsExcC2ERNSt3__118basic_stringstreamIcNS1_11char_traitsIcEENS1_9allocatorIcEEEE
_ZN7Iex_3_110EnobufsExcC2Ev
_ZN7Iex_3_110EnobufsExcD0Ev
_ZN7Iex_3_110EnobufsExcD1Ev
_ZN7Iex_3_110EnobufsExcD2Ev
_ZN7Iex_3_110EnobufsExcaSEOS0_
_ZN7Iex_3_110EnobufsExcaSERS0_
_ZN7Iex_3_110EnodataExcC1EONSt3__112basic_stringIcNS1_11char_traitsIcEENS1_9allocatorIcEEEE
_ZN7Iex_3_110EnodataExcC1EOS0_
_ZN7Iex_3_110EnodataExcC1EPKc
_ZN7Iex_3_110EnodataExcC1ERKNSt3__112basic_stringIcNS1_11char_traitsIcEENS1_9allocatorIcEEEE
_ZN7Iex_3_110EnodataExcC1ERKS0_
_ZN7Iex_3_110EnodataExcC1ERNSt3__118basic_stringstreamIcNS1_11char_traitsIcEENS1_9allocatorIcEEEE
_ZN7Iex_3_110EnodataExcC1Ev
_ZN7Iex_3_110EnodataExcC2EONSt3__112basic_stringIcNS1_11char_traitsIcEENS1_9allocatorIcEEEE
_ZN7Iex_3_110EnodataExcC2EOS0_
_ZN7Iex_3_110EnodataExcC2EPKc
_ZN7Iex_3_110EnodataExcC2ERKNSt3__112basic_stringIcNS1_11char_traitsIcEENS1_9allocatorIcEEEE
_ZN7Iex_3_110EnodataExcC2ERKS0_
_ZN7Iex_3_110EnodataExcC2ERNSt3__118basic_stringstreamIcNS1_11char_traitsIcEENS1_9allocatorIcEEEE
_ZN7Iex_3_110EnodataExcC2Ev
_ZN7Iex_3_110EnodataExcD0Ev
_ZN7Iex_3_110EnodataExcD1Ev
_ZN7Iex_3_110EnodataExcD2Ev
_ZN7Iex_3_110EnodataExcaSEOS0_
_ZN7Iex_3_110EnodataExcaSERS0_
_ZN7Iex_3_110EnoexecExcC1EONSt3__112basic_stringIcNS1_11char_traitsIcEENS1_9allocatorIcEEEE
_ZN7Iex_3_110EnoexecExcC1EOS0_
_ZN7Iex_3_110EnoexecExcC1EPKc
_ZN7Iex_3_110EnoexecExcC1ERKNSt3__112basic_stringIcNS1_11char_traitsIcEENS1_9allocatorIcEEEE
_ZN7Iex_3_110EnoexecExcC1ERKS0_
_ZN7Iex_3_110EnoexecExcC1ERNSt3__118basic_stringstreamIcNS1_11char_traitsIcEENS1_9allocatorIcEEEE
_ZN7Iex_3_110EnoexecExcC1Ev
_ZN7Iex_3_110EnoexecExcC2EONSt3__112basic_stringIcNS1_11char_traitsIcEENS1_9allocatorIcEEEE
_ZN7Iex_3_110EnoexecExcC2EOS0_
_ZN7Iex_3_110EnoexecExcC2EPKc
_ZN7Iex_3_110EnoexecExcC2ERKNSt3__112basic_stringIcNS1_11char_traitsIcEENS1_9allocatorIcEEEE
_ZN7Iex_3_110EnoexecExcC2ERKS0_
_ZN7Iex_3_110EnoexecExcC2ERNSt3__118basic_stringstreamIcNS1_11char_traitsIcEENS1_9allocatorIcEEEE
_ZN7Iex_3_110EnoexecExcC2Ev
_ZN7Iex_3_110EnoexecExcD0Ev
_ZN7Iex_3_110EnoexecExcD1Ev
_ZN7Iex_3_110EnoexecExcD2Ev
_ZN7Iex_3_110EnoexecExcaSEOS0_
_ZN7Iex_3_110EnoexecExcaSERS0_
_ZN7Iex_3_110EnolinkExcC1EONSt3__112basic_stringIcNS1_11char_traitsIcEENS1_9allocatorIcEEEE
_ZN7Iex_3_110EnolinkExcC1EOS0_
_ZN7Iex_3_110EnolinkExcC1EPKc
_ZN7Iex_3_110EnolinkExcC1ERKNSt3__112basic_stringIcNS1_11char_traitsIcEENS1_9allocatorIcEEEE
_ZN7Iex_3_110EnolinkExcC1ERKS0_
_ZN7Iex_3_110EnolinkExcC1ERNSt3__118basic_stringstreamIcNS1_11char_traitsIcEENS1_9allocatorIcEEEE
_ZN7Iex_3_110EnolinkExcC1Ev
_ZN7Iex_3_110EnolinkExcC2EONSt3__112basic_stringIcNS1_11char_traitsIcEENS1_9allocatorIcEEEE
_ZN7Iex_3_110EnolinkExcC2EOS0_
_ZN7Iex_3_110EnolinkExcC2EPKc
_ZN7Iex_3_110EnolinkExcC2ERKNSt3__112basic_stringIcNS1_11char_traitsIcEENS1_9allocatorIcEEEE
_ZN7Iex_3_110EnolinkExcC2ERKS0_
_ZN7Iex_3_110EnolinkExcC2ERNSt3__118basic_stringstreamIcNS1_11char_traitsIcEENS1_9allocatorIcEEEE
_ZN7Iex_3_110EnolinkExcC2Ev
_ZN7Iex_3_110EnolinkExcD0Ev
_ZN7Iex_3_110EnolinkExcD1Ev
_ZN7Iex_3_110EnolinkExcD2Ev
_ZN7Iex_3_110EnolinkExcaSEOS0_
_ZN7Iex_3_110EnolinkExcaSERS0_
_ZN7Iex_3_110EnoprocExcC1EONSt3__112basic_stringIcNS1_11char_traitsIcEENS1_9allocatorIcEEEE
_ZN7Iex_3_110EnoprocExcC1EOS0_
_ZN7Iex_3_110EnoprocExcC1EPKc
_ZN7Iex_3_110EnoprocExcC1ERKNSt3__112basic_stringIcNS1_11char_traitsIcEENS1_9allocatorIcEEEE
_ZN7Iex_3_110EnoprocExcC1ERKS0_
_ZN7Iex_3_110EnoprocExcC1ERNSt3__118basic_stringstreamIcNS1_11char_traitsIcEENS1_9allocatorIcEEEE
_ZN7Iex_3_110EnoprocExcC1Ev
_ZN7Iex_3_110EnoprocExcC2EONSt3__112basic_stringIcNS1_11char_traitsIcEENS1_9allocatorIcEEEE
_ZN7Iex_3_110EnoprocExcC2EOS0_
_ZN7Iex_3_110EnoprocExcC2EPKc
_ZN7Iex_3_110EnoprocExcC2ERKNSt3__112basic_stringIcNS1_11char_traitsIcEENS1_9allocatorIcEEEE
_ZN7Iex_3_110EnoprocExcC2ERKS0_
_ZN7Iex_3_110EnoprocExcC2ERNSt3__118basic_stringstreamIcNS1_11char_traitsIcEENS1_9allocatorIcEEEE
_ZN7Iex_3_110EnoprocExcC2Ev
_ZN7Iex_3_110EnoprocExcD0Ev
_ZN7Iex_3_110EnoprocExcD1Ev
_ZN7Iex_3_110EnoprocExcD2Ev
_ZN7Iex_3_110EnoprocExcaSEOS0_
_ZN7Iex_3_110EnoprocExcaSERS0_
_ZN7Iex_3_110EnotblkExcC1EONSt3__112basic_stringIcNS1_11char_traitsIcEENS1_9allocatorIcEEEE
_ZN7Iex_3_110EnotblkExcC1EOS0_
_ZN7Iex_3_110EnotblkExcC1EPKc
_ZN7Iex_3_110EnotblkExcC1ERKNSt3__112basic_stringIcNS1_11char_traitsIcEENS1_9allocatorIcEEEE
_ZN7Iex_3_110EnotblkExcC1ERKS0_
_ZN7Iex_3_110EnotblkExcC1ERNSt3__118basic_stringstreamIcNS1_11char_traitsIcEENS1_9allocatorIcEEEE
_ZN7Iex_3_110EnotblkExcC1Ev
_ZN7Iex_3_110EnotblkExcC2EONSt3__112basic_stringIcNS1_11char_traitsIcEENS1_9allocatorIcEEEE
_ZN7Iex_3_110EnotblkExcC2EOS0_
_ZN7Iex_3_110EnotblkExcC2EPKc
_ZN7Iex_3_110EnotblkExcC2ERKNSt3__112basic_stringIcNS1_11char_traitsIcEENS1_9allocatorIcEEEE
_ZN7Iex_3_110EnotblkExcC2ERKS0_
_ZN7Iex_3_110EnotblkExcC2ERNSt3__118basic_stringstreamIcNS1_11char_traitsIcEENS1_9allocatorIcEEEE
_ZN7Iex_3_110EnotblkExcC2Ev
_ZN7Iex_3_110EnotblkExcD0Ev
_ZN7Iex_3_110EnotblkExcD1Ev
_ZN7Iex_3_110EnotblkExcD2Ev
_ZN7Iex_3_110EnotblkExcaSEOS0_
_ZN7Iex_3_110EnotblkExcaSERS0_
_ZN7Iex_3_110EnotdirExcC1EONSt3__112basic_stringIcNS1_11char_traitsIcEENS1_9allocatorIcEEEE
_ZN7Iex_3_110EnotdirExcC1EOS0_
_ZN7Iex_3_110EnotdirExcC1EPKc
_ZN7Iex_3_110EnotdirExcC1ERKNSt3__112basic_stringIcNS1_11char_traitsIcEENS1_9allocatorIcEEEE
_ZN7Iex_3_110EnotdirExcC1ERKS0_
_ZN7Iex_3_110EnotdirExcC1ERNSt3__118basic_stringstreamIcNS1_11char_traitsIcEENS1_9allocatorIcEEEE
_ZN7Iex_3_110EnotdirExcC1Ev
_ZN7Iex_3_110EnotdirExcC2EONSt3__112basic_stringIcNS1_11char_traitsIcEENS1_9allocatorIcEEEE
_ZN7Iex_3_110EnotdirExcC2EOS0_
_ZN7Iex_3_110EnotdirExcC2EPKc
_ZN7Iex_3_110EnotdirExcC2ERKNSt3__112basic_stringIcNS1_11char_traitsIcEENS1_9allocatorIcEEEE
_ZN7Iex_3_110EnotdirExcC2ERKS0_
_ZN7Iex_3_110EnotdirExcC2ERNSt3__118basic_stringstreamIcNS1_11char_traitsIcEENS1_9allocatorIcEEEE
_ZN7Iex_3_110EnotdirExcC2Ev
_ZN7Iex_3_110EnotdirExcD0Ev
_ZN7Iex_3_110EnotdirExcD1Ev
_ZN7Iex_3_110EnotdirExcD2Ev
_ZN7Iex_3_110EnotdirExcaSEOS0_
_ZN7Iex_3_110EnotdirExcaSERS0_
_ZN7Iex_3_110EnotnamExcC1EONSt3__112basic_stringIcNS1_11char_traitsIcEENS1_9allocatorIcEEEE
_ZN7Iex_3_110EnotnamExcC1EOS0_
_ZN7Iex_3_110EnotnamExcC1EPKc
_ZN7Iex_3_110EnotnamExcC1ERKNSt3__112basic_stringIcNS1_11char_traitsIcEENS1_9allocatorIcEEEE
_ZN7Iex_3_110EnotnamExcC1ERKS0_
_ZN7Iex_3_110EnotnamExcC1ERNSt3__118basic_stringstreamIcNS1_11char_traitsIcEENS1_9allocatorIcEEEE
_ZN7Iex_3_110EnotnamExcC1Ev
_ZN7Iex_3_110EnotnamExcC2EONSt3__112basic_stringIcNS1_11char_traitsIcEENS1_9allocatorIcEEEE
_ZN7Iex_3_110EnotnamExcC2EOS0_
_ZN7Iex_3_110EnotnamExcC2EPKc
_ZN7Iex_3_110EnotnamExcC2ERKNSt3__112basic_stringIcNS1_11char_traitsIcEENS1_9allocatorIcEEEE
_ZN7Iex_3_110EnotnamExcC2ERKS0_
_ZN7Iex_3_110EnotnamExcC2ERNSt3__118basic_stringstreamIcNS1_11char_traitsIcEENS1_9allocatorIcEEEE
_ZN7Iex_3_110EnotnamExcC2Ev
_ZN7Iex_3_110EnotnamExcD0Ev
_ZN7Iex_3_110EnotnamExcD1Ev
_ZN7Iex_3_110EnotnamExcD2Ev
_ZN7Iex_3_110EnotnamExcaSEOS0_
_ZN7Iex_3_110EnotnamExcaSERS0_
_ZN7Iex_3_110EnotsupExcC1EONSt3__112basic_stringIcNS1_11char_traitsIcEENS1_9allocatorIcEEEE
_ZN7Iex_3_110EnotsupExcC1EOS0_
_ZN7Iex_3_110EnotsupExcC1EPKc
_ZN7Iex_3_110EnotsupExcC1ERKNSt3__112basic_stringIcNS1_11char_traitsIcEENS1_9allocatorIcEEEE
_ZN7Iex_3_110EnotsupExcC1ERKS0_
_ZN7Iex_3_110EnotsupExcC1ERNSt3__118basic_stringstreamIcNS1_11char_traitsIcEENS1_9allocatorIcEEEE
_ZN7Iex_3_110EnotsupExcC1Ev
_ZN7Iex_3_110EnotsupExcC2EONSt3__112basic_stringIcNS1_11char_traitsIcEENS1_9allocatorIcEEEE
_ZN7Iex_3_110EnotsupExcC2EOS0_
_ZN7Iex_3_110EnotsupExcC2EPKc
_ZN7Iex_3_110EnotsupExcC2ERKNSt3__112basic_stringIcNS1_11char_traitsIcEENS1_9allocatorIcEEEE
_ZN7Iex_3_110EnotsupExcC2ERKS0_
_ZN7Iex_3_110EnotsupExcC2ERNSt3__118basic_stringstreamIcNS1_11char_traitsIcEENS1_9allocatorIcEEEE
_ZN7Iex_3_110EnotsupExcC2Ev
_ZN7Iex_3_110EnotsupExcD0Ev
_ZN7Iex_3_110EnotsupExcD1Ev
_ZN7Iex_3_110EnotsupExcD2Ev
_ZN7Iex_3_110EnotsupExcaSEOS0_
_ZN7Iex_3_110EnotsupExcaSERS0_
_ZN7Iex_3_110EremchgExcC1EONSt3__112basic_stringIcNS1_11char_traitsIcEENS1_9allocatorIcEEEE
_ZN7Iex_3_110EremchgExcC1EOS0_
_ZN7Iex_3_110EremchgExcC1EPKc
_ZN7Iex_3_110EremchgExcC1ERKNSt3__112basic_stringIcNS1_11char_traitsIcEENS1_9allocatorIcEEEE
_ZN7Iex_3_110EremchgExcC1ERKS0_
_ZN7Iex_3_110EremchgExcC1ERNSt3__118basic_stringstreamIcNS1_11char_traitsIcEENS1_9allocatorIcEEEE
_ZN7Iex_3_110EremchgExcC1Ev
_ZN7Iex_3_110EremchgExcC2EONSt3__112basic_stringIcNS1_11char_traitsIcEENS1_9allocatorIcEEEE
_ZN7Iex_3_110EremchgExcC2EOS0_
_ZN7Iex_3_110EremchgExcC2EPKc
_ZN7Iex_3_110EremchgExcC2ERKNSt3__112basic_stringIcNS1_11char_traitsIcEENS1_9allocatorIcEEEE
_ZN7Iex_3_110EremchgExcC2ERKS0_
_ZN7Iex_3_110EremchgExcC2ERNSt3__118basic_stringstreamIcNS1_11char_traitsIcEENS1_9allocatorIcEEEE
_ZN7Iex_3_110EremchgExcC2Ev
_ZN7Iex_3_110EremchgExcD0Ev
_ZN7Iex_3_110EremchgExcD1Ev
_ZN7Iex_3_110EremchgExcD2Ev
_ZN7Iex_3_110EremchgExcaSEOS0_
_ZN7Iex_3_110EremchgExcaSERS0_
_ZN7Iex_3_110EremdevExcC1EONSt3__112basic_stringIcNS1_11char_traitsIcEENS1_9allocatorIcEEEE
_ZN7Iex_3_110EremdevExcC1EOS0_
_ZN7Iex_3_110EremdevExcC1EPKc
_ZN7Iex_3_110EremdevExcC1ERKNSt3__112basic_stringIcNS1_11char_traitsIcEENS1_9allocatorIcEEEE
_ZN7Iex_3_110EremdevExcC1ERKS0_
_ZN7Iex_3_110EremdevExcC1ERNSt3__118basic_stringstreamIcNS1_11char_traitsIcEENS1_9allocatorIcEEEE
_ZN7Iex_3_110EremdevExcC1Ev
_ZN7Iex_3_110EremdevExcC2EONSt3__112basic_stringIcNS1_11char_traitsIcEENS1_9allocatorIcEEEE
_ZN7Iex_3_110EremdevExcC2EOS0_
_ZN7Iex_3_110EremdevExcC2EPKc
_ZN7Iex_3_110EremdevExcC2ERKNSt3__112basic_stringIcNS1_11char_traitsIcEENS1_9allocatorIcEEEE
_ZN7Iex_3_110EremdevExcC2ERKS0_
_ZN7Iex_3_110EremdevExcC2ERNSt3__118basic_stringstreamIcNS1_11char_traitsIcEENS1_9allocatorIcEEEE
_ZN7Iex_3_110EremdevExcC2Ev
_ZN7Iex_3_110EremdevExcD0Ev
_ZN7Iex_3_110EremdevExcD1Ev
_ZN7Iex_3_110EremdevExcD2Ev
_ZN7Iex_3_110EremdevExcaSEOS0_
_ZN7Iex_3_110EremdevExcaSERS0_
_ZN7Iex_3_110EremoteExcC1EONSt3__112basic_stringIcNS1_11char_traitsIcEENS1_9allocatorIcEEEE
_ZN7Iex_3_110EremoteExcC1EOS0_
_ZN7Iex_3_110EremoteExcC1EPKc
_ZN7Iex_3_110EremoteExcC1ERKNSt3__112basic_stringIcNS1_11char_traitsIcEENS1_9allocatorIcEEEE
_ZN7Iex_3_110EremoteExcC1ERKS0_
_ZN7Iex_3_110EremoteExcC1ERNSt3__118basic_stringstreamIcNS1_11char_traitsIcEENS1_9allocatorIcEEEE
_ZN7Iex_3_110EremoteExcC1Ev
_ZN7Iex_3_110EremoteExcC2EONSt3__112basic_stringIcNS1_11char_traitsIcEENS1_9allocatorIcEEEE
_ZN7Iex_3_110EremoteExcC2EOS0_
_ZN7Iex_3_110EremoteExcC2EPKc
_ZN7Iex_3_110EremoteExcC2ERKNSt3__112basic_stringIcNS1_11char_traitsIcEENS1_9allocatorIcEEEE
_ZN7Iex_3_110EremoteExcC2ERKS0_
_ZN7Iex_3_110EremoteExcC2ERNSt3__118basic_stringstreamIcNS1_11char_traitsIcEENS1_9allocatorIcEEEE
_ZN7Iex_3_110EremoteExcC2Ev
_ZN7Iex_3_110EremoteExcD0Ev
_ZN7Iex_3_110EremoteExcD1Ev
_ZN7Iex_3_110EremoteExcD2Ev
_ZN7Iex_3_110EremoteExcaSEOS0_
_ZN7Iex_3_110EremoteExcaSERS0_
_ZN7Iex_3_110EtxtbsyExcC1EONSt3__112basic_stringIcNS1_11char_traitsIcEENS1_9allocatorIcEEEE
_ZN7Iex_3_110EtxtbsyExcC1EOS0_
_ZN7Iex_3_110EtxtbsyExcC1EPKc
_ZN7Iex_3_110EtxtbsyExcC1ERKNSt3__112basic_stringIcNS1_11char_traitsIcEENS1_9allocatorIcEEEE
_ZN7Iex_3_110EtxtbsyExcC1ERKS0_
_ZN7Iex_3_110EtxtbsyExcC1ERNSt3__118basic_stringstreamIcNS1_11char_traitsIcEENS1_9allocatorIcEEEE
_ZN7Iex_3_110EtxtbsyExcC1Ev
_ZN7Iex_3_110EtxtbsyExcC2EONSt3__112basic_stringIcNS1_11char_traitsIcEENS1_9allocatorIcEEEE
_ZN7Iex_3_110EtxtbsyExcC2EOS0_
_ZN7Iex_3_110EtxtbsyExcC2EPKc
_ZN7Iex_3_110EtxtbsyExcC2ERKNSt3__112basic_stringIcNS1_11char_traitsIcEENS1_9allocatorIcEEEE
_ZN7Iex_3_110EtxtbsyExcC2ERKS0_
_ZN7Iex_3_110EtxtbsyExcC2ERNSt3__118basic_stringstreamIcNS1_11char_traitsIcEENS1_9allocatorIcEEEE
_ZN7Iex_3_110EtxtbsyExcC2Ev
_ZN7Iex_3_110EtxtbsyExcD0Ev
_ZN7Iex_3_110EtxtbsyExcD1Ev
_ZN7Iex_3_110EtxtbsyExcD2Ev
_ZN7Iex_3_110EtxtbsyExcaSEOS0_
_ZN7Iex_3_110EtxtbsyExcaSERS0_
_ZN7Iex_3_110EucleanExcC1EONSt3__112basic_stringIcNS1_11char_traitsIcEENS1_9allocatorIcEEEE
_ZN7Iex_3_110EucleanExcC1EOS0_
_ZN7Iex_3_110EucleanExcC1EPKc
_ZN7Iex_3_110EucleanExcC1ERKNSt3__112basic_stringIcNS1_11char_traitsIcEENS1_9allocatorIcEEEE
_ZN7Iex_3_110EucleanExcC1ERKS0_
_ZN7Iex_3_110EucleanExcC1ERNSt3__118basic_stringstreamIcNS1_11char_traitsIcEENS1_9allocatorIcEEEE
_ZN7Iex_3_110EucleanExcC1Ev
_ZN7Iex_3_110EucleanExcC2EONSt3__112basic_stringIcNS1_11char_traitsIcEENS1_9allocatorIcEEEE
_ZN7Iex_3_110EucleanExcC2EOS0_
_ZN7Iex_3_110EucleanExcC2EPKc
_ZN7Iex_3_110EucleanExcC2ERKNSt3__112basic_stringIcNS1_11char_traitsIcEENS1_9allocatorIcEEEE
_ZN7Iex_3_110EucleanExcC2ERKS0_
_ZN7Iex_3_110EucleanExcC2ERNSt3__118basic_stringstreamIcNS1_11char_traitsIcEENS1_9allocatorIcEEEE
_ZN7Iex_3_110EucleanExcC2Ev
_ZN7Iex_3_110EucleanExcD0Ev
_ZN7Iex_3_110EucleanExcD1Ev
_ZN7Iex_3_110EucleanExcD2Ev
_ZN7Iex_3_110EucleanExcaSEOS0_
_ZN7Iex_3_110EucleanExcaSERS0_
_ZN7Iex_3_110EunatchExcC1EONSt3__112basic_stringIcNS1_11char_traitsIcEENS1_9allocatorIcEEEE
_ZN7Iex_3_110EunatchExcC1EOS0_
_ZN7Iex_3_110EunatchExcC1EPKc
_ZN7Iex_3_110EunatchExcC1ERKNSt3__112basic_stringIcNS1_11char_traitsIcEENS1_9allocatorIcEEEE
_ZN7Iex_3_110EunatchExcC1ERKS0_
_ZN7Iex_3_110EunatchExcC1ERNSt3__118basic_stringstreamIcNS1_11char_traitsIcEENS1_9allocatorIcEEEE
_ZN7Iex_3_110EunatchExcC1Ev
_ZN7Iex_3_110EunatchExcC2EONSt3__112basic_stringIcNS1_11char_traitsIcEENS1_9allocatorIcEEEE
_ZN7Iex_3_110EunatchExcC2EOS0_
_ZN7Iex_3_110EunatchExcC2EPKc
_ZN7Iex_3_110EunatchExcC2ERKNSt3__112basic_stringIcNS1_11char_traitsIcEENS1_9allocatorIcEEEE
_ZN7Iex_3_110EunatchExcC2ERKS0_
_ZN7Iex_3_110EunatchExcC2ERNSt3__118basic_stringstreamIcNS1_11char_traitsIcEENS1_9allocatorIcEEEE
_ZN7Iex_3_110EunatchExcC2Ev
_ZN7Iex_3_110EunatchExcD0Ev
_ZN7Iex_3_110EunatchExcD1Ev
_ZN7Iex_3_110EunatchExcD2Ev
_ZN7Iex_3_110EunatchExcaSEOS0_
_ZN7Iex_3_110EunatchExcaSERS0_
_ZN7Iex_3_110InexactExcC1EONSt3__112basic_stringIcNS1_11char_traitsIcEENS1_9allocatorIcEEEE
_ZN7Iex_3_110InexactExcC1EOS0_
_ZN7Iex_3_110InexactExcC1EPKc
_ZN7Iex_3_110InexactExcC1ERKNSt3__112basic_stringIcNS1_11char_traitsIcEENS1_9allocatorIcEEEE
_ZN7Iex_3_110InexactExcC1ERKS0_
_ZN7Iex_3_110InexactExcC1ERNSt3__118basic_stringstreamIcNS1_11char_traitsIcEENS1_9allocatorIcEEEE
_ZN7Iex_3_110InexactExcC1Ev
_ZN7Iex_3_110InexactExcC2EONSt3__112basic_stringIcNS1_11char_traitsIcEENS1_9allocatorIcEEEE
_ZN7Iex_3_110InexactExcC2EOS0_
_ZN7Iex_3_110InexactExcC2EPKc
_ZN7Iex_3_110InexactExcC2ERKNSt3__112basic_stringIcNS1_11char_traitsIcEENS1_9allocatorIcEEEE
_ZN7Iex_3_110InexactExcC2ERKS0_
_ZN7Iex_3_110InexactExcC2ERNSt3__118basic_stringstreamIcNS1_11char_traitsIcEENS1_9allocatorIcEEEE
_ZN7Iex_3_110InexactExcC2Ev
_ZN7Iex_3_110InexactExcD0Ev
_ZN7Iex_3_110InexactExcD1Ev
_ZN7Iex_3_110InexactExcD2Ev
_ZN7Iex_3_110InexactExcaSEOS0_
_ZN7Iex_3_110InexactExcaSERS0_
_ZN7Iex_3_111EalreadyExcC1EONSt3__112basic_stringIcNS1_11char_traitsIcEENS1_9allocatorIcEEEE
_ZN7Iex_3_111EalreadyExcC1EOS0_
_ZN7Iex_3_111EalreadyExcC1EPKc
_ZN7Iex_3_111EalreadyExcC1ERKNSt3__112basic_stringIcNS1_11char_traitsIcEENS1_9allocatorIcEEEE
_ZN7Iex_3_111EalreadyExcC1ERKS0_
_ZN7Iex_3_111EalreadyExcC1ERNSt3__118basic_stringstreamIcNS1_11char_traitsIcEENS1_9allocatorIcEEEE
_ZN7Iex_3_111EalreadyExcC1Ev
_ZN7Iex_3_111EalreadyExcC2EONSt3__112basic_stringIcNS1_11char_traitsIcEENS1_9allocatorIcEEEE
_ZN7Iex_3_111EalreadyExcC2EOS0_
_ZN7Iex_3_111EalreadyExcC2EPKc
_ZN7Iex_3_111EalreadyExcC2ERKNSt3__112basic_stringIcNS1_11char_traitsIcEENS1_9allocatorIcEEEE
_ZN7Iex_3_111EalreadyExcC2ERKS0_
_ZN7Iex_3_111EalreadyExcC2ERNSt3__118basic_stringstreamIcNS1_11char_traitsIcEENS1_9allocatorIcEEEE
_ZN7Iex_3_111EalreadyExcC2Ev
_ZN7Iex_3_111EalreadyExcD0Ev
_ZN7Iex_3_111EalreadyExcD1Ev
_ZN7Iex_3_111EalreadyExcD2Ev
_ZN7Iex_3_111EalreadyExcaSEOS0_
_ZN7Iex_3_111EalreadyExcaSERS0_
_ZN7Iex_3_111EbufsizeExcC1EONSt3__112basic_stringIcNS1_11char_traitsIcEENS1_9allocatorIcEEEE
_ZN7Iex_3_111EbufsizeExcC1EOS0_
_ZN7Iex_3_111EbufsizeExcC1EPKc
_ZN7Iex_3_111EbufsizeExcC1ERKNSt3__112basic_stringIcNS1_11char_traitsIcEENS1_9allocatorIcEEEE
_ZN7Iex_3_111EbufsizeExcC1ERKS0_
_ZN7Iex_3_111EbufsizeExcC1ERNSt3__118basic_stringstreamIcNS1_11char_traitsIcEENS1_9allocatorIcEEEE
_ZN7Iex_3_111EbufsizeExcC1Ev
_ZN7Iex_3_111EbufsizeExcC2EONSt3__112basic_stringIcNS1_11char_traitsIcEENS1_9allocatorIcEEEE
_ZN7Iex_3_111EbufsizeExcC2EOS0_
_ZN7Iex_3_111EbufsizeExcC2EPKc
_ZN7Iex_3_111EbufsizeExcC2ERKNSt3__112basic_stringIcNS1_11char_traitsIcEENS1_9allocatorIcEEEE
_ZN7Iex_3_111EbufsizeExcC2ERKS0_
_ZN7Iex_3_111EbufsizeExcC2ERNSt3__118basic_stringstreamIcNS1_11char_traitsIcEENS1_9allocatorIcEEEE
_ZN7Iex_3_111EbufsizeExcC2Ev
_ZN7Iex_3_111EbufsizeExcD0Ev
_ZN7Iex_3_111EbufsizeExcD1Ev
_ZN7Iex_3_111EbufsizeExcD2Ev
_ZN7Iex_3_111EbufsizeExcaSEOS0_
_ZN7Iex_3_111EbufsizeExcaSERS0_
_ZN7Iex_3_111EioresidExcC1EONSt3__112basic_stringIcNS1_11char_traitsIcEENS1_9allocatorIcEEEE
_ZN7Iex_3_111EioresidExcC1EOS0_
_ZN7Iex_3_111EioresidExcC1EPKc
_ZN7Iex_3_111EioresidExcC1ERKNSt3__112basic_stringIcNS1_11char_traitsIcEENS1_9allocatorIcEEEE
_ZN7Iex_3_111EioresidExcC1ERKS0_
_ZN7Iex_3_111EioresidExcC1ERNSt3__118basic_stringstreamIcNS1_11char_traitsIcEENS1_9allocatorIcEEEE
_ZN7Iex_3_111EioresidExcC1Ev
_ZN7Iex_3_111EioresidExcC2EONSt3__112basic_stringIcNS1_11char_traitsIcEENS1_9allocatorIcEEEE
_ZN7Iex_3_111EioresidExcC2EOS0_
_ZN7Iex_3_111EioresidExcC2EPKc
_ZN7Iex_3_111EioresidExcC2ERKNSt3__112basic_stringIcNS1_11char_traitsIcEENS1_9allocatorIcEEEE
_ZN7Iex_3_111EioresidExcC2ERKS0_
_ZN7Iex_3_111EioresidExcC2ERNSt3__118basic_stringstreamIcNS1_11char_traitsIcEENS1_9allocatorIcEEEE
_ZN7Iex_3_111EioresidExcC2Ev
_ZN7Iex_3_111EioresidExcD0Ev
_ZN7Iex_3_111EioresidExcD1Ev
_ZN7Iex_3_111EioresidExcD2Ev
_ZN7Iex_3_111EioresidExcaSEOS0_
_ZN7Iex_3_111EioresidExcaSERS0_
_ZN7Iex_3_111El2nsyncExcC1EONSt3__112basic_stringIcNS1_11char_traitsIcEENS1_9allocatorIcEEEE
_ZN7Iex_3_111El2nsyncExcC1EOS0_
_ZN7Iex_3_111El2nsyncExcC1EPKc
_ZN7Iex_3_111El2nsyncExcC1ERKNSt3__112basic_stringIcNS1_11char_traitsIcEENS1_9allocatorIcEEEE
_ZN7Iex_3_111El2nsyncExcC1ERKS0_
_ZN7Iex_3_111El2nsyncExcC1ERNSt3__118basic_stringstreamIcNS1_11char_traitsIcEENS1_9allocatorIcEEEE
_ZN7Iex_3_111El2nsyncExcC1Ev
_ZN7Iex_3_111El2nsyncExcC2EONSt3__112basic_stringIcNS1_11char_traitsIcEENS1_9allocatorIcEEEE
_ZN7Iex_3_111El2nsyncExcC2EOS0_
_ZN7Iex_3_111El2nsyncExcC2EPKc
_ZN7Iex_3_111El2nsyncExcC2ERKNSt3__112basic_stringIcNS1_11char_traitsIcEENS1_9allocatorIcEEEE
_ZN7Iex_3_111El2nsyncExcC2ERKS0_
_ZN7Iex_3_111El2nsyncExcC2ERNSt3__118basic_stringstreamIcNS1_11char_traitsIcEENS1_9allocatorIcEEEE
_ZN7Iex_3_111El2nsyncExcC2Ev
_ZN7Iex_3_111El2nsyncExcD0Ev
_ZN7Iex_3_111El2nsyncExcD1Ev
_ZN7Iex_3_111El2nsyncExcD2Ev
_ZN7Iex_3_111El2nsyncExcaSEOS0_
_ZN7Iex_3_111El2nsyncExcaSERS0_
_ZN7Iex_3_111ElibexecExcC1EONSt3__112basic_stringIcNS1_11char_traitsIcEENS1_9allocatorIcEEEE
_ZN7Iex_3_111ElibexecExcC1EOS0_
_ZN7Iex_3_111ElibexecExcC1EPKc
_ZN7Iex_3_111ElibexecExcC1ERKNSt3__112basic_stringIcNS1_11char_traitsIcEENS1_9allocatorIcEEEE
_ZN7Iex_3_111ElibexecExcC1ERKS0_
_ZN7Iex_3_111ElibexecExcC1ERNSt3__118basic_stringstreamIcNS1_11char_traitsIcEENS1_9allocatorIcEEEE
_ZN7Iex_3_111ElibexecExcC1Ev
_ZN7Iex_3_111ElibexecExcC2EONSt3__112basic_stringIcNS1_11char_traitsIcEENS1_9allocatorIcEEEE
_ZN7Iex_3_111ElibexecExcC2EOS0_
_ZN7Iex_3_111ElibexecExcC2EPKc
_ZN7Iex_3_111ElibexecExcC2ERKNSt3__112basic_stringIcNS1_11char_traitsIcEENS1_9allocatorIcEEEE
_ZN7Iex_3_111ElibexecExcC2ERKS0_
_ZN7Iex_3_111ElibexecExcC2ERNSt3__118basic_stringstreamIcNS1_11char_traitsIcEENS1_9allocatorIcEEEE
_ZN7Iex_3_111ElibexecExcC2Ev
_ZN7Iex_3_111ElibexecExcD0Ev
_ZN7Iex_3_111ElibexecExcD1Ev
_ZN7Iex_3_111ElibexecExcD2Ev
_ZN7Iex_3_111ElibexecExcaSEOS0_
_ZN7Iex_3_111ElibexecExcaSERS0_
_ZN7Iex_3_111EmsgsizeExcC1EONSt3__112basic_stringIcNS1_11char_traitsIcEENS1_9allocatorIcEEEE
_ZN7Iex_3_111EmsgsizeExcC1EOS0_
_ZN7Iex_3_111EmsgsizeExcC1EPKc
_ZN7Iex_3_111EmsgsizeExcC1ERKNSt3__112basic_stringIcNS1_11char_traitsIcEENS1_9allocatorIcEEEE
_ZN7Iex_3_111EmsgsizeExcC1ERKS0_
_ZN7Iex_3_111EmsgsizeExcC1ERNSt3__118basic_stringstreamIcNS1_11char_traitsIcEENS1_9allocatorIcEEEE
_ZN7Iex_3_111EmsgsizeExcC1Ev
_ZN7Iex_3_111EmsgsizeExcC2EONSt3__112basic_stringIcNS1_11char_traitsIcEENS1_9allocatorIcEEEE
_ZN7Iex_3_111EmsgsizeExcC2EOS0_
_ZN7Iex_3_111EmsgsizeExcC2EPKc
_ZN7Iex_3_111EmsgsizeExcC2ERKNSt3__112basic_stringIcNS1_11char_traitsIcEENS1_9allocatorIcEEEE
_ZN7Iex_3_111EmsgsizeExcC2ERKS0_
_ZN7Iex_3_111EmsgsizeExcC2ERNSt3__118basic_stringstreamIcNS1_11char_traitsIcEENS1_9allocatorIcEEEE
_ZN7Iex_3_111EmsgsizeExcC2Ev
_ZN7Iex_3_111EmsgsizeExcD0Ev
_ZN7Iex_3_111EmsgsizeExcD1Ev
_ZN7Iex_3_111EmsgsizeExcD2Ev
_ZN7Iex_3_111EmsgsizeExcaSEOS0_
_ZN7Iex_3_111EmsgsizeExcaSERS0_
_ZN7Iex_3_111EmustrunExcC1EONSt3__112basic_stringIcNS1_11char_traitsIcEENS1_9allocatorIcEEEE
_ZN7Iex_3_111EmustrunExcC1EOS0_
_ZN7Iex_3_111EmustrunExcC1EPKc
_ZN7Iex_3_111EmustrunExcC1ERKNSt3__112basic_stringIcNS1_11char_traitsIcEENS1_9allocatorIcEEEE
_ZN7Iex_3_111EmustrunExcC1ERKS0_
_ZN7Iex_3_111EmustrunExcC1ERNSt3__118basic_stringstreamIcNS1_11char_traitsIcEENS1_9allocatorIcEEEE
_ZN7Iex_3_111EmustrunExcC1Ev
_ZN7Iex_3_111EmustrunExcC2EONSt3__112basic_stringIcNS1_11char_traitsIcEENS1_9allocatorIcEEEE
_ZN7Iex_3_111EmustrunExcC2EOS0_
_ZN7Iex_3_111EmustrunExcC2EPKc
_ZN7Iex_3_111EmustrunExcC2ERKNSt3__112basic_stringIcNS1_11char_traitsIcEENS1_9allocatorIcEEEE
_ZN7Iex_3_111EmustrunExcC2ERKS0_
_ZN7Iex_3_111EmustrunExcC2ERNSt3__118basic_stringstreamIcNS1_11char_traitsIcEENS1_9allocatorIcEEEE
_ZN7Iex_3_111EmustrunExcC2Ev
_ZN7Iex_3_111EmustrunExcD0Ev
_ZN7Iex_3_111EmustrunExcD1Ev
_ZN7Iex_3_111EmustrunExcD2Ev
_ZN7Iex_3_111EmustrunExcaSEOS0_
_ZN7Iex_3_111EmustrunExcaSERS0_
_ZN7Iex_3_111EnetdownExcC1EONSt3__112basic_stringIcNS1_11char_traitsIcEENS1_9allocatorIcEEEE
_ZN7Iex_3_111EnetdownExcC1EOS0_
_ZN7Iex_3_111EnetdownExcC1EPKc
_ZN7Iex_3_111EnetdownExcC1ERKNSt3__112basic_stringIcNS1_11char_traitsIcEENS1_9allocatorIcEEEE
_ZN7Iex_3_111EnetdownExcC1ERKS0_
_ZN7Iex_3_111EnetdownExcC1ERNSt3__118basic_stringstreamIcNS1_11char_traitsIcEENS1_9allocatorIcEEEE
_ZN7Iex_3_111EnetdownExcC1Ev
_ZN7Iex_3_111EnetdownExcC2EONSt3__112basic_stringIcNS1_11char_traitsIcEENS1_9allocatorIcEEEE
_ZN7Iex_3_111EnetdownExcC2EOS0_
_ZN7Iex_3_111EnetdownExcC2EPKc
_ZN7Iex_3_111EnetdownExcC2ERKNSt3__112basic_stringIcNS1_11char_traitsIcEENS1_9allocatorIcEEEE
_ZN7Iex_3_111EnetdownExcC2ERKS0_
_ZN7Iex_3_111EnetdownExcC2ERNSt3__118basic_stringstreamIcNS1_11char_traitsIcEENS1_9allocatorIcEEEE
_ZN7Iex_3_111EnetdownExcC2Ev
_ZN7Iex_3_111EnetdownExcD0Ev
_ZN7Iex_3_111EnetdownExcD1Ev
_ZN7Iex_3_111EnetdownExcD2Ev
_ZN7Iex_3_111EnetdownExcaSEOS0_
_ZN7Iex_3_111EnetdownExcaSERS0_
_ZN7Iex_3_111EnoexistExcC1EONSt3__112basic_stringIcNS1_11char_traitsIcEENS1_9allocatorIcEEEE
_ZN7Iex_3_111EnoexistExcC1EOS0_
_ZN7Iex_3_111EnoexistExcC1EPKc
_ZN7Iex_3_111EnoexistExcC1ERKNSt3__112basic_stringIcNS1_11char_traitsIcEENS1_9allocatorIcEEEE
_ZN7Iex_3_111EnoexistExcC1ERKS0_
_ZN7Iex_3_111EnoexistExcC1ERNSt3__118basic_stringstreamIcNS1_11char_traitsIcEENS1_9allocatorIcEEEE
_ZN7Iex_3_111EnoexistExcC1Ev
_ZN7Iex_3_111EnoexistExcC2EONSt3__112basic_stringIcNS1_11char_traitsIcEENS1_9allocatorIcEEEE
_ZN7Iex_3_111EnoexistExcC2EOS0_
_ZN7Iex_3_111EnoexistExcC2EPKc
_ZN7Iex_3_111EnoexistExcC2ERKNSt3__112basic_stringIcNS1_11char_traitsIcEENS1_9allocatorIcEEEE
_ZN7Iex_3_111EnoexistExcC2ERKS0_
_ZN7Iex_3_111EnoexistExcC2ERNSt3__118basic_stringstreamIcNS1_11char_traitsIcEENS1_9allocatorIcEEEE
_ZN7Iex_3_111EnoexistExcC2Ev
_ZN7Iex_3_111EnoexistExcD0Ev
_ZN7Iex_3_111EnoexistExcD1Ev
_ZN7Iex_3_111EnoexistExcD2Ev
_ZN7Iex_3_111EnoexistExcaSEOS0_
_ZN7Iex_3_111EnoexistExcaSERS0_
_ZN7Iex_3_111EnologinExcC1EONSt3__112basic_stringIcNS1_11char_traitsIcEENS1_9allocatorIcEEEE
_ZN7Iex_3_111EnologinExcC1EOS0_
_ZN7Iex_3_111EnologinExcC1EPKc
_ZN7Iex_3_111EnologinExcC1ERKNSt3__112basic_stringIcNS1_11char_traitsIcEENS1_9allocatorIcEEEE
_ZN7Iex_3_111EnologinExcC1ERKS0_
_ZN7Iex_3_111EnologinExcC1ERNSt3__118basic_stringstreamIcNS1_11char_traitsIcEENS1_9allocatorIcEEEE
_ZN7Iex_3_111EnologinExcC1Ev
_ZN7Iex_3_111EnologinExcC2EONSt3__112basic_stringIcNS1_11char_traitsIcEENS1_9allocatorIcEEEE
_ZN7Iex_3_111EnologinExcC2EOS0_
_ZN7Iex_3_111EnologinExcC2EPKc
_ZN7Iex_3_111EnologinExcC2ERKNSt3__112basic_stringIcNS1_11char_traitsIcEENS1_9allocatorIcEEEE
_ZN7Iex_3_111EnologinExcC2ERKS0_
_ZN7Iex_3_111EnologinExcC2ERNSt3__118basic_stringstreamIcNS1_11char_traitsIcEENS1_9allocatorIcEEEE
_ZN7Iex_3_111EnologinExcC2Ev
_ZN7Iex_3_111EnologinExcD0Ev
_ZN7Iex_3_111EnologinExcD1Ev
_ZN7Iex_3_111EnologinExcD2Ev
_ZN7Iex_3_111EnologinExcaSEOS0_
_ZN7Iex_3_111EnologinExcaSERS0_
_ZN7Iex_3_111EnotconnExcC1EONSt3__112basic_stringIcNS1_11char_traitsIcEENS1_9allocatorIcEEEE
_ZN7Iex_3_111EnotconnExcC1EOS0_
_ZN7Iex_3_111EnotconnExcC1EPKc
_ZN7Iex_3_111EnotconnExcC1ERKNSt3__112basic_stringIcNS1_11char_traitsIcEENS1_9allocatorIcEEEE
_ZN7Iex_3_111EnotconnExcC1ERKS0_
_ZN7Iex_3_111EnotconnExcC1ERNSt3__118basic_stringstreamIcNS1_11char_traitsIcEENS1_9allocatorIcEEEE
_ZN7Iex_3_111EnotconnExcC1Ev
_ZN7Iex_3_111EnotconnExcC2EONSt3__112basic_stringIcNS1_11char_traitsIcEENS1_9allocatorIcEEEE
_ZN7Iex_3_111EnotconnExcC2EOS0_
_ZN7Iex_3_111EnotconnExcC2EPKc
_ZN7Iex_3_111EnotconnExcC2ERKNSt3__112basic_stringIcNS1_11char_traitsIcEENS1_9allocatorIcEEEE
_ZN7Iex_3_111EnotconnExcC2ERKS0_
_ZN7Iex_3_111EnotconnExcC2ERNSt3__118basic_stringstreamIcNS1_11char_traitsIcEENS1_9allocatorIcEEEE
_ZN7Iex_3_111EnotconnExcC2Ev
_ZN7Iex_3_111EnotconnExcD0Ev
_ZN7Iex_3_111EnotconnExcD1Ev
_ZN7Iex_3_111EnotconnExcD2Ev
_ZN7Iex_3_111EnotconnExcaSEOS0_
_ZN7Iex_3_111EnotconnExcaSERS0_
_ZN7Iex_3_111EnotsockExcC1EONSt3__112basic_stringIcNS1_11char_traitsIcEENS1_9allocatorIcEEEE
_ZN7Iex_3_111EnotsockExcC1EOS0_
_ZN7Iex_3_111EnotsockExcC1EPKc
_ZN7Iex_3_111EnotsockExcC1ERKNSt3__112basic_stringIcNS1_11char_traitsIcEENS1_9allocatorIcEEEE
_ZN7Iex_3_111EnotsockExcC1ERKS0_
_ZN7Iex_3_111EnotsockExcC1ERNSt3__118basic_stringstreamIcNS1_11char_traitsIcEENS1_9allocatorIcEEEE
_ZN7Iex_3_111EnotsockExcC1Ev
_ZN7Iex_3_111EnotsockExcC2EONSt3__112basic_stringIcNS1_11char_traitsIcEENS1_9allocatorIcEEEE
_ZN7Iex_3_111EnotsockExcC2EOS0_
_ZN7Iex_3_111EnotsockExcC2EPKc
_ZN7Iex_3_111EnotsockExcC2ERKNSt3__112basic_stringIcNS1_11char_traitsIcEENS1_9allocatorIcEEEE
_ZN7Iex_3_111EnotsockExcC2ERKS0_
_ZN7Iex_3_111EnotsockExcC2ERNSt3__118basic_stringstreamIcNS1_11char_traitsIcEENS1_9allocatorIcEEEE
_ZN7Iex_3_111EnotsockExcC2Ev
_ZN7Iex_3_111EnotsockExcD0Ev
_ZN7Iex_3_111EnotsockExcD1Ev
_ZN7Iex_3_111EnotsockExcD2Ev
_ZN7Iex_3_111EnotsockExcaSEOS0_
_ZN7Iex_3_111EnotsockExcaSERS0_
_ZN7Iex_3_111EnotuniqExcC1EONSt3__112basic_stringIcNS1_11char_traitsIcEENS1_9allocatorIcEEEE
_ZN7Iex_3_111EnotuniqExcC1EOS0_
_ZN7Iex_3_111EnotuniqExcC1EPKc
_ZN7Iex_3_111EnotuniqExcC1ERKNSt3__112basic_stringIcNS1_11char_traitsIcEENS1_9allocatorIcEEEE
_ZN7Iex_3_111EnotuniqExcC1ERKS0_
_ZN7Iex_3_111EnotuniqExcC1ERNSt3__118basic_stringstreamIcNS1_11char_traitsIcEENS1_9allocatorIcEEEE
_ZN7Iex_3_111EnotuniqExcC1Ev
_ZN7Iex_3_111EnotuniqExcC2EONSt3__112basic_stringIcNS1_11char_traitsIcEENS1_9allocatorIcEEEE
_ZN7Iex_3_111EnotuniqExcC2EOS0_
_ZN7Iex_3_111EnotuniqExcC2EPKc
_ZN7Iex_3_111EnotuniqExcC2ERKNSt3__112basic_stringIcNS1_11char_traitsIcEENS1_9allocatorIcEEEE
_ZN7Iex_3_111EnotuniqExcC2ERKS0_
_ZN7Iex_3_111EnotuniqExcC2ERNSt3__118basic_stringstreamIcNS1_11char_traitsIcEENS1_9allocatorIcEEEE
_ZN7Iex_3_111EnotuniqExcC2Ev
_ZN7Iex_3_111EnotuniqExcD0Ev
_ZN7Iex_3_111EnotuniqExcD1Ev
_ZN7Iex_3_111EnotuniqExcD2Ev
_ZN7Iex_3_111EnotuniqExcaSEOS0_
_ZN7Iex_3_111EnotuniqExcaSERS0_
_ZN7Iex_3_111EproclimExcC1EONSt3__112basic_stringIcNS1_11char_traitsIcEENS1_9allocatorIcEEEE
_ZN7Iex_3_111EproclimExcC1EOS0_
_ZN7Iex_3_111EproclimExcC1EPKc
_ZN7Iex_3_111EproclimExcC1ERKNSt3__112basic_stringIcNS1_11char_traitsIcEENS1_9allocatorIcEEEE
_ZN7Iex_3_111EproclimExcC1ERKS0_
_ZN7Iex_3_111EproclimExcC1ERNSt3__118basic_stringstreamIcNS1_11char_traitsIcEENS1_9allocatorIcEEEE
_ZN7Iex_3_111EproclimExcC1Ev
_ZN7Iex_3_111EproclimExcC2EONSt3__112basic_stringIcNS1_11char_traitsIcEENS1_9allocatorIcEEEE
_ZN7Iex_3_111EproclimExcC2EOS0_
_ZN7Iex_3_111EproclimExcC2EPKc
_ZN7Iex_3_111EproclimExcC2ERKNSt3__112basic_stringIcNS1_11char_traitsIcEENS1_9allocatorIcEEEE
_ZN7Iex_3_111EproclimExcC2ERKS0_
_ZN7Iex_3_111EproclimExcC2ERNSt3__118basic_stringstreamIcNS1_11char_traitsIcEENS1_9allocatorIcEEEE
_ZN7Iex_3_111EproclimExcC2Ev
_ZN7Iex_3_111EproclimExcD0Ev
_ZN7Iex_3_111EproclimExcD1Ev
_ZN7Iex_3_111EproclimExcD2Ev
_ZN7Iex_3_111EproclimExcaSEOS0_
_ZN7Iex_3_111EproclimExcaSERS0_
_ZN7Iex_3_111ErestartExcC1EONSt3__112basic_stringIcNS1_11char_traitsIcEENS1_9allocatorIcEEEE
_ZN7Iex_3_111ErestartExcC1EOS0_
_ZN7Iex_3_111ErestartExcC1EPKc
_ZN7Iex_3_111ErestartExcC1ERKNSt3__112basic_stringIcNS1_11char_traitsIcEENS1_9allocatorIcEEEE
_ZN7Iex_3_111ErestartExcC1ERKS0_
_ZN7Iex_3_111ErestartExcC1ERNSt3__118basic_stringstreamIcNS1_11char_traitsIcEENS1_9allocatorIcEEEE
_ZN7Iex_3_111ErestartExcC1Ev
_ZN7Iex_3_111ErestartExcC2EONSt3__112basic_stringIcNS1_11char_traitsIcEENS1_9allocatorIcEEEE
_ZN7Iex_3_111ErestartExcC2EOS0_
_ZN7Iex_3_111ErestartExcC2EPKc
_ZN7Iex_3_111ErestartExcC2ERKNSt3__112basic_stringIcNS1_11char_traitsIcEENS1_9allocatorIcEEEE
_ZN7Iex_3_111ErestartExcC2ERKS0_
_ZN7Iex_3_111ErestartExcC2ERNSt3__118basic_stringstreamIcNS1_11char_traitsIcEENS1_9allocatorIcEEEE
_ZN7Iex_3_111ErestartExcC2Ev
_ZN7Iex_3_111ErestartExcD0Ev
_ZN7Iex_3_111ErestartExcD1Ev
_ZN7Iex_3_111ErestartExcD2Ev
_ZN7Iex_3_111ErestartExcaSEOS0_
_ZN7Iex_3_111ErestartExcaSERS0_
_ZN7Iex_3_111EstrpipeExcC1EONSt3__112basic_stringIcNS1_11char_traitsIcEENS1_9allocatorIcEEEE
_ZN7Iex_3_111EstrpipeExcC1EOS0_
_ZN7Iex_3_111EstrpipeExcC1EPKc
_ZN7Iex_3_111EstrpipeExcC1ERKNSt3__112basic_stringIcNS1_11char_traitsIcEENS1_9allocatorIcEEEE
_ZN7Iex_3_111EstrpipeExcC1ERKS0_
_ZN7Iex_3_111EstrpipeExcC1ERNSt3__118basic_stringstreamIcNS1_11char_traitsIcEENS1_9allocatorIcEEEE
_ZN7Iex_3_111EstrpipeExcC1Ev
_ZN7Iex_3_111EstrpipeExcC2EONSt3__112basic_stringIcNS1_11char_traitsIcEENS1_9allocatorIcEEEE
_ZN7Iex_3_111EstrpipeExcC2EOS0_
_ZN7Iex_3_111EstrpipeExcC2EPKc
_ZN7Iex_3_111EstrpipeExcC2ERKNSt3__112basic_stringIcNS1_11char_traitsIcEENS1_9allocatorIcEEEE
_ZN7Iex_3_111EstrpipeExcC2ERKS0_
_ZN7Iex_3_111EstrpipeExcC2ERNSt3__118basic_stringstreamIcNS1_11char_traitsIcEENS1_9allocatorIcEEEE
_ZN7Iex_3_111EstrpipeExcC2Ev
_ZN7Iex_3_111EstrpipeExcD0Ev
_ZN7Iex_3_111EstrpipeExcD1Ev
_ZN7Iex_3_111EstrpipeExcD2Ev
_ZN7Iex_3_111EstrpipeExcaSEOS0_
_ZN7Iex_3_111EstrpipeExcaSERS0_
_ZN7Iex_3_111OverflowExcC1EONSt3__112basic_stringIcNS1_11char_traitsIcEENS1_9allocatorIcEEEE
_ZN7Iex_3_111OverflowExcC1EOS0_
_ZN7Iex_3_111OverflowExcC1EPKc
_ZN7Iex_3_111OverflowExcC1ERKNSt3__112basic_stringIcNS1_11char_traitsIcEENS1_9allocatorIcEEEE
_ZN7Iex_3_111OverflowExcC1ERKS0_
_ZN7Iex_3_111OverflowExcC1ERNSt3__118basic_stringstreamIcNS1_11char_traitsIcEENS1_9allocatorIcEEEE
_ZN7Iex_3_111OverflowExcC1Ev
_ZN7Iex_3_111OverflowExcC2EONSt3__112basic_stringIcNS1_11char_traitsIcEENS1_9allocatorIcEEEE
_ZN7Iex_3_111OverflowExcC2EOS0_
_ZN7Iex_3_111OverflowExcC2EPKc
_ZN7Iex_3_111OverflowExcC2ERKNSt3__112basic_stringIcNS1_11char_traitsIcEENS1_9allocatorIcEEEE
_ZN7Iex_3_111OverflowExcC2ERKS0_
_ZN7Iex_3_111OverflowExcC2ERNSt3__118basic_stringstreamIcNS1_11char_traitsIcEENS1_9allocatorIcEEEE
_ZN7Iex_3_111OverflowExcC2Ev
_ZN7Iex_3_111OverflowExcD0Ev
_ZN7Iex_3_111OverflowExcD1Ev
_ZN7Iex_3_111OverflowExcD2Ev
_ZN7Iex_3_111OverflowExcaSEOS0_
_ZN7Iex_3_111OverflowExcaSERS0_
_ZN7Iex_3_111stackTracerEv
_ZN7Iex_3_112EcanceledExcC1EONSt3__112basic_stringIcNS1_11char_traitsIcEENS1_9allocatorIcEEEE
_ZN7Iex_3_112EcanceledExcC1EOS0_
_ZN7Iex_3_112EcanceledExcC1EPKc
_ZN7Iex_3_112EcanceledExcC1ERKNSt3__112basic_stringIcNS1_11char_traitsIcEENS1_9allocatorIcEEEE
_ZN7Iex_3_112EcanceledExcC1ERKS0_
_ZN7Iex_3_112EcanceledExcC1ERNSt3__118basic_stringstreamIcNS1_11char_traitsIcEENS1_9allocatorIcEEEE
_ZN7Iex_3_112EcanceledExcC1Ev
_ZN7Iex_3_112EcanceledExcC2EONSt3__112basic_stringIcNS1_11char_traitsIcEENS1_9allocatorIcEEEE
_ZN7Iex_3_112EcanceledExcC2EOS0_
_ZN7Iex_3_112EcanceledExcC2EPKc
_ZN7Iex_3_112EcanceledExcC2ERKNSt3__112basic_stringIcNS1_11char_traitsIcEENS1_9allocatorIcEEEE
_ZN7Iex_3_112EcanceledExcC2ERKS0_
_ZN7Iex_3_112EcanceledExcC2ERNSt3__118basic_stringstreamIcNS1_11char_traitsIcEENS1_9allocatorIcEEEE
_ZN7Iex_3_112EcanceledExcC2Ev
_ZN7Iex_3_112EcanceledExcD0Ev
_ZN7Iex_3_112EcanceledExcD1Ev
_ZN7Iex_3_112EcanceledExcD2Ev
_ZN7Iex_3_112EcanceledExcaSEOS0_
_ZN7Iex_3_112EcanceledExcaSERS0_
_ZN7Iex_3_112EclockcpuExcC1EONSt3__112basic_stringIcNS1_11char_traitsIcEENS1_9allocatorIcEEEE
_ZN7Iex_3_112EclockcpuExcC1EOS0_
_ZN7Iex_3_112EclockcpuExcC1EPKc
_ZN7Iex_3_112EclockcpuExcC1ERKNSt3__112basic_stringIcNS1_11char_traitsIcEENS1_9allocatorIcEEEE
_ZN7Iex_3_112EclockcpuExcC1ERKS0_
_ZN7Iex_3_112EclockcpuExcC1ERNSt3__118basic_stringstreamIcNS1_11char_traitsIcEENS1_9allocatorIcEEEE
_ZN7Iex_3_112EclockcpuExcC1Ev
_ZN7Iex_3_112EclockcpuExcC2EONSt3__112basic_stringIcNS1_11char_traitsIcEENS1_9allocatorIcEEEE
_ZN7Iex_3_112EclockcpuExcC2EOS0_
_ZN7Iex_3_112EclockcpuExcC2EPKc
_ZN7Iex_3_112EclockcpuExcC2ERKNSt3__112basic_stringIcNS1_11char_traitsIcEENS1_9allocatorIcEEEE
_ZN7Iex_3_112EclockcpuExcC2ERKS0_
_ZN7Iex_3_112EclockcpuExcC2ERNSt3__118basic_stringstreamIcNS1_11char_traitsIcEENS1_9allocatorIcEEEE
_ZN7Iex_3_112EclockcpuExcC2Ev
_ZN7Iex_3_112EclockcpuExcD0Ev
_ZN7Iex_3_112EclockcpuExcD1Ev
_ZN7Iex_3_112EclockcpuExcD2Ev
_ZN7Iex_3_112EclockcpuExcaSEOS0_
_ZN7Iex_3_112EclockcpuExcaSERS0_
_ZN7Iex_3_112EdeadlockExcC1EONSt3__112basic_stringIcNS1_11char_traitsIcEENS1_9allocatorIcEEEE
_ZN7Iex_3_112EdeadlockExcC1EOS0_
_ZN7Iex_3_112EdeadlockExcC1EPKc
_ZN7Iex_3_112EdeadlockExcC1ERKNSt3__112basic_stringIcNS1_11char_traitsIcEENS1_9allocatorIcEEEE
_ZN7Iex_3_112EdeadlockExcC1ERKS0_
_ZN7Iex_3_112EdeadlockExcC1ERNSt3__118basic_stringstreamIcNS1_11char_traitsIcEENS1_9allocatorIcEEEE
_ZN7Iex_3_112EdeadlockExcC1Ev
_ZN7Iex_3_112EdeadlockExcC2EONSt3__112basic_stringIcNS1_11char_traitsIcEENS1_9allocatorIcEEEE
_ZN7Iex_3_112EdeadlockExcC2EOS0_
_ZN7Iex_3_112EdeadlockExcC2EPKc
_ZN7Iex_3_112EdeadlockExcC2ERKNSt3__112basic_stringIcNS1_11char_traitsIcEENS1_9allocatorIcEEEE
_ZN7Iex_3_112EdeadlockExcC2ERKS0_
_ZN7Iex_3_112EdeadlockExcC2ERNSt3__118basic_stringstreamIcNS1_11char_traitsIcEENS1_9allocatorIcEEEE
_ZN7Iex_3_112EdeadlockExcC2Ev
_ZN7Iex_3_112EdeadlockExcD0Ev
_ZN7Iex_3_112EdeadlockExcD1Ev
_ZN7Iex_3_112EdeadlockExcD2Ev
_ZN7Iex_3_112EdeadlockExcaSEOS0_
_ZN7Iex_3_112EdeadlockExcaSERS0_
_ZN7Iex_3_112EdisjointExcC1EONSt3__112basic_stringIcNS1_11char_traitsIcEENS1_9allocatorIcEEEE
_ZN7Iex_3_112EdisjointExcC1EOS0_
_ZN7Iex_3_112EdisjointExcC1EPKc
_ZN7Iex_3_112EdisjointExcC1ERKNSt3__112basic_stringIcNS1_11char_traitsIcEENS1_9allocatorIcEEEE
_ZN7Iex_3_112EdisjointExcC1ERKS0_
_ZN7Iex_3_112EdisjointExcC1ERNSt3__118basic_stringstreamIcNS1_11char_traitsIcEENS1_9allocatorIcEEEE
_ZN7Iex_3_112EdisjointExcC1Ev
_ZN7Iex_3_112EdisjointExcC2EONSt3__112basic_stringIcNS1_11char_traitsIcEENS1_9allocatorIcEEEE
_ZN7Iex_3_112EdisjointExcC2EOS0_
_ZN7Iex_3_112EdisjointExcC2EPKc
_ZN7Iex_3_112EdisjointExcC2ERKNSt3__112basic_stringIcNS1_11char_traitsIcEENS1_9allocatorIcEEEE
_ZN7Iex_3_112EdisjointExcC2ERKS0_
_ZN7Iex_3_112EdisjointExcC2ERNSt3__118basic_stringstreamIcNS1_11char_traitsIcEENS1_9allocatorIcEEEE
_ZN7Iex_3_112EdisjointExcC2Ev
_ZN7Iex_3_112EdisjointExcD0Ev
_ZN7Iex_3_112EdisjointExcD1Ev
_ZN7Iex_3_112EdisjointExcD2Ev
_ZN7Iex_3_112EdisjointExcaSEOS0_
_ZN7Iex_3_112EdisjointExcaSERS0_
_ZN7Iex_3_112EenqueuedExcC1EONSt3__112basic_stringIcNS1_11char_traitsIcEENS1_9allocatorIcEEEE
_ZN7Iex_3_112EenqueuedExcC1EOS0_
_ZN7Iex_3_112EenqueuedExcC1EPKc
_ZN7Iex_3_112EenqueuedExcC1ERKNSt3__112basic_stringIcNS1_11char_traitsIcEENS1_9allocatorIcEEEE
_ZN7Iex_3_112EenqueuedExcC1ERKS0_
_ZN7Iex_3_112EenqueuedExcC1ERNSt3__118basic_stringstreamIcNS1_11char_traitsIcEENS1_9allocatorIcEEEE
_ZN7Iex_3_112EenqueuedExcC1Ev
_ZN7Iex_3_112EenqueuedExcC2EONSt3__112basic_stringIcNS1_11char_traitsIcEENS1_9allocatorIcEEEE
_ZN7Iex_3_112EenqueuedExcC2EOS0_
_ZN7Iex_3_112EenqueuedExcC2EPKc
_ZN7Iex_3_112EenqueuedExcC2ERKNSt3__112basic_stringIcNS1_11char_traitsIcEENS1_9allocatorIcEEEE
_ZN7Iex_3_112EenqueuedExcC2ERKS0_
_ZN7Iex_3_112EenqueuedExcC2ERNSt3__118basic_stringstreamIcNS1_11char_traitsIcEENS1_9allocatorIcEEEE
_ZN7Iex_3_112EenqueuedExcC2Ev
_ZN7Iex_3_112EenqueuedExcD0Ev
_ZN7Iex_3_112EenqueuedExcD1Ev
_ZN7Iex_3_112EenqueuedExcD2Ev
_ZN7Iex_3_112EenqueuedExcaSEOS0_
_ZN7Iex_3_112EenqueuedExcaSERS0_
_ZN7Iex_3_112EhostdownExcC1EONSt3__112basic_stringIcNS1_11char_traitsIcEENS1_9allocatorIcEEEE
_ZN7Iex_3_112EhostdownExcC1EOS0_
_ZN7Iex_3_112EhostdownExcC1EPKc
_ZN7Iex_3_112EhostdownExcC1ERKNSt3__112basic_stringIcNS1_11char_traitsIcEENS1_9allocatorIcEEEE
_ZN7Iex_3_112EhostdownExcC1ERKS0_
_ZN7Iex_3_112EhostdownExcC1ERNSt3__118basic_stringstreamIcNS1_11char_traitsIcEENS1_9allocatorIcEEEE
_ZN7Iex_3_112EhostdownExcC1Ev
_ZN7Iex_3_112EhostdownExcC2EONSt3__112basic_stringIcNS1_11char_traitsIcEENS1_9allocatorIcEEEE
_ZN7Iex_3_112EhostdownExcC2EOS0_
_ZN7Iex_3_112EhostdownExcC2EPKc
_ZN7Iex_3_112EhostdownExcC2ERKNSt3__112basic_stringIcNS1_11char_traitsIcEENS1_9allocatorIcEEEE
_ZN7Iex_3_112EhostdownExcC2ERKS0_
_ZN7Iex_3_112EhostdownExcC2ERNSt3__118basic_stringstreamIcNS1_11char_traitsIcEENS1_9allocatorIcEEEE
_ZN7Iex_3_112EhostdownExcC2Ev
_ZN7Iex_3_112EhostdownExcD0Ev
_ZN7Iex_3_112EhostdownExcD1Ev
_ZN7Iex_3_112EhostdownExcD2Ev
_ZN7Iex_3_112EhostdownExcaSEOS0_
_ZN7Iex_3_112EhostdownExcaSERS0_
_ZN7Iex_3_112EloginlimExcC1EONSt3__112basic_stringIcNS1_11char_traitsIcEENS1_9allocatorIcEEEE
_ZN7Iex_3_112EloginlimExcC1EOS0_
_ZN7Iex_3_112EloginlimExcC1EPKc
_ZN7Iex_3_112EloginlimExcC1ERKNSt3__112basic_stringIcNS1_11char_traitsIcEENS1_9allocatorIcEEEE
_ZN7Iex_3_112EloginlimExcC1ERKS0_
_ZN7Iex_3_112EloginlimExcC1ERNSt3__118basic_stringstreamIcNS1_11char_traitsIcEENS1_9allocatorIcEEEE
_ZN7Iex_3_112EloginlimExcC1Ev
_ZN7Iex_3_112EloginlimExcC2EONSt3__112basic_stringIcNS1_11char_traitsIcEENS1_9allocatorIcEEEE
_ZN7Iex_3_112EloginlimExcC2EOS0_
_ZN7Iex_3_112EloginlimExcC2EPKc
_ZN7Iex_3_112EloginlimExcC2ERKNSt3__112basic_stringIcNS1_11char_traitsIcEENS1_9allocatorIcEEEE
_ZN7Iex_3_112EloginlimExcC2ERKS0_
_ZN7Iex_3_112EloginlimExcC2ERNSt3__118basic_stringstreamIcNS1_11char_traitsIcEENS1_9allocatorIcEEEE
_ZN7Iex_3_112EloginlimExcC2Ev
_ZN7Iex_3_112EloginlimExcD0Ev
_ZN7Iex_3_112EloginlimExcD1Ev
_ZN7Iex_3_112EloginlimExcD2Ev
_ZN7Iex_3_112EloginlimExcaSEOS0_
_ZN7Iex_3_112EloginlimExcaSERS0_
_ZN7Iex_3_112EmultihopExcC1EONSt3__112basic_stringIcNS1_11char_traitsIcEENS1_9allocatorIcEEEE
_ZN7Iex_3_112EmultihopExcC1EOS0_
_ZN7Iex_3_112EmultihopExcC1EPKc
_ZN7Iex_3_112EmultihopExcC1ERKNSt3__112basic_stringIcNS1_11char_traitsIcEENS1_9allocatorIcEEEE
_ZN7Iex_3_112EmultihopExcC1ERKS0_
_ZN7Iex_3_112EmultihopExcC1ERNSt3__118basic_stringstreamIcNS1_11char_traitsIcEENS1_9allocatorIcEEEE
_ZN7Iex_3_112EmultihopExcC1Ev
_ZN7Iex_3_112EmultihopExcC2EONSt3__112basic_stringIcNS1_11char_traitsIcEENS1_9allocatorIcEEEE
_ZN7Iex_3_112EmultihopExcC2EOS0_
_ZN7Iex_3_112EmultihopExcC2EPKc
_ZN7Iex_3_112EmultihopExcC2ERKNSt3__112basic_stringIcNS1_11char_traitsIcEENS1_9allocatorIcEEEE
_ZN7Iex_3_112EmultihopExcC2ERKS0_
_ZN7Iex_3_112EmultihopExcC2ERNSt3__118basic_stringstreamIcNS1_11char_traitsIcEENS1_9allocatorIcEEEE
_ZN7Iex_3_112EmultihopExcC2Ev
_ZN7Iex_3_112EmultihopExcD0Ev
_ZN7Iex_3_112EmultihopExcD1Ev
_ZN7Iex_3_112EmultihopExcD2Ev
_ZN7Iex_3_112EmultihopExcaSEOS0_
_ZN7Iex_3_112EmultihopExcaSERS0_
_ZN7Iex_3_112EnetresetExcC1EONSt3__112basic_stringIcNS1_11char_traitsIcEENS1_9allocatorIcEEEE
_ZN7Iex_3_112EnetresetExcC1EOS0_
_ZN7Iex_3_112EnetresetExcC1EPKc
_ZN7Iex_3_112EnetresetExcC1ERKNSt3__112basic_stringIcNS1_11char_traitsIcEENS1_9allocatorIcEEEE
_ZN7Iex_3_112EnetresetExcC1ERKS0_
_ZN7Iex_3_112EnetresetExcC1ERNSt3__118basic_stringstreamIcNS1_11char_traitsIcEENS1_9allocatorIcEEEE
_ZN7Iex_3_112EnetresetExcC1Ev
_ZN7Iex_3_112EnetresetExcC2EONSt3__112basic_stringIcNS1_11char_traitsIcEENS1_9allocatorIcEEEE
_ZN7Iex_3_112EnetresetExcC2EOS0_
_ZN7Iex_3_112EnetresetExcC2EPKc
_ZN7Iex_3_112EnetresetExcC2ERKNSt3__112basic_stringIcNS1_11char_traitsIcEENS1_9allocatorIcEEEE
_ZN7Iex_3_112EnetresetExcC2ERKS0_
_ZN7Iex_3_112EnetresetExcC2ERNSt3__118basic_stringstreamIcNS1_11char_traitsIcEENS1_9allocatorIcEEEE
_ZN7Iex_3_112EnetresetExcC2Ev
_ZN7Iex_3_112EnetresetExcD0Ev
_ZN7Iex_3_112EnetresetExcD1Ev
_ZN7Iex_3_112EnetresetExcD2Ev
_ZN7Iex_3_112EnetresetExcaSEOS0_
_ZN7Iex_3_112EnetresetExcaSERS0_
_ZN7Iex_3_112EnoattachExcC1EONSt3__112basic_stringIcNS1_11char_traitsIcEENS1_9allocatorIcEEEE
_ZN7Iex_3_112EnoattachExcC1EOS0_
_ZN7Iex_3_112EnoattachExcC1EPKc
_ZN7Iex_3_112EnoattachExcC1ERKNSt3__112basic_stringIcNS1_11char_traitsIcEENS1_9allocatorIcEEEE
_ZN7Iex_3_112EnoattachExcC1ERKS0_
_ZN7Iex_3_112EnoattachExcC1ERNSt3__118basic_stringstreamIcNS1_11char_traitsIcEENS1_9allocatorIcEEEE
_ZN7Iex_3_112EnoattachExcC1Ev
_ZN7Iex_3_112EnoattachExcC2EONSt3__112basic_stringIcNS1_11char_traitsIcEENS1_9allocatorIcEEEE
_ZN7Iex_3_112EnoattachExcC2EOS0_
_ZN7Iex_3_112EnoattachExcC2EPKc
_ZN7Iex_3_112EnoattachExcC2ERKNSt3__112basic_stringIcNS1_11char_traitsIcEENS1_9allocatorIcEEEE
_ZN7Iex_3_112EnoattachExcC2ERKS0_
_ZN7Iex_3_112EnoattachExcC2ERNSt3__118basic_stringstreamIcNS1_11char_traitsIcEENS1_9allocatorIcEEEE
_ZN7Iex_3_112EnoattachExcC2Ev
_ZN7Iex_3_112EnoattachExcD0Ev
_ZN7Iex_3_112EnoattachExcD1Ev
_ZN7Iex_3_112EnoattachExcD2Ev
_ZN7Iex_3_112EnoattachExcaSEOS0_
_ZN7Iex_3_112EnoattachExcaSERS0_
_ZN7Iex_3_112EnotemptyExcC1EONSt3__112basic_stringIcNS1_11char_traitsIcEENS1_9allocatorIcEEEE
_ZN7Iex_3_112EnotemptyExcC1EOS0_
_ZN7Iex_3_112EnotemptyExcC1EPKc
_ZN7Iex_3_112EnotemptyExcC1ERKNSt3__112basic_stringIcNS1_11char_traitsIcEENS1_9allocatorIcEEEE
_ZN7Iex_3_112EnotemptyExcC1ERKS0_
_ZN7Iex_3_112EnotemptyExcC1ERNSt3__118basic_stringstreamIcNS1_11char_traitsIcEENS1_9allocatorIcEEEE
_ZN7Iex_3_112EnotemptyExcC1Ev
_ZN7Iex_3_112EnotemptyExcC2EONSt3__112basic_stringIcNS1_11char_traitsIcEENS1_9allocatorIcEEEE
_ZN7Iex_3_112EnotemptyExcC2EOS0_
_ZN7Iex_3_112EnotemptyExcC2EPKc
_ZN7Iex_3_112EnotemptyExcC2ERKNSt3__112basic_stringIcNS1_11char_traitsIcEENS1_9allocatorIcEEEE
_ZN7Iex_3_112EnotemptyExcC2ERKS0_
_ZN7Iex_3_112EnotemptyExcC2ERNSt3__118basic_stringstreamIcNS1_11char_traitsIcEENS1_9allocatorIcEEEE
_ZN7Iex_3_112EnotemptyExcC2Ev
_ZN7Iex_3_112EnotemptyExcD0Ev
_ZN7Iex_3_112EnotemptyExcD1Ev
_ZN7Iex_3_112EnotemptyExcD2Ev
_ZN7Iex_3_112EnotemptyExcaSEOS0_
_ZN7Iex_3_112EnotemptyExcaSERS0_
_ZN7Iex_3_112EoverflowExcC1EONSt3__112basic_stringIcNS1_11char_traitsIcEENS1_9allocatorIcEEEE
_ZN7Iex_3_112EoverflowExcC1EOS0_
_ZN7Iex_3_112EoverflowExcC1EPKc
_ZN7Iex_3_112EoverflowExcC1ERKNSt3__112basic_stringIcNS1_11char_traitsIcEENS1_9allocatorIcEEEE
_ZN7Iex_3_112EoverflowExcC1ERKS0_
_ZN7Iex_3_112EoverflowExcC1ERNSt3__118basic_stringstreamIcNS1_11char_traitsIcEENS1_9allocatorIcEEEE
_ZN7Iex_3_112EoverflowExcC1Ev
_ZN7Iex_3_112EoverflowExcC2EONSt3__112basic_stringIcNS1_11char_traitsIcEENS1_9allocatorIcEEEE
_ZN7Iex_3_112EoverflowExcC2EOS0_
_ZN7Iex_3_112EoverflowExcC2EPKc
_ZN7Iex_3_112EoverflowExcC2ERKNSt3__112basic_stringIcNS1_11char_traitsIcEENS1_9allocatorIcEEEE
_ZN7Iex_3_112EoverflowExcC2ERKS0_
_ZN7Iex_3_112EoverflowExcC2ERNSt3__118basic_stringstreamIcNS1_11char_traitsIcEENS1_9allocatorIcEEEE
_ZN7Iex_3_112EoverflowExcC2Ev
_ZN7Iex_3_112EoverflowExcD0Ev
_ZN7Iex_3_112EoverflowExcD1Ev
_ZN7Iex_3_112EoverflowExcD2Ev
_ZN7Iex_3_112EoverflowExcaSEOS0_
_ZN7Iex_3_112EoverflowExcaSERS0_
_ZN7Iex_3_112EremoteioExcC1EONSt3__112basic_stringIcNS1_11char_traitsIcEENS1_9allocatorIcEEEE
_ZN7Iex_3_112EremoteioExcC1EOS0_
_ZN7Iex_3_112EremoteioExcC1EPKc
_ZN7Iex_3_112EremoteioExcC1ERKNSt3__112basic_stringIcNS1_11char_traitsIcEENS1_9allocatorIcEEEE
_ZN7Iex_3_112EremoteioExcC1ERKS0_
_ZN7Iex_3_112EremoteioExcC1ERNSt3__118basic_stringstreamIcNS1_11char_traitsIcEENS1_9allocatorIcEEEE
_ZN7Iex_3_112EremoteioExcC1Ev
_ZN7Iex_3_112EremoteioExcC2EONSt3__112basic_stringIcNS1_11char_traitsIcEENS1_9allocatorIcEEEE
_ZN7Iex_3_112EremoteioExcC2EOS0_
_ZN7Iex_3_112EremoteioExcC2EPKc
_ZN7Iex_3_112EremoteioExcC2ERKNSt3__112basic_stringIcNS1_11char_traitsIcEENS1_9allocatorIcEEEE
_ZN7Iex_3_112EremoteioExcC2ERKS0_
_ZN7Iex_3_112EremoteioExcC2ERNSt3__118basic_stringstreamIcNS1_11char_traitsIcEENS1_9allocatorIcEEEE
_ZN7Iex_3_112EremoteioExcC2Ev
_ZN7Iex_3_112EremoteioExcD0Ev
_ZN7Iex_3_112EremoteioExcD1Ev
_ZN7Iex_3_112EremoteioExcD2Ev
_ZN7Iex_3_112EremoteioExcaSEOS0_
_ZN7Iex_3_112EremoteioExcaSERS0_
_ZN7Iex_3_112EshutdownExcC1EONSt3__112basic_stringIcNS1_11char_traitsIcEENS1_9allocatorIcEEEE
_ZN7Iex_3_112EshutdownExcC1EOS0_
_ZN7Iex_3_112EshutdownExcC1EPKc
_ZN7Iex_3_112EshutdownExcC1ERKNSt3__112basic_stringIcNS1_11char_traitsIcEENS1_9allocatorIcEEEE
_ZN7Iex_3_112EshutdownExcC1ERKS0_
_ZN7Iex_3_112EshutdownExcC1ERNSt3__118basic_stringstreamIcNS1_11char_traitsIcEENS1_9allocatorIcEEEE
_ZN7Iex_3_112EshutdownExcC1Ev
_ZN7Iex_3_112EshutdownExcC2EONSt3__112basic_stringIcNS1_11char_traitsIcEENS1_9allocatorIcEEEE
_ZN7Iex_3_112EshutdownExcC2EOS0_
_ZN7Iex_3_112EshutdownExcC2EPKc
_ZN7Iex_3_112EshutdownExcC2ERKNSt3__112basic_stringIcNS1_11char_traitsIcEENS1_9allocatorIcEEEE
_ZN7Iex_3_112EshutdownExcC2ERKS0_
_ZN7Iex_3_112EshutdownExcC2ERNSt3__118basic_stringstreamIcNS1_11char_traitsIcEENS1_9allocatorIcEEEE
_ZN7Iex_3_112EshutdownExcC2Ev
_ZN7Iex_3_112EshutdownExcD0Ev
_ZN7Iex_3_112EshutdownExcD1Ev
_ZN7Iex_3_112EshutdownExcD2Ev
_ZN7Iex_3_112EshutdownExcaSEOS0_
_ZN7Iex_3_112EshutdownExcaSERS0_
_ZN7Iex_3_112EtimedoutExcC1EONSt3__112basic_stringIcNS1_11char_traitsIcEENS1_9allocatorIcEEEE
_ZN7Iex_3_112EtimedoutExcC1EOS0_
_ZN7Iex_3_112EtimedoutExcC1EPKc
_ZN7Iex_3_112EtimedoutExcC1ERKNSt3__112basic_stringIcNS1_11char_traitsIcEENS1_9allocatorIcEEEE
_ZN7Iex_3_112EtimedoutExcC1ERKS0_
_ZN7Iex_3_112EtimedoutExcC1ERNSt3__118basic_stringstreamIcNS1_11char_traitsIcEENS1_9allocatorIcEEEE
_ZN7Iex_3_112EtimedoutExcC1Ev
_ZN7Iex_3_112EtimedoutExcC2EONSt3__112basic_stringIcNS1_11char_traitsIcEENS1_9allocatorIcEEEE
_ZN7Iex_3_112EtimedoutExcC2EOS0_
_ZN7Iex_3_112EtimedoutExcC2EPKc
_ZN7Iex_3_112EtimedoutExcC2ERKNSt3__112basic_stringIcNS1_11char_traitsIcEENS1_9allocatorIcEEEE
_ZN7Iex_3_112EtimedoutExcC2ERKS0_
_ZN7Iex_3_112EtimedoutExcC2ERNSt3__118basic_stringstreamIcNS1_11char_traitsIcEENS1_9allocatorIcEEEE
_ZN7Iex_3_112EtimedoutExcC2Ev
_ZN7Iex_3_112EtimedoutExcD0Ev
_ZN7Iex_3_112EtimedoutExcD1Ev
_ZN7Iex_3_112EtimedoutExcD2Ev
_ZN7Iex_3_112EtimedoutExcaSEOS0_
_ZN7Iex_3_112EtimedoutExcaSERS0_
_ZN7Iex_3_112UnderflowExcC1EONSt3__112basic_stringIcNS1_11char_traitsIcEENS1_9allocatorIcEEEE
_ZN7Iex_3_112UnderflowExcC1EOS0_
_ZN7Iex_3_112UnderflowExcC1EPKc
_ZN7Iex_3_112UnderflowExcC1ERKNSt3__112basic_stringIcNS1_11char_traitsIcEENS1_9allocatorIcEEEE
_ZN7Iex_3_112UnderflowExcC1ERKS0_
_ZN7Iex_3_112UnderflowExcC1ERNSt3__118basic_stringstreamIcNS1_11char_traitsIcEENS1_9allocatorIcEEEE
_ZN7Iex_3_112UnderflowExcC1Ev
_ZN7Iex_3_112UnderflowExcC2EONSt3__112basic_stringIcNS1_11char_traitsIcEENS1_9allocatorIcEEEE
_ZN7Iex_3_112UnderflowExcC2EOS0_
_ZN7Iex_3_112UnderflowExcC2EPKc
_ZN7Iex_3_112UnderflowExcC2ERKNSt3__112basic_stringIcNS1_11char_traitsIcEENS1_9allocatorIcEEEE
_ZN7Iex_3_112UnderflowExcC2ERKS0_
_ZN7Iex_3_112UnderflowExcC2ERNSt3__118basic_stringstreamIcNS1_11char_traitsIcEENS1_9allocatorIcEEEE
_ZN7Iex_3_112UnderflowExcC2Ev
_ZN7Iex_3_112UnderflowExcD0Ev
_ZN7Iex_3_112UnderflowExcD1Ev
_ZN7Iex_3_112UnderflowExcD2Ev
_ZN7Iex_3_112UnderflowExcaSEOS0_
_ZN7Iex_3_112UnderflowExcaSERS0_
_ZN7Iex_3_112getMathExcOnEv
_ZN7Iex_3_113EaddrinuseExcC1EONSt3__112basic_stringIcNS1_11char_traitsIcEENS1_9allocatorIcEEEE
_ZN7Iex_3_113EaddrinuseExcC1EOS0_
_ZN7Iex_3_113EaddrinuseExcC1EPKc
_ZN7Iex_3_113EaddrinuseExcC1ERKNSt3__112basic_stringIcNS1_11char_traitsIcEENS1_9allocatorIcEEEE
_ZN7Iex_3_113EaddrinuseExcC1ERKS0_
_ZN7Iex_3_113EaddrinuseExcC1ERNSt3__118basic_stringstreamIcNS1_11char_traitsIcEENS1_9allocatorIcEEEE
_ZN7Iex_3_113EaddrinuseExcC1Ev
_ZN7Iex_3_113EaddrinuseExcC2EONSt3__112basic_stringIcNS1_11char_traitsIcEENS1_9allocatorIcEEEE
_ZN7Iex_3_113EaddrinuseExcC2EOS0_
_ZN7Iex_3_113EaddrinuseExcC2EPKc
_ZN7Iex_3_113EaddrinuseExcC2ERKNSt3__112basic_stringIcNS1_11char_traitsIcEENS1_9allocatorIcEEEE
_ZN7Iex_3_113EaddrinuseExcC2ERKS0_
_ZN7Iex_3_113EaddrinuseExcC2ERNSt3__118basic_stringstreamIcNS1_11char_traitsIcEENS1_9allocatorIcEEEE
_ZN7Iex_3_113EaddrinuseExcC2Ev
_ZN7Iex_3_113EaddrinuseExcD0Ev
_ZN7Iex_3_113EaddrinuseExcD1Ev
_ZN7Iex_3_113EaddrinuseExcD2Ev
_ZN7Iex_3_113EaddrinuseExcaSEOS0_
_ZN7Iex_3_113EaddrinuseExcaSERS0_
_ZN7Iex_3_113EconnresetExcC1EONSt3__112basic_stringIcNS1_11char_traitsIcEENS1_9allocatorIcEEEE
_ZN7Iex_3_113EconnresetExcC1EOS0_
_ZN7Iex_3_113EconnresetExcC1EPKc
_ZN7Iex_3_113EconnresetExcC1ERKNSt3__112basic_stringIcNS1_11char_traitsIcEENS1_9allocatorIcEEEE
_ZN7Iex_3_113EconnresetExcC1ERKS0_
_ZN7Iex_3_113EconnresetExcC1ERNSt3__118basic_stringstreamIcNS1_11char_traitsIcEENS1_9allocatorIcEEEE
_ZN7Iex_3_113EconnresetExcC1Ev
_ZN7Iex_3_113EconnresetExcC2EONSt3__112basic_stringIcNS1_11char_traitsIcEENS1_9allocatorIcEEEE
_ZN7Iex_3_113EconnresetExcC2EOS0_
_ZN7Iex_3_113EconnresetExcC2EPKc
_ZN7Iex_3_113EconnresetExcC2ERKNSt3__112basic_stringIcNS1_11char_traitsIcEENS1_9allocatorIcEEEE
_ZN7Iex_3_113EconnresetExcC2ERKS0_
_ZN7Iex_3_113EconnresetExcC2ERNSt3__118basic_stringstreamIcNS1_11char_traitsIcEENS1_9allocatorIcEEEE
_ZN7Iex_3_113EconnresetExcC2Ev
_ZN7Iex_3_113EconnresetExcD0Ev
_ZN7Iex_3_113EconnresetExcD1Ev
_ZN7Iex_3_113EconnresetExcD2Ev
_ZN7Iex_3_113EconnresetExcaSEOS0_
_ZN7Iex_3_113EconnresetExcaSERS0_
_ZN7Iex_3_113EdestroyedExcC1EONSt3__112basic_stringIcNS1_11char_traitsIcEENS1_9allocatorIcEEEE
_ZN7Iex_3_113EdestroyedExcC1EOS0_
_ZN7Iex_3_113EdestroyedExcC1EPKc
_ZN7Iex_3_113EdestroyedExcC1ERKNSt3__112basic_stringIcNS1_11char_traitsIcEENS1_9allocatorIcEEEE
_ZN7Iex_3_113EdestroyedExcC1ERKS0_
_ZN7Iex_3_113EdestroyedExcC1ERNSt3__118basic_stringstreamIcNS1_11char_traitsIcEENS1_9allocatorIcEEEE
_ZN7Iex_3_113EdestroyedExcC1Ev
_ZN7Iex_3_113EdestroyedExcC2EONSt3__112basic_stringIcNS1_11char_traitsIcEENS1_9allocatorIcEEEE
_ZN7Iex_3_113EdestroyedExcC2EOS0_
_ZN7Iex_3_113EdestroyedExcC2EPKc
_ZN7Iex_3_113EdestroyedExcC2ERKNSt3__112basic_stringIcNS1_11char_traitsIcEENS1_9allocatorIcEEEE
_ZN7Iex_3_113EdestroyedExcC2ERKS0_
_ZN7Iex_3_113EdestroyedExcC2ERNSt3__118basic_stringstreamIcNS1_11char_traitsIcEENS1_9allocatorIcEEEE
_ZN7Iex_3_113EdestroyedExcC2Ev
_ZN7Iex_3_113EdestroyedExcD0Ev
_ZN7Iex_3_113EdestroyedExcD1Ev
_ZN7Iex_3_113EdestroyedExcD2Ev
_ZN7Iex_3_113EdestroyedExcaSEOS0_
_ZN7Iex_3_113EdestroyedExcaSERS0_
_ZN7Iex_3_113EgrouploopExcC1EONSt3__112basic_stringIcNS1_11char_traitsIcEENS1_9allocatorIcEEEE
_ZN7Iex_3_113EgrouploopExcC1EOS0_
_ZN7Iex_3_113EgrouploopExcC1EPKc
_ZN7Iex_3_113EgrouploopExcC1ERKNSt3__112basic_stringIcNS1_11char_traitsIcEENS1_9allocatorIcEEEE
_ZN7Iex_3_113EgrouploopExcC1ERKS0_
_ZN7Iex_3_113EgrouploopExcC1ERNSt3__118basic_stringstreamIcNS1_11char_traitsIcEENS1_9allocatorIcEEEE
_ZN7Iex_3_113EgrouploopExcC1Ev
_ZN7Iex_3_113EgrouploopExcC2EONSt3__112basic_stringIcNS1_11char_traitsIcEENS1_9allocatorIcEEEE
_ZN7Iex_3_113EgrouploopExcC2EOS0_
_ZN7Iex_3_113EgrouploopExcC2EPKc
_ZN7Iex_3_113EgrouploopExcC2ERKNSt3__112basic_stringIcNS1_11char_traitsIcEENS1_9allocatorIcEEEE
_ZN7Iex_3_113EgrouploopExcC2ERKS0_
_ZN7Iex_3_113EgrouploopExcC2ERNSt3__118basic_stringstreamIcNS1_11char_traitsIcEENS1_9allocatorIcEEEE
_ZN7Iex_3_113EgrouploopExcC2Ev
_ZN7Iex_3_113EgrouploopExcD0Ev
_ZN7Iex_3_113EgrouploopExcD1Ev
_ZN7Iex_3_113EgrouploopExcD2Ev
_ZN7Iex_3_113EgrouploopExcaSEOS0_
_ZN7Iex_3_113EgrouploopExcaSERS0_
_ZN7Iex_3_113EinvalmodeExcC1EONSt3__112basic_stringIcNS1_11char_traitsIcEENS1_9allocatorIcEEEE
_ZN7Iex_3_113EinvalmodeExcC1EOS0_
_ZN7Iex_3_113EinvalmodeExcC1EPKc
_ZN7Iex_3_113EinvalmodeExcC1ERKNSt3__112basic_stringIcNS1_11char_traitsIcEENS1_9allocatorIcEEEE
_ZN7Iex_3_113EinvalmodeExcC1ERKS0_
_ZN7Iex_3_113EinvalmodeExcC1ERNSt3__118basic_stringstreamIcNS1_11char_traitsIcEENS1_9allocatorIcEEEE
_ZN7Iex_3_113EinvalmodeExcC1Ev
_ZN7Iex_3_113EinvalmodeExcC2EONSt3__112basic_stringIcNS1_11char_traitsIcEENS1_9allocatorIcEEEE
_ZN7Iex_3_113EinvalmodeExcC2EOS0_
_ZN7Iex_3_113EinvalmodeExcC2EPKc
_ZN7Iex_3_113EinvalmodeExcC2ERKNSt3__112basic_stringIcNS1_11char_traitsIcEENS1_9allocatorIcEEEE
_ZN7Iex_3_113EinvalmodeExcC2ERKS0_
_ZN7Iex_3_113EinvalmodeExcC2ERNSt3__118basic_stringstreamIcNS1_11char_traitsIcEENS1_9allocatorIcEEEE
_ZN7Iex_3_113EinvalmodeExcC2Ev
_ZN7Iex_3_113EinvalmodeExcD0Ev
_ZN7Iex_3_113EinvalmodeExcD1Ev
_ZN7Iex_3_113EinvalmodeExcD2Ev
_ZN7Iex_3_113EinvalmodeExcaSEOS0_
_ZN7Iex_3_113EinvalmodeExcaSERS0_
_ZN7Iex_3_113EinvaltimeExcC1EONSt3__112basic_stringIcNS1_11char_traitsIcEENS1_9allocatorIcEEEE
_ZN7Iex_3_113EinvaltimeExcC1EOS0_
_ZN7Iex_3_113EinvaltimeExcC1EPKc
_ZN7Iex_3_113EinvaltimeExcC1ERKNSt3__112basic_stringIcNS1_11char_traitsIcEENS1_9allocatorIcEEEE
_ZN7Iex_3_113EinvaltimeExcC1ERKS0_
_ZN7Iex_3_113EinvaltimeExcC1ERNSt3__118basic_stringstreamIcNS1_11char_traitsIcEENS1_9allocatorIcEEEE
_ZN7Iex_3_113EinvaltimeExcC1Ev
_ZN7Iex_3_113EinvaltimeExcC2EONSt3__112basic_stringIcNS1_11char_traitsIcEENS1_9allocatorIcEEEE
_ZN7Iex_3_113EinvaltimeExcC2EOS0_
_ZN7Iex_3_113EinvaltimeExcC2EPKc
_ZN7Iex_3_113EinvaltimeExcC2ERKNSt3__112basic_stringIcNS1_11char_traitsIcEENS1_9allocatorIcEEEE
_ZN7Iex_3_113EinvaltimeExcC2ERKS0_
_ZN7Iex_3_113EinvaltimeExcC2ERNSt3__118basic_stringstreamIcNS1_11char_traitsIcEENS1_9allocatorIcEEEE
_ZN7Iex_3_113EinvaltimeExcC2Ev
_ZN7Iex_3_113EinvaltimeExcD0Ev
_ZN7Iex_3_113EinvaltimeExcD1Ev
_ZN7Iex_3_113EinvaltimeExcD2Ev
_ZN7Iex_3_113EinvaltimeExcaSEOS0_
_ZN7Iex_3_113EinvaltimeExcaSERS0_
_ZN7Iex_3_113EnfsremoteExcC1EONSt3__112basic_stringIcNS1_11char_traitsIcEENS1_9allocatorIcEEEE
_ZN7Iex_3_113EnfsremoteExcC1EOS0_
_ZN7Iex_3_113EnfsremoteExcC1EPKc
_ZN7Iex_3_113EnfsremoteExcC1ERKNSt3__112basic_stringIcNS1_11char_traitsIcEENS1_9allocatorIcEEEE
_ZN7Iex_3_113EnfsremoteExcC1ERKS0_
_ZN7Iex_3_113EnfsremoteExcC1ERNSt3__118basic_stringstreamIcNS1_11char_traitsIcEENS1_9allocatorIcEEEE
_ZN7Iex_3_113EnfsremoteExcC1Ev
_ZN7Iex_3_113EnfsremoteExcC2EONSt3__112basic_stringIcNS1_11char_traitsIcEENS1_9allocatorIcEEEE
_ZN7Iex_3_113EnfsremoteExcC2EOS0_
_ZN7Iex_3_113EnfsremoteExcC2EPKc
_ZN7Iex_3_113EnfsremoteExcC2ERKNSt3__112basic_stringIcNS1_11char_traitsIcEENS1_9allocatorIcEEEE
_ZN7Iex_3_113EnfsremoteExcC2ERKS0_
_ZN7Iex_3_113EnfsremoteExcC2ERNSt3__118basic_stringstreamIcNS1_11char_traitsIcEENS1_9allocatorIcEEEE
_ZN7Iex_3_113EnfsremoteExcC2Ev
_ZN7Iex_3_113EnfsremoteExcD0Ev
_ZN7Iex_3_113EnfsremoteExcD1Ev
_ZN7Iex_3_113EnfsremoteExcD2Ev
_ZN7Iex_3_113EnfsremoteExcaSEOS0_
_ZN7Iex_3_113EnfsremoteExcaSERS0_
_ZN7Iex_3_113EnolimfileExcC1EONSt3__112basic_stringIcNS1_11char_traitsIcEENS1_9allocatorIcEEEE
_ZN7Iex_3_113EnolimfileExcC1EOS0_
_ZN7Iex_3_113EnolimfileExcC1EPKc
_ZN7Iex_3_113EnolimfileExcC1ERKNSt3__112basic_stringIcNS1_11char_traitsIcEENS1_9allocatorIcEEEE
_ZN7Iex_3_113EnolimfileExcC1ERKS0_
_ZN7Iex_3_113EnolimfileExcC1ERNSt3__118basic_stringstreamIcNS1_11char_traitsIcEENS1_9allocatorIcEEEE
_ZN7Iex_3_113EnolimfileExcC1Ev
_ZN7Iex_3_113EnolimfileExcC2EONSt3__112basic_stringIcNS1_11char_traitsIcEENS1_9allocatorIcEEEE
_ZN7Iex_3_113EnolimfileExcC2EOS0_
_ZN7Iex_3_113EnolimfileExcC2EPKc
_ZN7Iex_3_113EnolimfileExcC2ERKNSt3__112basic_stringIcNS1_11char_traitsIcEENS1_9allocatorIcEEEE
_ZN7Iex_3_113EnolimfileExcC2ERKS0_
_ZN7Iex_3_113EnolimfileExcC2ERNSt3__118basic_stringstreamIcNS1_11char_traitsIcEENS1_9allocatorIcEEEE
_ZN7Iex_3_113EnolimfileExcC2Ev
_ZN7Iex_3_113EnolimfileExcD0Ev
_ZN7Iex_3_113EnolimfileExcD1Ev
_ZN7Iex_3_113EnolimfileExcD2Ev
_ZN7Iex_3_113EnolimfileExcaSEOS0_
_ZN7Iex_3_113EnolimfileExcaSERS0_
_ZN7Iex_3_113EnotjoinedExcC1EONSt3__112basic_stringIcNS1_11char_traitsIcEENS1_9allocatorIcEEEE
_ZN7Iex_3_113EnotjoinedExcC1EOS0_
_ZN7Iex_3_113EnotjoinedExcC1EPKc
_ZN7Iex_3_113EnotjoinedExcC1ERKNSt3__112basic_stringIcNS1_11char_traitsIcEENS1_9allocatorIcEEEE
_ZN7Iex_3_113EnotjoinedExcC1ERKS0_
_ZN7Iex_3_113EnotjoinedExcC1ERNSt3__118basic_stringstreamIcNS1_11char_traitsIcEENS1_9allocatorIcEEEE
_ZN7Iex_3_113EnotjoinedExcC1Ev
_ZN7Iex_3_113EnotjoinedExcC2EONSt3__112basic_stringIcNS1_11char_traitsIcEENS1_9allocatorIcEEEE
_ZN7Iex_3_113EnotjoinedExcC2EOS0_
_ZN7Iex_3_113EnotjoinedExcC2EPKc
_ZN7Iex_3_113EnotjoinedExcC2ERKNSt3__112basic_stringIcNS1_11char_traitsIcEENS1_9allocatorIcEEEE
_ZN7Iex_3_113EnotjoinedExcC2ERKS0_
_ZN7Iex_3_113EnotjoinedExcC2ERNSt3__118basic_stringstreamIcNS1_11char_traitsIcEENS1_9allocatorIcEEEE
_ZN7Iex_3_113EnotjoinedExcC2Ev
_ZN7Iex_3_113EnotjoinedExcD0Ev
_ZN7Iex_3_113EnotjoinedExcD1Ev
_ZN7Iex_3_113EnotjoinedExcD2Ev
_ZN7Iex_3_113EnotjoinedExcaSEOS0_
_ZN7Iex_3_113EnotjoinedExcaSERS0_
_ZN7Iex_3_113EopnotsuppExcC1EONSt3__112basic_stringIcNS1_11char_traitsIcEENS1_9allocatorIcEEEE
_ZN7Iex_3_113EopnotsuppExcC1EOS0_
_ZN7Iex_3_113EopnotsuppExcC1EPKc
_ZN7Iex_3_113EopnotsuppExcC1ERKNSt3__112basic_stringIcNS1_11char_traitsIcEENS1_9allocatorIcEEEE
_ZN7Iex_3_113EopnotsuppExcC1ERKS0_
_ZN7Iex_3_113EopnotsuppExcC1ERNSt3__118basic_stringstreamIcNS1_11char_traitsIcEENS1_9allocatorIcEEEE
_ZN7Iex_3_113EopnotsuppExcC1Ev
_ZN7Iex_3_113EopnotsuppExcC2EONSt3__112basic_stringIcNS1_11char_traitsIcEENS1_9allocatorIcEEEE
_ZN7Iex_3_113EopnotsuppExcC2EOS0_
_ZN7Iex_3_113EopnotsuppExcC2EPKc
_ZN7Iex_3_113EopnotsuppExcC2ERKNSt3__112basic_stringIcNS1_11char_traitsIcEENS1_9allocatorIcEEEE
_ZN7Iex_3_113EopnotsuppExcC2ERKS0_
_ZN7Iex_3_113EopnotsuppExcC2ERNSt3__118basic_stringstreamIcNS1_11char_traitsIcEENS1_9allocatorIcEEEE
_ZN7Iex_3_113EopnotsuppExcC2Ev
_ZN7Iex_3_113EopnotsuppExcD0Ev
_ZN7Iex_3_113EopnotsuppExcD1Ev
_ZN7Iex_3_113EopnotsuppExcD2Ev
_ZN7Iex_3_113EopnotsuppExcaSEOS0_
_ZN7Iex_3_113EopnotsuppExcaSERS0_
_ZN7Iex_3_113EprototypeExcC1EONSt3__112basic_stringIcNS1_11char_traitsIcEENS1_9allocatorIcEEEE
_ZN7Iex_3_113EprototypeExcC1EOS0_
_ZN7Iex_3_113EprototypeExcC1EPKc
_ZN7Iex_3_113EprototypeExcC1ERKNSt3__112basic_stringIcNS1_11char_traitsIcEENS1_9allocatorIcEEEE
_ZN7Iex_3_113EprototypeExcC1ERKS0_
_ZN7Iex_3_113EprototypeExcC1ERNSt3__118basic_stringstreamIcNS1_11char_traitsIcEENS1_9allocatorIcEEEE
_ZN7Iex_3_113EprototypeExcC1Ev
_ZN7Iex_3_113EprototypeExcC2EONSt3__112basic_stringIcNS1_11char_traitsIcEENS1_9allocatorIcEEEE
_ZN7Iex_3_113EprototypeExcC2EOS0_
_ZN7Iex_3_113EprototypeExcC2EPKc
_ZN7Iex_3_113EprototypeExcC2ERKNSt3__112basic_stringIcNS1_11char_traitsIcEENS1_9allocatorIcEEEE
_ZN7Iex_3_113EprototypeExcC2ERKS0_
_ZN7Iex_3_113EprototypeExcC2ERNSt3__118basic_stringstreamIcNS1_11char_traitsIcEENS1_9allocatorIcEEEE
_ZN7Iex_3_113EprototypeExcC2Ev
_ZN7Iex_3_113EprototypeExcD0Ev
_ZN7Iex_3_113EprototypeExcD1Ev
_ZN7Iex_3_113EprototypeExcD2Ev
_ZN7Iex_3_113EprototypeExcaSEOS0_
_ZN7Iex_3_113EprototypeExcaSERS0_
_ZN7Iex_3_113throwErrnoExcERKNSt3__112basic_stringIcNS0_11char_traitsIcEENS0_9allocatorIcEEEE
_ZN7Iex_3_113throwErrnoExcERKNSt3__112basic_stringIcNS0_11char_traitsIcEENS0_9allocatorIcEEEEi
_ZN7Iex_3_113throwErrnoExcEv
_ZN7Iex_3_114EcantextentExcC1EONSt3__112basic_stringIcNS1_11char_traitsIcEENS1_9allocatorIcEEEE
_ZN7Iex_3_114EcantextentExcC1EOS0_
_ZN7Iex_3_114EcantextentExcC1EPKc
_ZN7Iex_3_114EcantextentExcC1ERKNSt3__112basic_stringIcNS1_11char_traitsIcEENS1_9allocatorIcEEEE
_ZN7Iex_3_114EcantextentExcC1ERKS0_
_ZN7Iex_3_114EcantextentExcC1ERNSt3__118basic_stringstreamIcNS1_11char_traitsIcEENS1_9allocatorIcEEEE
_ZN7Iex_3_114EcantextentExcC1Ev
_ZN7Iex_3_114EcantextentExcC2EONSt3__112basic_stringIcNS1_11char_traitsIcEENS1_9allocatorIcEEEE
_ZN7Iex_3_114EcantextentExcC2EOS0_
_ZN7Iex_3_114EcantextentExcC2EPKc
_ZN7Iex_3_114EcantextentExcC2ERKNSt3__112basic_stringIcNS1_11char_traitsIcEENS1_9allocatorIcEEEE
_ZN7Iex_3_114EcantextentExcC2ERKS0_
_ZN7Iex_3_114EcantextentExcC2ERNSt3__118basic_stringstreamIcNS1_11char_traitsIcEENS1_9allocatorIcEEEE
_ZN7Iex_3_114EcantextentExcC2Ev
_ZN7Iex_3_114EcantextentExcD0Ev
_ZN7Iex_3_114EcantextentExcD1Ev
_ZN7Iex_3_114EcantextentExcD2Ev
_ZN7Iex_3_114EcantextentExcaSEOS0_
_ZN7Iex_3_114EcantextentExcaSERS0_
_ZN7Iex_3_114EcontrollerExcC1EONSt3__112basic_stringIcNS1_11char_traitsIcEENS1_9allocatorIcEEEE
_ZN7Iex_3_114EcontrollerExcC1EOS0_
_ZN7Iex_3_114EcontrollerExcC1EPKc
_ZN7Iex_3_114EcontrollerExcC1ERKNSt3__112basic_stringIcNS1_11char_traitsIcEENS1_9allocatorIcEEEE
_ZN7Iex_3_114EcontrollerExcC1ERKS0_
_ZN7Iex_3_114EcontrollerExcC1ERNSt3__118basic_stringstreamIcNS1_11char_traitsIcEENS1_9allocatorIcEEEE
_ZN7Iex_3_114EcontrollerExcC1Ev
_ZN7Iex_3_114EcontrollerExcC2EONSt3__112basic_stringIcNS1_11char_traitsIcEENS1_9allocatorIcEEEE
_ZN7Iex_3_114EcontrollerExcC2EOS0_
_ZN7Iex_3_114EcontrollerExcC2EPKc
_ZN7Iex_3_114EcontrollerExcC2ERKNSt3__112basic_stringIcNS1_11char_traitsIcEENS1_9allocatorIcEEEE
_ZN7Iex_3_114EcontrollerExcC2ERKS0_
_ZN7Iex_3_114EcontrollerExcC2ERNSt3__118basic_stringstreamIcNS1_11char_traitsIcEENS1_9allocatorIcEEEE
_ZN7Iex_3_114EcontrollerExcC2Ev
_ZN7Iex_3_114EcontrollerExcD0Ev
_ZN7Iex_3_114EcontrollerExcD1Ev
_ZN7Iex_3_114EcontrollerExcD2Ev
_ZN7Iex_3_114EcontrollerExcaSEOS0_
_ZN7Iex_3_114EcontrollerExcaSERS0_
_ZN7Iex_3_114EendofminorExcC1EONSt3__112basic_stringIcNS1_11char_traitsIcEENS1_9allocatorIcEEEE
_ZN7Iex_3_114EendofminorExcC1EOS0_
_ZN7Iex_3_114EendofminorExcC1EPKc
_ZN7Iex_3_114EendofminorExcC1ERKNSt3__112basic_stringIcNS1_11char_traitsIcEENS1_9allocatorIcEEEE
_ZN7Iex_3_114EendofminorExcC1ERKS0_
_ZN7Iex_3_114EendofminorExcC1ERNSt3__118basic_stringstreamIcNS1_11char_traitsIcEENS1_9allocatorIcEEEE
_ZN7Iex_3_114EendofminorExcC1Ev
_ZN7Iex_3_114EendofminorExcC2EONSt3__112basic_stringIcNS1_11char_traitsIcEENS1_9allocatorIcEEEE
_ZN7Iex_3_114EendofminorExcC2EOS0_
_ZN7Iex_3_114EendofminorExcC2EPKc
_ZN7Iex_3_114EendofminorExcC2ERKNSt3__112basic_stringIcNS1_11char_traitsIcEENS1_9allocatorIcEEEE
_ZN7Iex_3_114EendofminorExcC2ERKS0_
_ZN7Iex_3_114EendofminorExcC2ERNSt3__118basic_stringstreamIcNS1_11char_traitsIcEENS1_9allocatorIcEEEE
_ZN7Iex_3_114EendofminorExcC2Ev
_ZN7Iex_3_114EendofminorExcD0Ev
_ZN7Iex_3_114EendofminorExcD1Ev
_ZN7Iex_3_114EendofminorExcD2Ev
_ZN7Iex_3_114EendofminorExcaSEOS0_
_ZN7Iex_3_114EendofminorExcaSERS0_
_ZN7Iex_3_114EinprogressExcC1EONSt3__112basic_stringIcNS1_11char_traitsIcEENS1_9allocatorIcEEEE
_ZN7Iex_3_114EinprogressExcC1EOS0_
_ZN7Iex_3_114EinprogressExcC1EPKc
_ZN7Iex_3_114EinprogressExcC1ERKNSt3__112basic_stringIcNS1_11char_traitsIcEENS1_9allocatorIcEEEE
_ZN7Iex_3_114EinprogressExcC1ERKS0_
_ZN7Iex_3_114EinprogressExcC1ERNSt3__118basic_stringstreamIcNS1_11char_traitsIcEENS1_9allocatorIcEEEE
_ZN7Iex_3_114EinprogressExcC1Ev
_ZN7Iex_3_114EinprogressExcC2EONSt3__112basic_stringIcNS1_11char_traitsIcEENS1_9allocatorIcEEEE
_ZN7Iex_3_114EinprogressExcC2EOS0_
_ZN7Iex_3_114EinprogressExcC2EPKc
_ZN7Iex_3_114EinprogressExcC2ERKNSt3__112basic_stringIcNS1_11char_traitsIcEENS1_9allocatorIcEEEE
_ZN7Iex_3_114EinprogressExcC2ERKS0_
_ZN7Iex_3_114EinprogressExcC2ERNSt3__118basic_stringstreamIcNS1_11char_traitsIcEENS1_9allocatorIcEEEE
_ZN7Iex_3_114EinprogressExcC2Ev
_ZN7Iex_3_114EinprogressExcD0Ev
_ZN7Iex_3_114EinprogressExcD1Ev
_ZN7Iex_3_114EinprogressExcD2Ev
_ZN7Iex_3_114EinprogressExcaSEOS0_
_ZN7Iex_3_114EinprogressExcaSERS0_
_ZN7Iex_3_114EinvalstateExcC1EONSt3__112basic_stringIcNS1_11char_traitsIcEENS1_9allocatorIcEEEE
_ZN7Iex_3_114EinvalstateExcC1EOS0_
_ZN7Iex_3_114EinvalstateExcC1EPKc
_ZN7Iex_3_114EinvalstateExcC1ERKNSt3__112basic_stringIcNS1_11char_traitsIcEENS1_9allocatorIcEEEE
_ZN7Iex_3_114EinvalstateExcC1ERKS0_
_ZN7Iex_3_114EinvalstateExcC1ERNSt3__118basic_stringstreamIcNS1_11char_traitsIcEENS1_9allocatorIcEEEE
_ZN7Iex_3_114EinvalstateExcC1Ev
_ZN7Iex_3_114EinvalstateExcC2EONSt3__112basic_stringIcNS1_11char_traitsIcEENS1_9allocatorIcEEEE
_ZN7Iex_3_114EinvalstateExcC2EOS0_
_ZN7Iex_3_114EinvalstateExcC2EPKc
_ZN7Iex_3_114EinvalstateExcC2ERKNSt3__112basic_stringIcNS1_11char_traitsIcEENS1_9allocatorIcEEEE
_ZN7Iex_3_114EinvalstateExcC2ERKS0_
_ZN7Iex_3_114EinvalstateExcC2ERNSt3__118basic_stringstreamIcNS1_11char_traitsIcEENS1_9allocatorIcEEEE
_ZN7Iex_3_114EinvalstateExcC2Ev
_ZN7Iex_3_114EinvalstateExcD0Ev
_ZN7Iex_3_114EinvalstateExcD1Ev
_ZN7Iex_3_114EinvalstateExcD2Ev
_ZN7Iex_3_114EinvalstateExcaSEOS0_
_ZN7Iex_3_114EinvalstateExcaSERS0_
_ZN7Iex_3_114EnetunreachExcC1EONSt3__112basic_stringIcNS1_11char_traitsIcEENS1_9allocatorIcEEEE
_ZN7Iex_3_114EnetunreachExcC1EOS0_
_ZN7Iex_3_114EnetunreachExcC1EPKc
_ZN7Iex_3_114EnetunreachExcC1ERKNSt3__112basic_stringIcNS1_11char_traitsIcEENS1_9allocatorIcEEEE
_ZN7Iex_3_114EnetunreachExcC1ERKS0_
_ZN7Iex_3_114EnetunreachExcC1ERNSt3__118basic_stringstreamIcNS1_11char_traitsIcEENS1_9allocatorIcEEEE
_ZN7Iex_3_114EnetunreachExcC1Ev
_ZN7Iex_3_114EnetunreachExcC2EONSt3__112basic_stringIcNS1_11char_traitsIcEENS1_9allocatorIcEEEE
_ZN7Iex_3_114EnetunreachExcC2EOS0_
_ZN7Iex_3_114EnetunreachExcC2EPKc
_ZN7Iex_3_114EnetunreachExcC2ERKNSt3__112basic_stringIcNS1_11char_traitsIcEENS1_9allocatorIcEEEE
_ZN7Iex_3_114EnetunreachExcC2ERKS0_
_ZN7Iex_3_114EnetunreachExcC2ERNSt3__118basic_stringstreamIcNS1_11char_traitsIcEENS1_9allocatorIcEEEE
_ZN7Iex_3_114EnetunreachExcC2Ev
_ZN7Iex_3_114EnetunreachExcD0Ev
_ZN7Iex_3_114EnetunreachExcD1Ev
_ZN7Iex_3_114EnetunreachExcD2Ev
_ZN7Iex_3_114EnetunreachExcaSEOS0_
_ZN7Iex_3_114EnetunreachExcaSERS0_
_ZN7Iex_3_114EnoprotooptExcC1EONSt3__112basic_stringIcNS1_11char_traitsIcEENS1_9allocatorIcEEEE
_ZN7Iex_3_114EnoprotooptExcC1EOS0_
_ZN7Iex_3_114EnoprotooptExcC1EPKc
_ZN7Iex_3_114EnoprotooptExcC1ERKNSt3__112basic_stringIcNS1_11char_traitsIcEENS1_9allocatorIcEEEE
_ZN7Iex_3_114EnoprotooptExcC1ERKS0_
_ZN7Iex_3_114EnoprotooptExcC1ERNSt3__118basic_stringstreamIcNS1_11char_traitsIcEENS1_9allocatorIcEEEE
_ZN7Iex_3_114EnoprotooptExcC1Ev
_ZN7Iex_3_114EnoprotooptExcC2EONSt3__112basic_stringIcNS1_11char_traitsIcEENS1_9allocatorIcEEEE
_ZN7Iex_3_114EnoprotooptExcC2EOS0_
_ZN7Iex_3_114EnoprotooptExcC2EPKc
_ZN7Iex_3_114EnoprotooptExcC2ERKNSt3__112basic_stringIcNS1_11char_traitsIcEENS1_9allocatorIcEEEE
_ZN7Iex_3_114EnoprotooptExcC2ERKS0_
_ZN7Iex_3_114EnoprotooptExcC2ERNSt3__118basic_stringstreamIcNS1_11char_traitsIcEENS1_9allocatorIcEEEE
_ZN7Iex_3_114EnoprotooptExcC2Ev
_ZN7Iex_3_114EnoprotooptExcD0Ev
_ZN7Iex_3_114EnoprotooptExcD1Ev
_ZN7Iex_3_114EnoprotooptExcD2Ev
_ZN7Iex_3_114EnoprotooptExcaSEOS0_
_ZN7Iex_3_114EnoprotooptExcaSERS0_
_ZN7Iex_3_114EnotstoppedExcC1EONSt3__112basic_stringIcNS1_11char_traitsIcEENS1_9allocatorIcEEEE
_ZN7Iex_3_114EnotstoppedExcC1EOS0_
_ZN7Iex_3_114EnotstoppedExcC1EPKc
_ZN7Iex_3_114EnotstoppedExcC1ERKNSt3__112basic_stringIcNS1_11char_traitsIcEENS1_9allocatorIcEEEE
_ZN7Iex_3_114EnotstoppedExcC1ERKS0_
_ZN7Iex_3_114EnotstoppedExcC1ERNSt3__118basic_stringstreamIcNS1_11char_traitsIcEENS1_9allocatorIcEEEE
_ZN7Iex_3_114EnotstoppedExcC1Ev
_ZN7Iex_3_114EnotstoppedExcC2EONSt3__112basic_stringIcNS1_11char_traitsIcEENS1_9allocatorIcEEEE
_ZN7Iex_3_114EnotstoppedExcC2EOS0_
_ZN7Iex_3_114EnotstoppedExcC2EPKc
_ZN7Iex_3_114EnotstoppedExcC2ERKNSt3__112basic_stringIcNS1_11char_traitsIcEENS1_9allocatorIcEEEE
_ZN7Iex_3_114EnotstoppedExcC2ERKS0_
_ZN7Iex_3_114EnotstoppedExcC2ERNSt3__118basic_stringstreamIcNS1_11char_traitsIcEENS1_9allocatorIcEEEE
_ZN7Iex_3_114EnotstoppedExcC2Ev
_ZN7Iex_3_114EnotstoppedExcD0Ev
_ZN7Iex_3_114EnotstoppedExcD1Ev
_ZN7Iex_3_114EnotstoppedExcD2Ev
_ZN7Iex_3_114EnotstoppedExcaSEOS0_
_ZN7Iex_3_114EnotstoppedExcaSERS0_
_ZN7Iex_3_114InvalidFpOpExcC1EONSt3__112basic_stringIcNS1_11char_traitsIcEENS1_9allocatorIcEEEE
_ZN7Iex_3_114InvalidFpOpExcC1EOS0_
_ZN7Iex_3_114InvalidFpOpExcC1EPKc
_ZN7Iex_3_114InvalidFpOpExcC1ERKNSt3__112basic_stringIcNS1_11char_traitsIcEENS1_9allocatorIcEEEE
_ZN7Iex_3_114InvalidFpOpExcC1ERKS0_
_ZN7Iex_3_114InvalidFpOpExcC1ERNSt3__118basic_stringstreamIcNS1_11char_traitsIcEENS1_9allocatorIcEEEE
_ZN7Iex_3_114InvalidFpOpExcC1Ev
_ZN7Iex_3_114InvalidFpOpExcC2EONSt3__112basic_stringIcNS1_11char_traitsIcEENS1_9allocatorIcEEEE
_ZN7Iex_3_114InvalidFpOpExcC2EOS0_
_ZN7Iex_3_114InvalidFpOpExcC2EPKc
_ZN7Iex_3_114InvalidFpOpExcC2ERKNSt3__112basic_stringIcNS1_11char_traitsIcEENS1_9allocatorIcEEEE
_ZN7Iex_3_114InvalidFpOpExcC2ERKS0_
_ZN7Iex_3_114InvalidFpOpExcC2ERNSt3__118basic_stringstreamIcNS1_11char_traitsIcEENS1_9allocatorIcEEEE
_ZN7Iex_3_114InvalidFpOpExcC2Ev
_ZN7Iex_3_114InvalidFpOpExcD0Ev
_ZN7Iex_3_114InvalidFpOpExcD1Ev
_ZN7Iex_3_114InvalidFpOpExcD2Ev
_ZN7Iex_3_114InvalidFpOpExcaSEOS0_
_ZN7Iex_3_114InvalidFpOpExcaSERS0_
_ZN7Iex_3_114setStackTracerEPFNSt3__112basic_stringIcNS0_11char_traitsIcEENS0_9allocatorIcEEEEvE
_ZN7Iex_3_115EafnosupportExcC1EONSt3__112basic_stringIcNS1_11char_traitsIcEENS1_9allocatorIcEEEE
_ZN7Iex_3_115EafnosupportExcC1EOS0_
_ZN7Iex_3_115EafnosupportExcC1EPKc
_ZN7Iex_3_115EafnosupportExcC1ERKNSt3__112basic_stringIcNS1_11char_traitsIcEENS1_9allocatorIcEEEE
_ZN7Iex_3_115EafnosupportExcC1ERKS0_
_ZN7Iex_3_115EafnosupportExcC1ERNSt3__118basic_stringstreamIcNS1_11char_traitsIcEENS1_9allocatorIcEEEE
_ZN7Iex_3_115EafnosupportExcC1Ev
_ZN7Iex_3_115EafnosupportExcC2EONSt3__112basic_stringIcNS1_11char_traitsIcEENS1_9allocatorIcEEEE
_ZN7Iex_3_115EafnosupportExcC2EOS0_
_ZN7Iex_3_115EafnosupportExcC2EPKc
_ZN7Iex_3_115EafnosupportExcC2ERKNSt3__112basic_stringIcNS1_11char_traitsIcEENS1_9allocatorIcEEEE
_ZN7Iex_3_115EafnosupportExcC2ERKS0_
_ZN7Iex_3_115EafnosupportExcC2ERNSt3__118basic_stringstreamIcNS1_11char_traitsIcEENS1_9allocatorIcEEEE
_ZN7Iex_3_115EafnosupportExcC2Ev
_ZN7Iex_3_115EafnosupportExcD0Ev
_ZN7Iex_3_115EafnosupportExcD1Ev
_ZN7Iex_3_115EafnosupportExcD2Ev
_ZN7Iex_3_115EafnosupportExcaSEOS0_
_ZN7Iex_3_115EafnosupportExcaSERS0_
_ZN7Iex_3_115EconnabortedExcC1EONSt3__112basic_stringIcNS1_11char_traitsIcEENS1_9allocatorIcEEEE
_ZN7Iex_3_115EconnabortedExcC1EOS0_
_ZN7Iex_3_115EconnabortedExcC1EPKc
_ZN7Iex_3_115EconnabortedExcC1ERKNSt3__112basic_stringIcNS1_11char_traitsIcEENS1_9allocatorIcEEEE
_ZN7Iex_3_115EconnabortedExcC1ERKS0_
_ZN7Iex_3_115EconnabortedExcC1ERNSt3__118basic_stringstreamIcNS1_11char_traitsIcEENS1_9allocatorIcEEEE
_ZN7Iex_3_115EconnabortedExcC1Ev
_ZN7Iex_3_115EconnabortedExcC2EONSt3__112basic_stringIcNS1_11char_traitsIcEENS1_9allocatorIcEEEE
_ZN7Iex_3_115EconnabortedExcC2EOS0_
_ZN7Iex_3_115EconnabortedExcC2EPKc
_ZN7Iex_3_115EconnabortedExcC2ERKNSt3__112basic_stringIcNS1_11char_traitsIcEENS1_9allocatorIcEEEE
_ZN7Iex_3_115EconnabortedExcC2ERKS0_
_ZN7Iex_3_115EconnabortedExcC2ERNSt3__118basic_stringstreamIcNS1_11char_traitsIcEENS1_9allocatorIcEEEE
_ZN7Iex_3_115EconnabortedExcC2Ev
_ZN7Iex_3_115EconnabortedExcD0Ev
_ZN7Iex_3_115EconnabortedExcD1Ev
_ZN7Iex_3_115EconnabortedExcD2Ev
_ZN7Iex_3_115EconnabortedExcaSEOS0_
_ZN7Iex_3_115EconnabortedExcaSERS0_
_ZN7Iex_3_115EconnrefusedExcC1EONSt3__112basic_stringIcNS1_11char_traitsIcEENS1_9allocatorIcEEEE
_ZN7Iex_3_115EconnrefusedExcC1EOS0_
_ZN7Iex_3_115EconnrefusedExcC1EPKc
_ZN7Iex_3_115EconnrefusedExcC1ERKNSt3__112basic_stringIcNS1_11char_traitsIcEENS1_9allocatorIcEEEE
_ZN7Iex_3_115EconnrefusedExcC1ERKS0_
_ZN7Iex_3_115EconnrefusedExcC1ERNSt3__118basic_stringstreamIcNS1_11char_traitsIcEENS1_9allocatorIcEEEE
_ZN7Iex_3_115EconnrefusedExcC1Ev
_ZN7Iex_3_115EconnrefusedExcC2EONSt3__112basic_stringIcNS1_11char_traitsIcEENS1_9allocatorIcEEEE
_ZN7Iex_3_115EconnrefusedExcC2EOS0_
_ZN7Iex_3_115EconnrefusedExcC2EPKc
_ZN7Iex_3_115EconnrefusedExcC2ERKNSt3__112basic_stringIcNS1_11char_traitsIcEENS1_9allocatorIcEEEE
_ZN7Iex_3_115EconnrefusedExcC2ERKS0_
_ZN7Iex_3_115EconnrefusedExcC2ERNSt3__118basic_stringstreamIcNS1_11char_traitsIcEENS1_9allocatorIcEEEE
_ZN7Iex_3_115EconnrefusedExcC2Ev
_ZN7Iex_3_115EconnrefusedExcD0Ev
_ZN7Iex_3_115EconnrefusedExcD1Ev
_ZN7Iex_3_115EconnrefusedExcD2Ev
_ZN7Iex_3_115EconnrefusedExcaSEOS0_
_ZN7Iex_3_115EconnrefusedExcaSERS0_
_ZN7Iex_3_115EdestaddrreqExcC1EONSt3__112basic_stringIcNS1_11char_traitsIcEENS1_9allocatorIcEEEE
_ZN7Iex_3_115EdestaddrreqExcC1EOS0_
_ZN7Iex_3_115EdestaddrreqExcC1EPKc
_ZN7Iex_3_115EdestaddrreqExcC1ERKNSt3__112basic_stringIcNS1_11char_traitsIcEENS1_9allocatorIcEEEE
_ZN7Iex_3_115EdestaddrreqExcC1ERKS0_
_ZN7Iex_3_115EdestaddrreqExcC1ERNSt3__118basic_stringstreamIcNS1_11char_traitsIcEENS1_9allocatorIcEEEE
_ZN7Iex_3_115EdestaddrreqExcC1Ev
_ZN7Iex_3_115EdestaddrreqExcC2EONSt3__112basic_stringIcNS1_11char_traitsIcEENS1_9allocatorIcEEEE
_ZN7Iex_3_115EdestaddrreqExcC2EOS0_
_ZN7Iex_3_115EdestaddrreqExcC2EPKc
_ZN7Iex_3_115EdestaddrreqExcC2ERKNSt3__112basic_stringIcNS1_11char_traitsIcEENS1_9allocatorIcEEEE
_ZN7Iex_3_115EdestaddrreqExcC2ERKS0_
_ZN7Iex_3_115EdestaddrreqExcC2ERNSt3__118basic_stringstreamIcNS1_11char_traitsIcEENS1_9allocatorIcEEEE
_ZN7Iex_3_115EdestaddrreqExcC2Ev
_ZN7Iex_3_115EdestaddrreqExcD0Ev
_ZN7Iex_3_115EdestaddrreqExcD1Ev
_ZN7Iex_3_115EdestaddrreqExcD2Ev
_ZN7Iex_3_115EdestaddrreqExcaSEOS0_
_ZN7Iex_3_115EdestaddrreqExcaSERS0_
_ZN7Iex_3_115EhostunreachExcC1EONSt3__112basic_stringIcNS1_11char_traitsIcEENS1_9allocatorIcEEEE
_ZN7Iex_3_115EhostunreachExcC1EOS0_
_ZN7Iex_3_115EhostunreachExcC1EPKc
_ZN7Iex_3_115EhostunreachExcC1ERKNSt3__112basic_stringIcNS1_11char_traitsIcEENS1_9allocatorIcEEEE
_ZN7Iex_3_115EhostunreachExcC1ERKS0_
_ZN7Iex_3_115EhostunreachExcC1ERNSt3__118basic_stringstreamIcNS1_11char_traitsIcEENS1_9allocatorIcEEEE
_ZN7Iex_3_115EhostunreachExcC1Ev
_ZN7Iex_3_115EhostunreachExcC2EONSt3__112basic_stringIcNS1_11char_traitsIcEENS1_9allocatorIcEEEE
_ZN7Iex_3_115EhostunreachExcC2EOS0_
_ZN7Iex_3_115EhostunreachExcC2EPKc
_ZN7Iex_3_115EhostunreachExcC2ERKNSt3__112basic_stringIcNS1_11char_traitsIcEENS1_9allocatorIcEEEE
_ZN7Iex_3_115EhostunreachExcC2ERKS0_
_ZN7Iex_3_115EhostunreachExcC2ERNSt3__118basic_stringstreamIcNS1_11char_traitsIcEENS1_9allocatorIcEEEE
_ZN7Iex_3_115EhostunreachExcC2Ev
_ZN7Iex_3_115EhostunreachExcD0Ev
_ZN7Iex_3_115EhostunreachExcD1Ev
_ZN7Iex_3_115EhostunreachExcD2Ev
_ZN7Iex_3_115EhostunreachExcaSEOS0_
_ZN7Iex_3_115EhostunreachExcaSERS0_
_ZN7Iex_3_115EnametoolongExcC1EONSt3__112basic_stringIcNS1_11char_traitsIcEENS1_9allocatorIcEEEE
_ZN7Iex_3_115EnametoolongExcC1EOS0_
_ZN7Iex_3_115EnametoolongExcC1EPKc
_ZN7Iex_3_115EnametoolongExcC1ERKNSt3__112basic_stringIcNS1_11char_traitsIcEENS1_9allocatorIcEEEE
_ZN7Iex_3_115EnametoolongExcC1ERKS0_
_ZN7Iex_3_115EnametoolongExcC1ERNSt3__118basic_stringstreamIcNS1_11char_traitsIcEENS1_9allocatorIcEEEE
_ZN7Iex_3_115EnametoolongExcC1Ev
_ZN7Iex_3_115EnametoolongExcC2EONSt3__112basic_stringIcNS1_11char_traitsIcEENS1_9allocatorIcEEEE
_ZN7Iex_3_115EnametoolongExcC2EOS0_
_ZN7Iex_3_115EnametoolongExcC2EPKc
_ZN7Iex_3_115EnametoolongExcC2ERKNSt3__112basic_stringIcNS1_11char_traitsIcEENS1_9allocatorIcEEEE
_ZN7Iex_3_115EnametoolongExcC2ERKS0_
_ZN7Iex_3_115EnametoolongExcC2ERNSt3__118basic_stringstreamIcNS1_11char_traitsIcEENS1_9allocatorIcEEEE
_ZN7Iex_3_115EnametoolongExcC2Ev
_ZN7Iex_3_115EnametoolongExcD0Ev
_ZN7Iex_3_115EnametoolongExcD1Ev
_ZN7Iex_3_115EnametoolongExcD2Ev
_ZN7Iex_3_115EnametoolongExcaSEOS0_
_ZN7Iex_3_115EnametoolongExcaSERS0_
_ZN7Iex_3_115EnointrgroupExcC1EONSt3__112basic_stringIcNS1_11char_traitsIcEENS1_9allocatorIcEEEE
_ZN7Iex_3_115EnointrgroupExcC1EOS0_
_ZN7Iex_3_115EnointrgroupExcC1EPKc
_ZN7Iex_3_115EnointrgroupExcC1ERKNSt3__112basic_stringIcNS1_11char_traitsIcEENS1_9allocatorIcEEEE
_ZN7Iex_3_115EnointrgroupExcC1ERKS0_
_ZN7Iex_3_115EnointrgroupExcC1ERNSt3__118basic_stringstreamIcNS1_11char_traitsIcEENS1_9allocatorIcEEEE
_ZN7Iex_3_115EnointrgroupExcC1Ev
_ZN7Iex_3_115EnointrgroupExcC2EONSt3__112basic_stringIcNS1_11char_traitsIcEENS1_9allocatorIcEEEE
_ZN7Iex_3_115EnointrgroupExcC2EOS0_
_ZN7Iex_3_115EnointrgroupExcC2EPKc
_ZN7Iex_3_115EnointrgroupExcC2ERKNSt3__112basic_stringIcNS1_11char_traitsIcEENS1_9allocatorIcEEEE
_ZN7Iex_3_115EnointrgroupExcC2ERKS0_
_ZN7Iex_3_115EnointrgroupExcC2ERNSt3__118basic_stringstreamIcNS1_11char_traitsIcEENS1_9allocatorIcEEEE
_ZN7Iex_3_115EnointrgroupExcC2Ev
_ZN7Iex_3_115EnointrgroupExcD0Ev
_ZN7Iex_3_115EnointrgroupExcD1Ev
_ZN7Iex_3_115EnointrgroupExcD2Ev
_ZN7Iex_3_115EnointrgroupExcaSEOS0_
_ZN7Iex_3_115EnointrgroupExcaSERS0_
_ZN7Iex_3_115EnotenqueuedExcC1EONSt3__112basic_stringIcNS1_11char_traitsIcEENS1_9allocatorIcEEEE
_ZN7Iex_3_115EnotenqueuedExcC1EOS0_
_ZN7Iex_3_115EnotenqueuedExcC1EPKc
_ZN7Iex_3_115EnotenqueuedExcC1ERKNSt3__112basic_stringIcNS1_11char_traitsIcEENS1_9allocatorIcEEEE
_ZN7Iex_3_115EnotenqueuedExcC1ERKS0_
_ZN7Iex_3_115EnotenqueuedExcC1ERNSt3__118basic_stringstreamIcNS1_11char_traitsIcEENS1_9allocatorIcEEEE
_ZN7Iex_3_115EnotenqueuedExcC1Ev
_ZN7Iex_3_115EnotenqueuedExcC2EONSt3__112basic_stringIcNS1_11char_traitsIcEENS1_9allocatorIcEEEE
_ZN7Iex_3_115EnotenqueuedExcC2EOS0_
_ZN7Iex_3_115EnotenqueuedExcC2EPKc
_ZN7Iex_3_115EnotenqueuedExcC2ERKNSt3__112basic_stringIcNS1_11char_traitsIcEENS1_9allocatorIcEEEE
_ZN7Iex_3_115EnotenqueuedExcC2ERKS0_
_ZN7Iex_3_115EnotenqueuedExcC2ERNSt3__118basic_stringstreamIcNS1_11char_traitsIcEENS1_9allocatorIcEEEE
_ZN7Iex_3_115EnotenqueuedExcC2Ev
_ZN7Iex_3_115EnotenqueuedExcD0Ev
_ZN7Iex_3_115EnotenqueuedExcD1Ev
_ZN7Iex_3_115EnotenqueuedExcD2Ev
_ZN7Iex_3_115EnotenqueuedExcaSEOS0_
_ZN7Iex_3_115EnotenqueuedExcaSERS0_
_ZN7Iex_3_115EpfnosupportExcC1EONSt3__112basic_stringIcNS1_11char_traitsIcEENS1_9allocatorIcEEEE
_ZN7Iex_3_115EpfnosupportExcC1EOS0_
_ZN7Iex_3_115EpfnosupportExcC1EPKc
_ZN7Iex_3_115EpfnosupportExcC1ERKNSt3__112basic_stringIcNS1_11char_traitsIcEENS1_9allocatorIcEEEE
_ZN7Iex_3_115EpfnosupportExcC1ERKS0_
_ZN7Iex_3_115EpfnosupportExcC1ERNSt3__118basic_stringstreamIcNS1_11char_traitsIcEENS1_9allocatorIcEEEE
_ZN7Iex_3_115EpfnosupportExcC1Ev
_ZN7Iex_3_115EpfnosupportExcC2EONSt3__112basic_stringIcNS1_11char_traitsIcEENS1_9allocatorIcEEEE
_ZN7Iex_3_115EpfnosupportExcC2EOS0_
_ZN7Iex_3_115EpfnosupportExcC2EPKc
_ZN7Iex_3_115EpfnosupportExcC2ERKNSt3__112basic_stringIcNS1_11char_traitsIcEENS1_9allocatorIcEEEE
_ZN7Iex_3_115EpfnosupportExcC2ERKS0_
_ZN7Iex_3_115EpfnosupportExcC2ERNSt3__118basic_stringstreamIcNS1_11char_traitsIcEENS1_9allocatorIcEEEE
_ZN7Iex_3_115EpfnosupportExcC2Ev
_ZN7Iex_3_115EpfnosupportExcD0Ev
_ZN7Iex_3_115EpfnosupportExcD1Ev
_ZN7Iex_3_115EpfnosupportExcD2Ev
_ZN7Iex_3_115EpfnosupportExcaSEOS0_
_ZN7Iex_3_115EpfnosupportExcaSERS0_
_ZN7Iex_3_115EtoomanyrefsExcC1EONSt3__112basic_stringIcNS1_11char_traitsIcEENS1_9allocatorIcEEEE
_ZN7Iex_3_115EtoomanyrefsExcC1EOS0_
_ZN7Iex_3_115EtoomanyrefsExcC1EPKc
_ZN7Iex_3_115EtoomanyrefsExcC1ERKNSt3__112basic_stringIcNS1_11char_traitsIcEENS1_9allocatorIcEEEE
_ZN7Iex_3_115EtoomanyrefsExcC1ERKS0_
_ZN7Iex_3_115EtoomanyrefsExcC1ERNSt3__118basic_stringstreamIcNS1_11char_traitsIcEENS1_9allocatorIcEEEE
_ZN7Iex_3_115EtoomanyrefsExcC1Ev
_ZN7Iex_3_115EtoomanyrefsExcC2EONSt3__112basic_stringIcNS1_11char_traitsIcEENS1_9allocatorIcEEEE
_ZN7Iex_3_115EtoomanyrefsExcC2EOS0_
_ZN7Iex_3_115EtoomanyrefsExcC2EPKc
_ZN7Iex_3_115EtoomanyrefsExcC2ERKNSt3__112basic_stringIcNS1_11char_traitsIcEENS1_9allocatorIcEEEE
_ZN7Iex_3_115EtoomanyrefsExcC2ERKS0_
_ZN7Iex_3_115EtoomanyrefsExcC2ERNSt3__118basic_stringstreamIcNS1_11char_traitsIcEENS1_9allocatorIcEEEE
_ZN7Iex_3_115EtoomanyrefsExcC2Ev
_ZN7Iex_3_115EtoomanyrefsExcD0Ev
_ZN7Iex_3_115EtoomanyrefsExcD1Ev
_ZN7Iex_3_115EtoomanyrefsExcD2Ev
_ZN7Iex_3_115EtoomanyrefsExcaSEOS0_
_ZN7Iex_3_115EtoomanyrefsExcaSERS0_
_ZN7Iex_3_116EaddrnotavailExcC1EONSt3__112basic_stringIcNS1_11char_traitsIcEENS1_9allocatorIcEEEE
_ZN7Iex_3_116EaddrnotavailExcC1EOS0_
_ZN7Iex_3_116EaddrnotavailExcC1EPKc
_ZN7Iex_3_116EaddrnotavailExcC1ERKNSt3__112basic_stringIcNS1_11char_traitsIcEENS1_9allocatorIcEEEE
_ZN7Iex_3_116EaddrnotavailExcC1ERKS0_
_ZN7Iex_3_116EaddrnotavailExcC1ERNSt3__118basic_stringstreamIcNS1_11char_traitsIcEENS1_9allocatorIcEEEE
_ZN7Iex_3_116EaddrnotavailExcC1Ev
_ZN7Iex_3_116EaddrnotavailExcC2EONSt3__112basic_stringIcNS1_11char_traitsIcEENS1_9allocatorIcEEEE
_ZN7Iex_3_116EaddrnotavailExcC2EOS0_
_ZN7Iex_3_116EaddrnotavailExcC2EPKc
_ZN7Iex_3_116EaddrnotavailExcC2ERKNSt3__112basic_stringIcNS1_11char_traitsIcEENS1_9allocatorIcEEEE
_ZN7Iex_3_116EaddrnotavailExcC2ERKS0_
_ZN7Iex_3_116EaddrnotavailExcC2ERNSt3__118basic_stringstreamIcNS1_11char_traitsIcEENS1_9allocatorIcEEEE
_ZN7Iex_3_116EaddrnotavailExcC2Ev
_ZN7Iex_3_116EaddrnotavailExcD0Ev
_ZN7Iex_3_116EaddrnotavailExcD1Ev
_ZN7Iex_3_116EaddrnotavailExcD2Ev
_ZN7Iex_3_116EaddrnotavailExcaSEOS0_
_ZN7Iex_3_116EaddrnotavailExcaSERS0_
_ZN7Iex_3_116EdircorruptedExcC1EONSt3__112basic_stringIcNS1_11char_traitsIcEENS1_9allocatorIcEEEE
_ZN7Iex_3_116EdircorruptedExcC1EOS0_
_ZN7Iex_3_116EdircorruptedExcC1EPKc
_ZN7Iex_3_116EdircorruptedExcC1ERKNSt3__112basic_stringIcNS1_11char_traitsIcEENS1_9allocatorIcEEEE
_ZN7Iex_3_116EdircorruptedExcC1ERKS0_
_ZN7Iex_3_116EdircorruptedExcC1ERNSt3__118basic_stringstreamIcNS1_11char_traitsIcEENS1_9allocatorIcEEEE
_ZN7Iex_3_116EdircorruptedExcC1Ev
_ZN7Iex_3_116EdircorruptedExcC2EONSt3__112basic_stringIcNS1_11char_traitsIcEENS1_9allocatorIcEEEE
_ZN7Iex_3_116EdircorruptedExcC2EOS0_
_ZN7Iex_3_116EdircorruptedExcC2EPKc
_ZN7Iex_3_116EdircorruptedExcC2ERKNSt3__112basic_stringIcNS1_11char_traitsIcEENS1_9allocatorIcEEEE
_ZN7Iex_3_116EdircorruptedExcC2ERKS0_
_ZN7Iex_3_116EdircorruptedExcC2ERNSt3__118basic_stringstreamIcNS1_11char_traitsIcEENS1_9allocatorIcEEEE
_ZN7Iex_3_116EdircorruptedExcC2Ev
_ZN7Iex_3_116EdircorruptedExcD0Ev
_ZN7Iex_3_116EdircorruptedExcD1Ev
_ZN7Iex_3_116EdircorruptedExcD2Ev
_ZN7Iex_3_116EdircorruptedExcaSEOS0_
_ZN7Iex_3_116EdircorruptedExcaSERS0_
_ZN7Iex_3_117EnotcontrollerExcC1EONSt3__112basic_stringIcNS1_11char_traitsIcEENS1_9allocatorIcEEEE
_ZN7Iex_3_117EnotcontrollerExcC1EOS0_
_ZN7Iex_3_117EnotcontrollerExcC1EPKc
_ZN7Iex_3_117EnotcontrollerExcC1ERKNSt3__112basic_stringIcNS1_11char_traitsIcEENS1_9allocatorIcEEEE
_ZN7Iex_3_117EnotcontrollerExcC1ERKS0_
_ZN7Iex_3_117EnotcontrollerExcC1ERNSt3__118basic_stringstreamIcNS1_11char_traitsIcEENS1_9allocatorIcEEEE
_ZN7Iex_3_117EnotcontrollerExcC1Ev
_ZN7Iex_3_117EnotcontrollerExcC2EONSt3__112basic_stringIcNS1_11char_traitsIcEENS1_9allocatorIcEEEE
_ZN7Iex_3_117EnotcontrollerExcC2EOS0_
_ZN7Iex_3_117EnotcontrollerExcC2EPKc
_ZN7Iex_3_117EnotcontrollerExcC2ERKNSt3__112basic_stringIcNS1_11char_traitsIcEENS1_9allocatorIcEEEE
_ZN7Iex_3_117EnotcontrollerExcC2ERKS0_
_ZN7Iex_3_117EnotcontrollerExcC2ERNSt3__118basic_stringstreamIcNS1_11char_traitsIcEENS1_9allocatorIcEEEE
_ZN7Iex_3_117EnotcontrollerExcC2Ev
_ZN7Iex_3_117EnotcontrollerExcD0Ev
_ZN7Iex_3_117EnotcontrollerExcD1Ev
_ZN7Iex_3_117EnotcontrollerExcD2Ev
_ZN7Iex_3_117EnotcontrollerExcaSEOS0_
_ZN7Iex_3_117EnotcontrollerExcaSERS0_
_ZN7Iex_3_118EprotonosupportExcC1EONSt3__112basic_stringIcNS1_11char_traitsIcEENS1_9allocatorIcEEEE
_ZN7Iex_3_118EprotonosupportExcC1EOS0_
_ZN7Iex_3_118EprotonosupportExcC1EPKc
_ZN7Iex_3_118EprotonosupportExcC1ERKNSt3__112basic_stringIcNS1_11char_traitsIcEENS1_9allocatorIcEEEE
_ZN7Iex_3_118EprotonosupportExcC1ERKS0_
_ZN7Iex_3_118EprotonosupportExcC1ERNSt3__118basic_stringstreamIcNS1_11char_traitsIcEENS1_9allocatorIcEEEE
_ZN7Iex_3_118EprotonosupportExcC1Ev
_ZN7Iex_3_118EprotonosupportExcC2EONSt3__112basic_stringIcNS1_11char_traitsIcEENS1_9allocatorIcEEEE
_ZN7Iex_3_118EprotonosupportExcC2EOS0_
_ZN7Iex_3_118EprotonosupportExcC2EPKc
_ZN7Iex_3_118EprotonosupportExcC2ERKNSt3__112basic_stringIcNS1_11char_traitsIcEENS1_9allocatorIcEEEE
_ZN7Iex_3_118EprotonosupportExcC2ERKS0_
_ZN7Iex_3_118EprotonosupportExcC2ERNSt3__118basic_stringstreamIcNS1_11char_traitsIcEENS1_9allocatorIcEEEE
_ZN7Iex_3_118EprotonosupportExcC2Ev
_ZN7Iex_3_118EprotonosupportExcD0Ev
_ZN7Iex_3_118EprotonosupportExcD1Ev
_ZN7Iex_3_118EprotonosupportExcD2Ev
_ZN7Iex_3_118EprotonosupportExcaSEOS0_
_ZN7Iex_3_118EprotonosupportExcaSERS0_
_ZN7Iex_3_118EsocktnosupportExcC1EONSt3__112basic_stringIcNS1_11char_traitsIcEENS1_9allocatorIcEEEE
_ZN7Iex_3_118EsocktnosupportExcC1EOS0_
_ZN7Iex_3_118EsocktnosupportExcC1EPKc
_ZN7Iex_3_118EsocktnosupportExcC1ERKNSt3__112basic_stringIcNS1_11char_traitsIcEENS1_9allocatorIcEEEE
_ZN7Iex_3_118EsocktnosupportExcC1ERKS0_
_ZN7Iex_3_118EsocktnosupportExcC1ERNSt3__118basic_stringstreamIcNS1_11char_traitsIcEENS1_9allocatorIcEEEE
_ZN7Iex_3_118EsocktnosupportExcC1Ev
_ZN7Iex_3_118EsocktnosupportExcC2EONSt3__112basic_stringIcNS1_11char_traitsIcEENS1_9allocatorIcEEEE
_ZN7Iex_3_118EsocktnosupportExcC2EOS0_
_ZN7Iex_3_118EsocktnosupportExcC2EPKc
_ZN7Iex_3_118EsocktnosupportExcC2ERKNSt3__112basic_stringIcNS1_11char_traitsIcEENS1_9allocatorIcEEEE
_ZN7Iex_3_118EsocktnosupportExcC2ERKS0_
_ZN7Iex_3_118EsocktnosupportExcC2ERNSt3__118basic_stringstreamIcNS1_11char_traitsIcEENS1_9allocatorIcEEEE
_ZN7Iex_3_118EsocktnosupportExcC2Ev
_ZN7Iex_3_118EsocktnosupportExcD0Ev
_ZN7Iex_3_118EsocktnosupportExcD1Ev
_ZN7Iex_3_118EsocktnosupportExcD2Ev
_ZN7Iex_3_118EsocktnosupportExcaSEOS0_
_ZN7Iex_3_118EsocktnosupportExcaSERS0_
_ZN7Iex_3_15IoExcC1EONSt3__112basic_stringIcNS1_11char_traitsIcEENS1_9allocatorIcEEEE
_ZN7Iex_3_15IoExcC1EOS0_
_ZN7Iex_3_15IoExcC1EPKc
_ZN7Iex_3_15IoExcC1ERKNSt3__112basic_stringIcNS1_11char_traitsIcEENS1_9allocatorIcEEEE
_ZN7Iex_3_15IoExcC1ERKS0_
_ZN7Iex_3_15IoExcC1ERNSt3__118basic_stringstreamIcNS1_11char_traitsIcEENS1_9allocatorIcEEEE
_ZN7Iex_3_15IoExcC1Ev
_ZN7Iex_3_15IoExcC2EONSt3__112basic_stringIcNS1_11char_traitsIcEENS1_9allocatorIcEEEE
_ZN7Iex_3_15IoExcC2EOS0_
_ZN7Iex_3_15IoExcC2EPKc
_ZN7Iex_3_15IoExcC2ERKNSt3__112basic_stringIcNS1_11char_traitsIcEENS1_9allocatorIcEEEE
_ZN7Iex_3_15IoExcC2ERKS0_
_ZN7Iex_3_15IoExcC2ERNSt3__118basic_stringstreamIcNS1_11char_traitsIcEENS1_9allocatorIcEEEE
_ZN7Iex_3_15IoExcC2Ev
_ZN7Iex_3_15IoExcD0Ev
_ZN7Iex_3_15IoExcD1Ev
_ZN7Iex_3_15IoExcD2Ev
_ZN7Iex_3_15IoExcaSEOS0_
_ZN7Iex_3_15IoExcaSERS0_
_ZN7Iex_3_16ArgExcC1EONSt3__112basic_stringIcNS1_11char_traitsIcEENS1_9allocatorIcEEEE
_ZN7Iex_3_16ArgExcC1EOS0_
_ZN7Iex_3_16ArgExcC1EPKc
_ZN7Iex_3_16ArgExcC1ERKNSt3__112basic_stringIcNS1_11char_traitsIcEENS1_9allocatorIcEEEE
_ZN7Iex_3_16ArgExcC1ERKS0_
_ZN7Iex_3_16ArgExcC1ERNSt3__118basic_stringstreamIcNS1_11char_traitsIcEENS1_9allocatorIcEEEE
_ZN7Iex_3_16ArgExcC1Ev
_ZN7Iex_3_16ArgExcC2EONSt3__112basic_stringIcNS1_11char_traitsIcEENS1_9allocatorIcEEEE
_ZN7Iex_3_16ArgExcC2EOS0_
_ZN7Iex_3_16ArgExcC2EPKc
_ZN7Iex_3_16ArgExcC2ERKNSt3__112basic_stringIcNS1_11char_traitsIcEENS1_9allocatorIcEEEE
_ZN7Iex_3_16ArgExcC2ERKS0_
_ZN7Iex_3_16ArgExcC2ERNSt3__118basic_stringstreamIcNS1_11char_traitsIcEENS1_9allocatorIcEEEE
_ZN7Iex_3_16ArgExcC2Ev
_ZN7Iex_3_16ArgExcD0Ev
_ZN7Iex_3_16ArgExcD1Ev
_ZN7Iex_3_16ArgExcD2Ev
_ZN7Iex_3_16ArgExcaSEOS0_
_ZN7Iex_3_16ArgExcaSERS0_
_ZN7Iex_3_16EioExcC1EONSt3__112basic_stringIcNS1_11char_traitsIcEENS1_9allocatorIcEEEE
_ZN7Iex_3_16EioExcC1EOS0_
_ZN7Iex_3_16EioExcC1EPKc
_ZN7Iex_3_16EioExcC1ERKNSt3__112basic_stringIcNS1_11char_traitsIcEENS1_9allocatorIcEEEE
_ZN7Iex_3_16EioExcC1ERKS0_
_ZN7Iex_3_16EioExcC1ERNSt3__118basic_stringstreamIcNS1_11char_traitsIcEENS1_9allocatorIcEEEE
_ZN7Iex_3_16EioExcC1Ev
_ZN7Iex_3_16EioExcC2EONSt3__112basic_stringIcNS1_11char_traitsIcEENS1_9allocatorIcEEEE
_ZN7Iex_3_16EioExcC2EOS0_
_ZN7Iex_3_16EioExcC2EPKc
_ZN7Iex_3_16EioExcC2ERKNSt3__112basic_stringIcNS1_11char_traitsIcEENS1_9allocatorIcEEEE
_ZN7Iex_3_16EioExcC2ERKS0_
_ZN7Iex_3_16EioExcC2ERNSt3__118basic_stringstreamIcNS1_11char_traitsIcEENS1_9allocatorIcEEEE
_ZN7Iex_3_16EioExcC2Ev
_ZN7Iex_3_16EioExcD0Ev
_ZN7Iex_3_16EioExcD1Ev
_ZN7Iex_3_16EioExcD2Ev
_ZN7Iex_3_16EioExcaSEOS0_
_ZN7Iex_3_16EioExcaSERS0_
_ZN7Iex_3_17BaseExc6appendEPKc
_ZN7Iex_3_17BaseExc6appendERNSt3__118basic_stringstreamIcNS1_11char_traitsIcEENS1_9allocatorIcEEEE
_ZN7Iex_3_17BaseExc6assignEPKc
_ZN7Iex_3_17BaseExc6assignERNSt3__118basic_stringstreamIcNS1_11char_traitsIcEENS1_9allocatorIcEEEE
_ZN7Iex_3_17BaseExcC1EONSt3__112basic_stringIcNS1_11char_traitsIcEENS1_9allocatorIcEEEE
_ZN7Iex_3_17BaseExcC1EPKc
_ZN7Iex_3_17BaseExcC1ERKNSt3__112basic_stringIcNS1_11char_traitsIcEENS1_9allocatorIcEEEE
_ZN7Iex_3_17BaseExcC1ERKS0_
_ZN7Iex_3_17BaseExcC1ERNSt3__118basic_stringstreamIcNS1_11char_traitsIcEENS1_9allocatorIcEEEE
_ZN7Iex_3_17BaseExcC2EONSt3__112basic_stringIcNS1_11char_traitsIcEENS1_9allocatorIcEEEE
_ZN7Iex_3_17BaseExcC2EPKc
_ZN7Iex_3_17BaseExcC2ERKNSt3__112basic_stringIcNS1_11char_traitsIcEENS1_9allocatorIcEEEE
_ZN7Iex_3_17BaseExcC2ERKS0_
_ZN7Iex_3_17BaseExcC2ERNSt3__118basic_stringstreamIcNS1_11char_traitsIcEENS1_9allocatorIcEEEE
_ZN7Iex_3_17BaseExcD0Ev
_ZN7Iex_3_17BaseExcD1Ev
_ZN7Iex_3_17BaseExcD2Ev
_ZN7Iex_3_17BaseExcaSEOS0_
_ZN7Iex_3_17BaseExcaSEPKc
_ZN7Iex_3_17BaseExcaSERKS0_
_ZN7Iex_3_17BaseExcaSERNSt3__118basic_stringstreamIcNS1_11char_traitsIcEENS1_9allocatorIcEEEE
_ZN7Iex_3_17BaseExcpLEPKc
_ZN7Iex_3_17BaseExcpLERNSt3__118basic_stringstreamIcNS1_11char_traitsIcEENS1_9allocatorIcEEEE
_ZN7Iex_3_17EadvExcC1EONSt3__112basic_stringIcNS1_11char_traitsIcEENS1_9allocatorIcEEEE
_ZN7Iex_3_17EadvExcC1EOS0_
_ZN7Iex_3_17EadvExcC1EPKc
_ZN7Iex_3_17EadvExcC1ERKNSt3__112basic_stringIcNS1_11char_traitsIcEENS1_9allocatorIcEEEE
_ZN7Iex_3_17EadvExcC1ERKS0_
_ZN7Iex_3_17EadvExcC1ERNSt3__118basic_stringstreamIcNS1_11char_traitsIcEENS1_9allocatorIcEEEE
_ZN7Iex_3_17EadvExcC1Ev
_ZN7Iex_3_17EadvExcC2EONSt3__112basic_stringIcNS1_11char_traitsIcEENS1_9allocatorIcEEEE
_ZN7Iex_3_17EadvExcC2EOS0_
_ZN7Iex_3_17EadvExcC2EPKc
_ZN7Iex_3_17EadvExcC2ERKNSt3__112basic_stringIcNS1_11char_traitsIcEENS1_9allocatorIcEEEE
_ZN7Iex_3_17EadvExcC2ERKS0_
_ZN7Iex_3_17EadvExcC2ERNSt3__118basic_stringstreamIcNS1_11char_traitsIcEENS1_9allocatorIcEEEE
_ZN7Iex_3_17EadvExcC2Ev
_ZN7Iex_3_17EadvExcD0Ev
_ZN7Iex_3_17EadvExcD1Ev
_ZN7Iex_3_17EadvExcD2Ev
_ZN7Iex_3_17EadvExcaSEOS0_
_ZN7Iex_3_17EadvExcaSERS0_
_ZN7Iex_3_17EdomExcC1EONSt3__112basic_stringIcNS1_11char_traitsIcEENS1_9allocatorIcEEEE
_ZN7Iex_3_17EdomExcC1EOS0_
_ZN7Iex_3_17EdomExcC1EPKc
_ZN7Iex_3_17EdomExcC1ERKNSt3__112basic_stringIcNS1_11char_traitsIcEENS1_9allocatorIcEEEE
_ZN7Iex_3_17EdomExcC1ERKS0_
_ZN7Iex_3_17EdomExcC1ERNSt3__118basic_stringstreamIcNS1_11char_traitsIcEENS1_9allocatorIcEEEE
_ZN7Iex_3_17EdomExcC1Ev
_ZN7Iex_3_17EdomExcC2EONSt3__112basic_stringIcNS1_11char_traitsIcEENS1_9allocatorIcEEEE
_ZN7Iex_3_17EdomExcC2EOS0_
_ZN7Iex_3_17EdomExcC2EPKc
_ZN7Iex_3_17EdomExcC2ERKNSt3__112basic_stringIcNS1_11char_traitsIcEENS1_9allocatorIcEEEE
_ZN7Iex_3_17EdomExcC2ERKS0_
_ZN7Iex_3_17EdomExcC2ERNSt3__118basic_stringstreamIcNS1_11char_traitsIcEENS1_9allocatorIcEEEE
_ZN7Iex_3_17EdomExcC2Ev
_ZN7Iex_3_17EdomExcD0Ev
_ZN7Iex_3_17EdomExcD1Ev
_ZN7Iex_3_17EdomExcD2Ev
_ZN7Iex_3_17EdomExcaSEOS0_
_ZN7Iex_3_17EdomExcaSERS0_
_ZN7Iex_3_17MathExcC1EONSt3__112basic_stringIcNS1_11char_traitsIcEENS1_9allocatorIcEEEE
_ZN7Iex_3_17MathExcC1EOS0_
_ZN7Iex_3_17MathExcC1EPKc
_ZN7Iex_3_17MathExcC1ERKNSt3__112basic_stringIcNS1_11char_traitsIcEENS1_9allocatorIcEEEE
_ZN7Iex_3_17MathExcC1ERKS0_
_ZN7Iex_3_17MathExcC1ERNSt3__118basic_stringstreamIcNS1_11char_traitsIcEENS1_9allocatorIcEEEE
_ZN7Iex_3_17MathExcC1Ev
_ZN7Iex_3_17MathExcC2EONSt3__112basic_stringIcNS1_11char_traitsIcEENS1_9allocatorIcEEEE
_ZN7Iex_3_17MathExcC2EOS0_
_ZN7Iex_3_17MathExcC2EPKc
_ZN7Iex_3_17MathExcC2ERKNSt3__112basic_stringIcNS1_11char_traitsIcEENS1_9allocatorIcEEEE
_ZN7Iex_3_17MathExcC2ERKS0_
_ZN7Iex_3_17MathExcC2ERNSt3__118basic_stringstreamIcNS1_11char_traitsIcEENS1_9allocatorIcEEEE
_ZN7Iex_3_17MathExcC2Ev
_ZN7Iex_3_17MathExcD0Ev
_ZN7Iex_3_17MathExcD1Ev
_ZN7Iex_3_17MathExcD2Ev
_ZN7Iex_3_17MathExcaSEOS0_
_ZN7Iex_3_17MathExcaSERS0_
_ZN7Iex_3_17NullExcC1EONSt3__112basic_stringIcNS1_11char_traitsIcEENS1_9allocatorIcEEEE
_ZN7Iex_3_17NullExcC1EOS0_
_ZN7Iex_3_17NullExcC1EPKc
_ZN7Iex_3_17NullExcC1ERKNSt3__112basic_stringIcNS1_11char_traitsIcEENS1_9allocatorIcEEEE
_ZN7Iex_3_17NullExcC1ERKS0_
_ZN7Iex_3_17NullExcC1ERNSt3__118basic_stringstreamIcNS1_11char_traitsIcEENS1_9allocatorIcEEEE
_ZN7Iex_3_17NullExcC1Ev
_ZN7Iex_3_17NullExcC2EONSt3__112basic_stringIcNS1_11char_traitsIcEENS1_9allocatorIcEEEE
_ZN7Iex_3_17NullExcC2EOS0_
_ZN7Iex_3_17NullExcC2EPKc
_ZN7Iex_3_17NullExcC2ERKNSt3__112basic_stringIcNS1_11char_traitsIcEENS1_9allocatorIcEEEE
_ZN7Iex_3_17NullExcC2ERKS0_
_ZN7Iex_3_17NullExcC2ERNSt3__118basic_stringstreamIcNS1_11char_traitsIcEENS1_9allocatorIcEEEE
_ZN7Iex_3_17NullExcC2Ev
_ZN7Iex_3_17NullExcD0Ev
_ZN7Iex_3_17NullExcD1Ev
_ZN7Iex_3_17NullExcD2Ev
_ZN7Iex_3_17NullExcaSEOS0_
_ZN7Iex_3_17NullExcaSERS0_
_ZN7Iex_3_17TypeExcC1EONSt3__112basic_stringIcNS1_11char_traitsIcEENS1_9allocatorIcEEEE
_ZN7Iex_3_17TypeExcC1EOS0_
_ZN7Iex_3_17TypeExcC1EPKc
_ZN7Iex_3_17TypeExcC1ERKNSt3__112basic_stringIcNS1_11char_traitsIcEENS1_9allocatorIcEEEE
_ZN7Iex_3_17TypeExcC1ERKS0_
_ZN7Iex_3_17TypeExcC1ERNSt3__118basic_stringstreamIcNS1_11char_traitsIcEENS1_9allocatorIcEEEE
_ZN7Iex_3_17TypeExcC1Ev
_ZN7Iex_3_17TypeExcC2EONSt3__112basic_stringIcNS1_11char_traitsIcEENS1_9allocatorIcEEEE
_ZN7Iex_3_17TypeExcC2EOS0_
_ZN7Iex_3_17TypeExcC2EPKc
_ZN7Iex_3_17TypeExcC2ERKNSt3__112basic_stringIcNS1_11char_traitsIcEENS1_9allocatorIcEEEE
_ZN7Iex_3_17TypeExcC2ERKS0_
_ZN7Iex_3_17TypeExcC2ERNSt3__118basic_stringstreamIcNS1_11char_traitsIcEENS1_9allocatorIcEEEE
_ZN7Iex_3_17TypeExcC2Ev
_ZN7Iex_3_17TypeExcD0Ev
_ZN7Iex_3_17TypeExcD1Ev
_ZN7Iex_3_17TypeExcD2Ev
_ZN7Iex_3_17TypeExcaSEOS0_
_ZN7Iex_3_17TypeExcaSERS0_
_ZN7Iex_3_18E2bigExcC1EONSt3__112basic_stringIcNS1_11char_traitsIcEENS1_9allocatorIcEEEE
_ZN7Iex_3_18E2bigExcC1EOS0_
_ZN7Iex_3_18E2bigExcC1EPKc
_ZN7Iex_3_18E2bigExcC1ERKNSt3__112basic_stringIcNS1_11char_traitsIcEENS1_9allocatorIcEEEE
_ZN7Iex_3_18E2bigExcC1ERKS0_
_ZN7Iex_3_18E2bigExcC1ERNSt3__118basic_stringstreamIcNS1_11char_traitsIcEENS1_9allocatorIcEEEE
_ZN7Iex_3_18E2bigExcC1Ev
_ZN7Iex_3_18E2bigExcC2EONSt3__112basic_stringIcNS1_11char_traitsIcEENS1_9allocatorIcEEEE
_ZN7Iex_3_18E2bigExcC2EOS0_
_ZN7Iex_3_18E2bigExcC2EPKc
_ZN7Iex_3_18E2bigExcC2ERKNSt3__112basic_stringIcNS1_11char_traitsIcEENS1_9allocatorIcEEEE
_ZN7Iex_3_18E2bigExcC2ERKS0_
_ZN7Iex_3_18E2bigExcC2ERNSt3__118basic_stringstreamIcNS1_11char_traitsIcEENS1_9allocatorIcEEEE
_ZN7Iex_3_18E2bigExcC2Ev
_ZN7Iex_3_18E2bigExcD0Ev
_ZN7Iex_3_18E2bigExcD1Ev
_ZN7Iex_3_18E2bigExcD2Ev
_ZN7Iex_3_18E2bigExcaSEOS0_
_ZN7Iex_3_18E2bigExcaSERS0_
_ZN7Iex_3_18EbadeExcC1EONSt3__112basic_stringIcNS1_11char_traitsIcEENS1_9allocatorIcEEEE
_ZN7Iex_3_18EbadeExcC1EOS0_
_ZN7Iex_3_18EbadeExcC1EPKc
_ZN7Iex_3_18EbadeExcC1ERKNSt3__112basic_stringIcNS1_11char_traitsIcEENS1_9allocatorIcEEEE
_ZN7Iex_3_18EbadeExcC1ERKS0_
_ZN7Iex_3_18EbadeExcC1ERNSt3__118basic_stringstreamIcNS1_11char_traitsIcEENS1_9allocatorIcEEEE
_ZN7Iex_3_18EbadeExcC1Ev
_ZN7Iex_3_18EbadeExcC2EONSt3__112basic_stringIcNS1_11char_traitsIcEENS1_9allocatorIcEEEE
_ZN7Iex_3_18EbadeExcC2EOS0_
_ZN7Iex_3_18EbadeExcC2EPKc
_ZN7Iex_3_18EbadeExcC2ERKNSt3__112basic_stringIcNS1_11char_traitsIcEENS1_9allocatorIcEEEE
_ZN7Iex_3_18EbadeExcC2ERKS0_
_ZN7Iex_3_18EbadeExcC2ERNSt3__118basic_stringstreamIcNS1_11char_traitsIcEENS1_9allocatorIcEEEE
_ZN7Iex_3_18EbadeExcC2Ev
_ZN7Iex_3_18EbadeExcD0Ev
_ZN7Iex_3_18EbadeExcD1Ev
_ZN7Iex_3_18EbadeExcD2Ev
_ZN7Iex_3_18EbadeExcaSEOS0_
_ZN7Iex_3_18EbadeExcaSERS0_
_ZN7Iex_3_18EbadfExcC1EONSt3__112basic_stringIcNS1_11char_traitsIcEENS1_9allocatorIcEEEE
_ZN7Iex_3_18EbadfExcC1EOS0_
_ZN7Iex_3_18EbadfExcC1EPKc
_ZN7Iex_3_18EbadfExcC1ERKNSt3__112basic_stringIcNS1_11char_traitsIcEENS1_9allocatorIcEEEE
_ZN7Iex_3_18EbadfExcC1ERKS0_
_ZN7Iex_3_18EbadfExcC1ERNSt3__118basic_stringstreamIcNS1_11char_traitsIcEENS1_9allocatorIcEEEE
_ZN7Iex_3_18EbadfExcC1Ev
_ZN7Iex_3_18EbadfExcC2EONSt3__112basic_stringIcNS1_11char_traitsIcEENS1_9allocatorIcEEEE
_ZN7Iex_3_18EbadfExcC2EOS0_
_ZN7Iex_3_18EbadfExcC2EPKc
_ZN7Iex_3_18EbadfExcC2ERKNSt3__112basic_stringIcNS1_11char_traitsIcEENS1_9allocatorIcEEEE
_ZN7Iex_3_18EbadfExcC2ERKS0_
_ZN7Iex_3_18EbadfExcC2ERNSt3__118basic_stringstreamIcNS1_11char_traitsIcEENS1_9allocatorIcEEEE
_ZN7Iex_3_18EbadfExcC2Ev
_ZN7Iex_3_18EbadfExcD0Ev
_ZN7Iex_3_18EbadfExcD1Ev
_ZN7Iex_3_18EbadfExcD2Ev
_ZN7Iex_3_18EbadfExcaSEOS0_
_ZN7Iex_3_18EbadfExcaSERS0_
_ZN7Iex_3_18EbadrExcC1EONSt3__112basic_stringIcNS1_11char_traitsIcEENS1_9allocatorIcEEEE
_ZN7Iex_3_18EbadrExcC1EOS0_
_ZN7Iex_3_18EbadrExcC1EPKc
_ZN7Iex_3_18EbadrExcC1ERKNSt3__112basic_stringIcNS1_11char_traitsIcEENS1_9allocatorIcEEEE
_ZN7Iex_3_18EbadrExcC1ERKS0_
_ZN7Iex_3_18EbadrExcC1ERNSt3__118basic_stringstreamIcNS1_11char_traitsIcEENS1_9allocatorIcEEEE
_ZN7Iex_3_18EbadrExcC1Ev
_ZN7Iex_3_18EbadrExcC2EONSt3__112basic_stringIcNS1_11char_traitsIcEENS1_9allocatorIcEEEE
_ZN7Iex_3_18EbadrExcC2EOS0_
_ZN7Iex_3_18EbadrExcC2EPKc
_ZN7Iex_3_18EbadrExcC2ERKNSt3__112basic_stringIcNS1_11char_traitsIcEENS1_9allocatorIcEEEE
_ZN7Iex_3_18EbadrExcC2ERKS0_
_ZN7Iex_3_18EbadrExcC2ERNSt3__118basic_stringstreamIcNS1_11char_traitsIcEENS1_9allocatorIcEEEE
_ZN7Iex_3_18EbadrExcC2Ev
_ZN7Iex_3_18EbadrExcD0Ev
_ZN7Iex_3_18EbadrExcD1Ev
_ZN7Iex_3_18EbadrExcD2Ev
_ZN7Iex_3_18EbadrExcaSEOS0_
_ZN7Iex_3_18EbadrExcaSERS0_
_ZN7Iex_3_18EbusyExcC1EONSt3__112basic_stringIcNS1_11char_traitsIcEENS1_9allocatorIcEEEE
_ZN7Iex_3_18EbusyExcC1EOS0_
_ZN7Iex_3_18EbusyExcC1EPKc
_ZN7Iex_3_18EbusyExcC1ERKNSt3__112basic_stringIcNS1_11char_traitsIcEENS1_9allocatorIcEEEE
_ZN7Iex_3_18EbusyExcC1ERKS0_
_ZN7Iex_3_18EbusyExcC1ERNSt3__118basic_stringstreamIcNS1_11char_traitsIcEENS1_9allocatorIcEEEE
_ZN7Iex_3_18EbusyExcC1Ev
_ZN7Iex_3_18EbusyExcC2EONSt3__112basic_stringIcNS1_11char_traitsIcEENS1_9allocatorIcEEEE
_ZN7Iex_3_18EbusyExcC2EOS0_
_ZN7Iex_3_18EbusyExcC2EPKc
_ZN7Iex_3_18EbusyExcC2ERKNSt3__112basic_stringIcNS1_11char_traitsIcEENS1_9allocatorIcEEEE
_ZN7Iex_3_18EbusyExcC2ERKS0_
_ZN7Iex_3_18EbusyExcC2ERNSt3__118basic_stringstreamIcNS1_11char_traitsIcEENS1_9allocatorIcEEEE
_ZN7Iex_3_18EbusyExcC2Ev
_ZN7Iex_3_18EbusyExcD0Ev
_ZN7Iex_3_18EbusyExcD1Ev
_ZN7Iex_3_18EbusyExcD2Ev
_ZN7Iex_3_18EbusyExcaSEOS0_
_ZN7Iex_3_18EbusyExcaSERS0_
_ZN7Iex_3_18EcommExcC1EONSt3__112basic_stringIcNS1_11char_traitsIcEENS1_9allocatorIcEEEE
_ZN7Iex_3_18EcommExcC1EOS0_
_ZN7Iex_3_18EcommExcC1EPKc
_ZN7Iex_3_18EcommExcC1ERKNSt3__112basic_stringIcNS1_11char_traitsIcEENS1_9allocatorIcEEEE
_ZN7Iex_3_18EcommExcC1ERKS0_
_ZN7Iex_3_18EcommExcC1ERNSt3__118basic_stringstreamIcNS1_11char_traitsIcEENS1_9allocatorIcEEEE
_ZN7Iex_3_18EcommExcC1Ev
_ZN7Iex_3_18EcommExcC2EONSt3__112basic_stringIcNS1_11char_traitsIcEENS1_9allocatorIcEEEE
_ZN7Iex_3_18EcommExcC2EOS0_
_ZN7Iex_3_18EcommExcC2EPKc
_ZN7Iex_3_18EcommExcC2ERKNSt3__112basic_stringIcNS1_11char_traitsIcEENS1_9allocatorIcEEEE
_ZN7Iex_3_18EcommExcC2ERKS0_
_ZN7Iex_3_18EcommExcC2ERNSt3__118basic_stringstreamIcNS1_11char_traitsIcEENS1_9allocatorIcEEEE
_ZN7Iex_3_18EcommExcC2Ev
_ZN7Iex_3_18EcommExcD0Ev
_ZN7Iex_3_18EcommExcD1Ev
_ZN7Iex_3_18EcommExcD2Ev
_ZN7Iex_3_18EcommExcaSEOS0_
_ZN7Iex_3_18EcommExcaSERS0_
_ZN7Iex_3_18EfbigExcC1EONSt3__112basic_stringIcNS1_11char_traitsIcEENS1_9allocatorIcEEEE
_ZN7Iex_3_18EfbigExcC1EOS0_
_ZN7Iex_3_18EfbigExcC1EPKc
_ZN7Iex_3_18EfbigExcC1ERKNSt3__112basic_stringIcNS1_11char_traitsIcEENS1_9allocatorIcEEEE
_ZN7Iex_3_18EfbigExcC1ERKS0_
_ZN7Iex_3_18EfbigExcC1ERNSt3__118basic_stringstreamIcNS1_11char_traitsIcEENS1_9allocatorIcEEEE
_ZN7Iex_3_18EfbigExcC1Ev
_ZN7Iex_3_18EfbigExcC2EONSt3__112basic_stringIcNS1_11char_traitsIcEENS1_9allocatorIcEEEE
_ZN7Iex_3_18EfbigExcC2EOS0_
_ZN7Iex_3_18EfbigExcC2EPKc
_ZN7Iex_3_18EfbigExcC2ERKNSt3__112basic_stringIcNS1_11char_traitsIcEENS1_9allocatorIcEEEE
_ZN7Iex_3_18EfbigExcC2ERKS0_
_ZN7Iex_3_18EfbigExcC2ERNSt3__118basic_stringstreamIcNS1_11char_traitsIcEENS1_9allocatorIcEEEE
_ZN7Iex_3_18EfbigExcC2Ev
_ZN7Iex_3_18EfbigExcD0Ev
_ZN7Iex_3_18EfbigExcD1Ev
_ZN7Iex_3_18EfbigExcD2Ev
_ZN7Iex_3_18EfbigExcaSEOS0_
_ZN7Iex_3_18EfbigExcaSERS0_
_ZN7Iex_3_18EidrmExcC1EONSt3__112basic_stringIcNS1_11char_traitsIcEENS1_9allocatorIcEEEE
_ZN7Iex_3_18EidrmExcC1EOS0_
_ZN7Iex_3_18EidrmExcC1EPKc
_ZN7Iex_3_18EidrmExcC1ERKNSt3__112basic_stringIcNS1_11char_traitsIcEENS1_9allocatorIcEEEE
_ZN7Iex_3_18EidrmExcC1ERKS0_
_ZN7Iex_3_18EidrmExcC1ERNSt3__118basic_stringstreamIcNS1_11char_traitsIcEENS1_9allocatorIcEEEE
_ZN7Iex_3_18EidrmExcC1Ev
_ZN7Iex_3_18EidrmExcC2EONSt3__112basic_stringIcNS1_11char_traitsIcEENS1_9allocatorIcEEEE
_ZN7Iex_3_18EidrmExcC2EOS0_
_ZN7Iex_3_18EidrmExcC2EPKc
_ZN7Iex_3_18EidrmExcC2ERKNSt3__112basic_stringIcNS1_11char_traitsIcEENS1_9allocatorIcEEEE
_ZN7Iex_3_18EidrmExcC2ERKS0_
_ZN7Iex_3_18EidrmExcC2ERNSt3__118basic_stringstreamIcNS1_11char_traitsIcEENS1_9allocatorIcEEEE
_ZN7Iex_3_18EidrmExcC2Ev
_ZN7Iex_3_18EidrmExcD0Ev
_ZN7Iex_3_18EidrmExcD1Ev
_ZN7Iex_3_18EidrmExcD2Ev
_ZN7Iex_3_18EidrmExcaSEOS0_
_ZN7Iex_3_18EidrmExcaSERS0_
_ZN7Iex_3_18EinitExcC1EONSt3__112basic_stringIcNS1_11char_traitsIcEENS1_9allocatorIcEEEE
_ZN7Iex_3_18EinitExcC1EOS0_
_ZN7Iex_3_18EinitExcC1EPKc
_ZN7Iex_3_18EinitExcC1ERKNSt3__112basic_stringIcNS1_11char_traitsIcEENS1_9allocatorIcEEEE
_ZN7Iex_3_18EinitExcC1ERKS0_
_ZN7Iex_3_18EinitExcC1ERNSt3__118basic_stringstreamIcNS1_11char_traitsIcEENS1_9allocatorIcEEEE
_ZN7Iex_3_18EinitExcC1Ev
_ZN7Iex_3_18EinitExcC2EONSt3__112basic_stringIcNS1_11char_traitsIcEENS1_9allocatorIcEEEE
_ZN7Iex_3_18EinitExcC2EOS0_
_ZN7Iex_3_18EinitExcC2EPKc
_ZN7Iex_3_18EinitExcC2ERKNSt3__112basic_stringIcNS1_11char_traitsIcEENS1_9allocatorIcEEEE
_ZN7Iex_3_18EinitExcC2ERKS0_
_ZN7Iex_3_18EinitExcC2ERNSt3__118basic_stringstreamIcNS1_11char_traitsIcEENS1_9allocatorIcEEEE
_ZN7Iex_3_18EinitExcC2Ev
_ZN7Iex_3_18EinitExcD0Ev
_ZN7Iex_3_18EinitExcD1Ev
_ZN7Iex_3_18EinitExcD2Ev
_ZN7Iex_3_18EinitExcaSEOS0_
_ZN7Iex_3_18EinitExcaSERS0_
_ZN7Iex_3_18EintrExcC1EONSt3__112basic_stringIcNS1_11char_traitsIcEENS1_9allocatorIcEEEE
_ZN7Iex_3_18EintrExcC1EOS0_
_ZN7Iex_3_18EintrExcC1EPKc
_ZN7Iex_3_18EintrExcC1ERKNSt3__112basic_stringIcNS1_11char_traitsIcEENS1_9allocatorIcEEEE
_ZN7Iex_3_18EintrExcC1ERKS0_
_ZN7Iex_3_18EintrExcC1ERNSt3__118basic_stringstreamIcNS1_11char_traitsIcEENS1_9allocatorIcEEEE
_ZN7Iex_3_18EintrExcC1Ev
_ZN7Iex_3_18EintrExcC2EONSt3__112basic_stringIcNS1_11char_traitsIcEENS1_9allocatorIcEEEE
_ZN7Iex_3_18EintrExcC2EOS0_
_ZN7Iex_3_18EintrExcC2EPKc
_ZN7Iex_3_18EintrExcC2ERKNSt3__112basic_stringIcNS1_11char_traitsIcEENS1_9allocatorIcEEEE
_ZN7Iex_3_18EintrExcC2ERKS0_
_ZN7Iex_3_18EintrExcC2ERNSt3__118basic_stringstreamIcNS1_11char_traitsIcEENS1_9allocatorIcEEEE
_ZN7Iex_3_18EintrExcC2Ev
_ZN7Iex_3_18EintrExcD0Ev
_ZN7Iex_3_18EintrExcD1Ev
_ZN7Iex_3_18EintrExcD2Ev
_ZN7Iex_3_18EintrExcaSEOS0_
_ZN7Iex_3_18EintrExcaSERS0_
_ZN7Iex_3_18EloopExcC1EONSt3__112basic_stringIcNS1_11char_traitsIcEENS1_9allocatorIcEEEE
_ZN7Iex_3_18EloopExcC1EOS0_
_ZN7Iex_3_18EloopExcC1EPKc
_ZN7Iex_3_18EloopExcC1ERKNSt3__112basic_stringIcNS1_11char_traitsIcEENS1_9allocatorIcEEEE
_ZN7Iex_3_18EloopExcC1ERKS0_
_ZN7Iex_3_18EloopExcC1ERNSt3__118basic_stringstreamIcNS1_11char_traitsIcEENS1_9allocatorIcEEEE
_ZN7Iex_3_18EloopExcC1Ev
_ZN7Iex_3_18EloopExcC2EONSt3__112basic_stringIcNS1_11char_traitsIcEENS1_9allocatorIcEEEE
_ZN7Iex_3_18EloopExcC2EOS0_
_ZN7Iex_3_18EloopExcC2EPKc
_ZN7Iex_3_18EloopExcC2ERKNSt3__112basic_stringIcNS1_11char_traitsIcEENS1_9allocatorIcEEEE
_ZN7Iex_3_18EloopExcC2ERKS0_
_ZN7Iex_3_18EloopExcC2ERNSt3__118basic_stringstreamIcNS1_11char_traitsIcEENS1_9allocatorIcEEEE
_ZN7Iex_3_18EloopExcC2Ev
_ZN7Iex_3_18EloopExcD0Ev
_ZN7Iex_3_18EloopExcD1Ev
_ZN7Iex_3_18EloopExcD2Ev
_ZN7Iex_3_18EloopExcaSEOS0_
_ZN7Iex_3_18EloopExcaSERS0_
_ZN7Iex_3_18EnosrExcC1EONSt3__112basic_stringIcNS1_11char_traitsIcEENS1_9allocatorIcEEEE
_ZN7Iex_3_18EnosrExcC1EOS0_
_ZN7Iex_3_18EnosrExcC1EPKc
_ZN7Iex_3_18EnosrExcC1ERKNSt3__112basic_stringIcNS1_11char_traitsIcEENS1_9allocatorIcEEEE
_ZN7Iex_3_18EnosrExcC1ERKS0_
_ZN7Iex_3_18EnosrExcC1ERNSt3__118basic_stringstreamIcNS1_11char_traitsIcEENS1_9allocatorIcEEEE
_ZN7Iex_3_18EnosrExcC1Ev
_ZN7Iex_3_18EnosrExcC2EONSt3__112basic_stringIcNS1_11char_traitsIcEENS1_9allocatorIcEEEE
_ZN7Iex_3_18EnosrExcC2EOS0_
_ZN7Iex_3_18EnosrExcC2EPKc
_ZN7Iex_3_18EnosrExcC2ERKNSt3__112basic_stringIcNS1_11char_traitsIcEENS1_9allocatorIcEEEE
_ZN7Iex_3_18EnosrExcC2ERKS0_
_ZN7Iex_3_18EnosrExcC2ERNSt3__118basic_stringstreamIcNS1_11char_traitsIcEENS1_9allocatorIcEEEE
_ZN7Iex_3_18EnosrExcC2Ev
_ZN7Iex_3_18EnosrExcD0Ev
_ZN7Iex_3_18EnosrExcD1Ev
_ZN7Iex_3_18EnosrExcD2Ev
_ZN7Iex_3_18EnosrExcaSEOS0_
_ZN7Iex_3_18EnosrExcaSERS0_
_ZN7Iex_3_18EnxioExcC1EONSt3__112basic_stringIcNS1_11char_traitsIcEENS1_9allocatorIcEEEE
_ZN7Iex_3_18EnxioExcC1EOS0_
_ZN7Iex_3_18EnxioExcC1EPKc
_ZN7Iex_3_18EnxioExcC1ERKNSt3__112basic_stringIcNS1_11char_traitsIcEENS1_9allocatorIcEEEE
_ZN7Iex_3_18EnxioExcC1ERKS0_
_ZN7Iex_3_18EnxioExcC1ERNSt3__118basic_stringstreamIcNS1_11char_traitsIcEENS1_9allocatorIcEEEE
_ZN7Iex_3_18EnxioExcC1Ev
_ZN7Iex_3_18EnxioExcC2EONSt3__112basic_stringIcNS1_11char_traitsIcEENS1_9allocatorIcEEEE
_ZN7Iex_3_18EnxioExcC2EOS0_
_ZN7Iex_3_18EnxioExcC2EPKc
_ZN7Iex_3_18EnxioExcC2ERKNSt3__112basic_stringIcNS1_11char_traitsIcEENS1_9allocatorIcEEEE
_ZN7Iex_3_18EnxioExcC2ERKS0_
_ZN7Iex_3_18EnxioExcC2ERNSt3__118basic_stringstreamIcNS1_11char_traitsIcEENS1_9allocatorIcEEEE
_ZN7Iex_3_18EnxioExcC2Ev
_ZN7Iex_3_18EnxioExcD0Ev
_ZN7Iex_3_18EnxioExcD1Ev
_ZN7Iex_3_18EnxioExcD2Ev
_ZN7Iex_3_18EnxioExcaSEOS0_
_ZN7Iex_3_18EnxioExcaSERS0_
_ZN7Iex_3_18EpermExcC1EONSt3__112basic_stringIcNS1_11char_traitsIcEENS1_9allocatorIcEEEE
_ZN7Iex_3_18EpermExcC1EOS0_
_ZN7Iex_3_18EpermExcC1EPKc
_ZN7Iex_3_18EpermExcC1ERKNSt3__112basic_stringIcNS1_11char_traitsIcEENS1_9allocatorIcEEEE
_ZN7Iex_3_18EpermExcC1ERKS0_
_ZN7Iex_3_18EpermExcC1ERNSt3__118basic_stringstreamIcNS1_11char_traitsIcEENS1_9allocatorIcEEEE
_ZN7Iex_3_18EpermExcC1Ev
_ZN7Iex_3_18EpermExcC2EONSt3__112basic_stringIcNS1_11char_traitsIcEENS1_9allocatorIcEEEE
_ZN7Iex_3_18EpermExcC2EOS0_
_ZN7Iex_3_18EpermExcC2EPKc
_ZN7Iex_3_18EpermExcC2ERKNSt3__112basic_stringIcNS1_11char_traitsIcEENS1_9allocatorIcEEEE
_ZN7Iex_3_18EpermExcC2ERKS0_
_ZN7Iex_3_18EpermExcC2ERNSt3__118basic_stringstreamIcNS1_11char_traitsIcEENS1_9allocatorIcEEEE
_ZN7Iex_3_18EpermExcC2Ev
_ZN7Iex_3_18EpermExcD0Ev
_ZN7Iex_3_18EpermExcD1Ev
_ZN7Iex_3_18EpermExcD2Ev
_ZN7Iex_3_18EpermExcaSEOS0_
_ZN7Iex_3_18EpermExcaSERS0_
_ZN7Iex_3_18EpipeExcC1EONSt3__112basic_stringIcNS1_11char_traitsIcEENS1_9allocatorIcEEEE
_ZN7Iex_3_18EpipeExcC1EOS0_
_ZN7Iex_3_18EpipeExcC1EPKc
_ZN7Iex_3_18EpipeExcC1ERKNSt3__112basic_stringIcNS1_11char_traitsIcEENS1_9allocatorIcEEEE
_ZN7Iex_3_18EpipeExcC1ERKS0_
_ZN7Iex_3_18EpipeExcC1ERNSt3__118basic_stringstreamIcNS1_11char_traitsIcEENS1_9allocatorIcEEEE
_ZN7Iex_3_18EpipeExcC1Ev
_ZN7Iex_3_18EpipeExcC2EONSt3__112basic_stringIcNS1_11char_traitsIcEENS1_9allocatorIcEEEE
_ZN7Iex_3_18EpipeExcC2EOS0_
_ZN7Iex_3_18EpipeExcC2EPKc
_ZN7Iex_3_18EpipeExcC2ERKNSt3__112basic_stringIcNS1_11char_traitsIcEENS1_9allocatorIcEEEE
_ZN7Iex_3_18EpipeExcC2ERKS0_
_ZN7Iex_3_18EpipeExcC2ERNSt3__118basic_stringstreamIcNS1_11char_traitsIcEENS1_9allocatorIcEEEE
_ZN7Iex_3_18EpipeExcC2Ev
_ZN7Iex_3_18EpipeExcD0Ev
_ZN7Iex_3_18EpipeExcD1Ev
_ZN7Iex_3_18EpipeExcD2Ev
_ZN7Iex_3_18EpipeExcaSEOS0_
_ZN7Iex_3_18EpipeExcaSERS0_
_ZN7Iex_3_18ErofsExcC1EONSt3__112basic_stringIcNS1_11char_traitsIcEENS1_9allocatorIcEEEE
_ZN7Iex_3_18ErofsExcC1EOS0_
_ZN7Iex_3_18ErofsExcC1EPKc
_ZN7Iex_3_18ErofsExcC1ERKNSt3__112basic_stringIcNS1_11char_traitsIcEENS1_9allocatorIcEEEE
_ZN7Iex_3_18ErofsExcC1ERKS0_
_ZN7Iex_3_18ErofsExcC1ERNSt3__118basic_stringstreamIcNS1_11char_traitsIcEENS1_9allocatorIcEEEE
_ZN7Iex_3_18ErofsExcC1Ev
_ZN7Iex_3_18ErofsExcC2EONSt3__112basic_stringIcNS1_11char_traitsIcEENS1_9allocatorIcEEEE
_ZN7Iex_3_18ErofsExcC2EOS0_
_ZN7Iex_3_18ErofsExcC2EPKc
_ZN7Iex_3_18ErofsExcC2ERKNSt3__112basic_stringIcNS1_11char_traitsIcEENS1_9allocatorIcEEEE
_ZN7Iex_3_18ErofsExcC2ERKS0_
_ZN7Iex_3_18ErofsExcC2ERNSt3__118basic_stringstreamIcNS1_11char_traitsIcEENS1_9allocatorIcEEEE
_ZN7Iex_3_18ErofsExcC2Ev
_ZN7Iex_3_18ErofsExcD0Ev
_ZN7Iex_3_18ErofsExcD1Ev
_ZN7Iex_3_18ErofsExcD2Ev
_ZN7Iex_3_18ErofsExcaSEOS0_
_ZN7Iex_3_18ErofsExcaSERS0_
_ZN7Iex_3_18ErrnoExcC1EONSt3__112basic_stringIcNS1_11char_traitsIcEENS1_9allocatorIcEEEE
_ZN7Iex_3_18ErrnoExcC1EOS0_
_ZN7Iex_3_18ErrnoExcC1EPKc
_ZN7Iex_3_18ErrnoExcC1ERKNSt3__112basic_stringIcNS1_11char_traitsIcEENS1_9allocatorIcEEEE
_ZN7Iex_3_18ErrnoExcC1ERKS0_
_ZN7Iex_3_18ErrnoExcC1ERNSt3__118basic_stringstreamIcNS1_11char_traitsIcEENS1_9allocatorIcEEEE
_ZN7Iex_3_18ErrnoExcC1Ev
_ZN7Iex_3_18ErrnoExcC2EONSt3__112basic_stringIcNS1_11char_traitsIcEENS1_9allocatorIcEEEE
_ZN7Iex_3_18ErrnoExcC2EOS0_
_ZN7Iex_3_18ErrnoExcC2EPKc
_ZN7Iex_3_18ErrnoExcC2ERKNSt3__112basic_stringIcNS1_11char_traitsIcEENS1_9allocatorIcEEEE
_ZN7Iex_3_18ErrnoExcC2ERKS0_
_ZN7Iex_3_18ErrnoExcC2ERNSt3__118basic_stringstreamIcNS1_11char_traitsIcEENS1_9allocatorIcEEEE
_ZN7Iex_3_18ErrnoExcC2Ev
_ZN7Iex_3_18ErrnoExcD0Ev
_ZN7Iex_3_18ErrnoExcD1Ev
_ZN7Iex_3_18ErrnoExcD2Ev
_ZN7Iex_3_18ErrnoExcaSEOS0_
_ZN7Iex_3_18ErrnoExcaSERS0_
_ZN7Iex_3_18EsrchExcC1EONSt3__112basic_stringIcNS1_11char_traitsIcEENS1_9allocatorIcEEEE
_ZN7Iex_3_18EsrchExcC1EOS0_
_ZN7Iex_3_18EsrchExcC1EPKc
_ZN7Iex_3_18EsrchExcC1ERKNSt3__112basic_stringIcNS1_11char_traitsIcEENS1_9allocatorIcEEEE
_ZN7Iex_3_18EsrchExcC1ERKS0_
_ZN7Iex_3_18EsrchExcC1ERNSt3__118basic_stringstreamIcNS1_11char_traitsIcEENS1_9allocatorIcEEEE
_ZN7Iex_3_18EsrchExcC1Ev
_ZN7Iex_3_18EsrchExcC2EONSt3__112basic_stringIcNS1_11char_traitsIcEENS1_9allocatorIcEEEE
_ZN7Iex_3_18EsrchExcC2EOS0_
_ZN7Iex_3_18EsrchExcC2EPKc
_ZN7Iex_3_18EsrchExcC2ERKNSt3__112basic_stringIcNS1_11char_traitsIcEENS1_9allocatorIcEEEE
_ZN7Iex_3_18EsrchExcC2ERKS0_
_ZN7Iex_3_18EsrchExcC2ERNSt3__118basic_stringstreamIcNS1_11char_traitsIcEENS1_9allocatorIcEEEE
_ZN7Iex_3_18EsrchExcC2Ev
_ZN7Iex_3_18EsrchExcD0Ev
_ZN7Iex_3_18EsrchExcD1Ev
_ZN7Iex_3_18EsrchExcD2Ev
_ZN7Iex_3_18EsrchExcaSEOS0_
_ZN7Iex_3_18EsrchExcaSERS0_
_ZN7Iex_3_18EtimeExcC1EONSt3__112basic_stringIcNS1_11char_traitsIcEENS1_9allocatorIcEEEE
_ZN7Iex_3_18EtimeExcC1EOS0_
_ZN7Iex_3_18EtimeExcC1EPKc
_ZN7Iex_3_18EtimeExcC1ERKNSt3__112basic_stringIcNS1_11char_traitsIcEENS1_9allocatorIcEEEE
_ZN7Iex_3_18EtimeExcC1ERKS0_
_ZN7Iex_3_18EtimeExcC1ERNSt3__118basic_stringstreamIcNS1_11char_traitsIcEENS1_9allocatorIcEEEE
_ZN7Iex_3_18EtimeExcC1Ev
_ZN7Iex_3_18EtimeExcC2EONSt3__112basic_stringIcNS1_11char_traitsIcEENS1_9allocatorIcEEEE
_ZN7Iex_3_18EtimeExcC2EOS0_
_ZN7Iex_3_18EtimeExcC2EPKc
_ZN7Iex_3_18EtimeExcC2ERKNSt3__112basic_stringIcNS1_11char_traitsIcEENS1_9allocatorIcEEEE
_ZN7Iex_3_18EtimeExcC2ERKS0_
_ZN7Iex_3_18EtimeExcC2ERNSt3__118basic_stringstreamIcNS1_11char_traitsIcEENS1_9allocatorIcEEEE
_ZN7Iex_3_18EtimeExcC2Ev
_ZN7Iex_3_18EtimeExcD0Ev
_ZN7Iex_3_18EtimeExcD1Ev
_ZN7Iex_3_18EtimeExcD2Ev
_ZN7Iex_3_18EtimeExcaSEOS0_
_ZN7Iex_3_18EtimeExcaSERS0_
_ZN7Iex_3_18ExdevExcC1EONSt3__112basic_stringIcNS1_11char_traitsIcEENS1_9allocatorIcEEEE
_ZN7Iex_3_18ExdevExcC1EOS0_
_ZN7Iex_3_18ExdevExcC1EPKc
_ZN7Iex_3_18ExdevExcC1ERKNSt3__112basic_stringIcNS1_11char_traitsIcEENS1_9allocatorIcEEEE
_ZN7Iex_3_18ExdevExcC1ERKS0_
_ZN7Iex_3_18ExdevExcC1ERNSt3__118basic_stringstreamIcNS1_11char_traitsIcEENS1_9allocatorIcEEEE
_ZN7Iex_3_18ExdevExcC1Ev
_ZN7Iex_3_18ExdevExcC2EONSt3__112basic_stringIcNS1_11char_traitsIcEENS1_9allocatorIcEEEE
_ZN7Iex_3_18ExdevExcC2EOS0_
_ZN7Iex_3_18ExdevExcC2EPKc
_ZN7Iex_3_18ExdevExcC2ERKNSt3__112basic_stringIcNS1_11char_traitsIcEENS1_9allocatorIcEEEE
_ZN7Iex_3_18ExdevExcC2ERKS0_
_ZN7Iex_3_18ExdevExcC2ERNSt3__118basic_stringstreamIcNS1_11char_traitsIcEENS1_9allocatorIcEEEE
_ZN7Iex_3_18ExdevExcC2Ev
_ZN7Iex_3_18ExdevExcD0Ev
_ZN7Iex_3_18ExdevExcD1Ev
_ZN7Iex_3_18ExdevExcD2Ev
_ZN7Iex_3_18ExdevExcaSEOS0_
_ZN7Iex_3_18ExdevExcaSERS0_
_ZN7Iex_3_18InputExcC1EONSt3__112basic_stringIcNS1_11char_traitsIcEENS1_9allocatorIcEEEE
_ZN7Iex_3_18InputExcC1EOS0_
_ZN7Iex_3_18InputExcC1EPKc
_ZN7Iex_3_18InputExcC1ERKNSt3__112basic_stringIcNS1_11char_traitsIcEENS1_9allocatorIcEEEE
_ZN7Iex_3_18InputExcC1ERKS0_
_ZN7Iex_3_18InputExcC1ERNSt3__118basic_stringstreamIcNS1_11char_traitsIcEENS1_9allocatorIcEEEE
_ZN7Iex_3_18InputExcC1Ev
_ZN7Iex_3_18InputExcC2EONSt3__112basic_stringIcNS1_11char_traitsIcEENS1_9allocatorIcEEEE
_ZN7Iex_3_18InputExcC2EOS0_
_ZN7Iex_3_18InputExcC2EPKc
_ZN7Iex_3_18InputExcC2ERKNSt3__112basic_stringIcNS1_11char_traitsIcEENS1_9allocatorIcEEEE
_ZN7Iex_3_18InputExcC2ERKS0_
_ZN7Iex_3_18InputExcC2ERNSt3__118basic_stringstreamIcNS1_11char_traitsIcEENS1_9allocatorIcEEEE
_ZN7Iex_3_18InputExcC2Ev
_ZN7Iex_3_18InputExcD0Ev
_ZN7Iex_3_18InputExcD1Ev
_ZN7Iex_3_18InputExcD2Ev
_ZN7Iex_3_18InputExcaSEOS0_
_ZN7Iex_3_18InputExcaSERS0_
_ZN7Iex_3_18LogicExcC1EONSt3__112basic_stringIcNS1_11char_traitsIcEENS1_9allocatorIcEEEE
_ZN7Iex_3_18LogicExcC1EOS0_
_ZN7Iex_3_18LogicExcC1EPKc
_ZN7Iex_3_18LogicExcC1ERKNSt3__112basic_stringIcNS1_11char_traitsIcEENS1_9allocatorIcEEEE
_ZN7Iex_3_18LogicExcC1ERKS0_
_ZN7Iex_3_18LogicExcC1ERNSt3__118basic_stringstreamIcNS1_11char_traitsIcEENS1_9allocatorIcEEEE
_ZN7Iex_3_18LogicExcC1Ev
_ZN7Iex_3_18LogicExcC2EONSt3__112basic_stringIcNS1_11char_traitsIcEENS1_9allocatorIcEEEE
_ZN7Iex_3_18LogicExcC2EOS0_
_ZN7Iex_3_18LogicExcC2EPKc
_ZN7Iex_3_18LogicExcC2ERKNSt3__112basic_stringIcNS1_11char_traitsIcEENS1_9allocatorIcEEEE
_ZN7Iex_3_18LogicExcC2ERKS0_
_ZN7Iex_3_18LogicExcC2ERNSt3__118basic_stringstreamIcNS1_11char_traitsIcEENS1_9allocatorIcEEEE
_ZN7Iex_3_18LogicExcC2Ev
_ZN7Iex_3_18LogicExcD0Ev
_ZN7Iex_3_18LogicExcD1Ev
_ZN7Iex_3_18LogicExcD2Ev
_ZN7Iex_3_18LogicExcaSEOS0_
_ZN7Iex_3_18LogicExcaSERS0_
_ZN7Iex_3_19EaccesExcC1EONSt3__112basic_stringIcNS1_11char_traitsIcEENS1_9allocatorIcEEEE
_ZN7Iex_3_19EaccesExcC1EOS0_
_ZN7Iex_3_19EaccesExcC1EPKc
_ZN7Iex_3_19EaccesExcC1ERKNSt3__112basic_stringIcNS1_11char_traitsIcEENS1_9allocatorIcEEEE
_ZN7Iex_3_19EaccesExcC1ERKS0_
_ZN7Iex_3_19EaccesExcC1ERNSt3__118basic_stringstreamIcNS1_11char_traitsIcEENS1_9allocatorIcEEEE
_ZN7Iex_3_19EaccesExcC1Ev
_ZN7Iex_3_19EaccesExcC2EONSt3__112basic_stringIcNS1_11char_traitsIcEENS1_9allocatorIcEEEE
_ZN7Iex_3_19EaccesExcC2EOS0_
_ZN7Iex_3_19EaccesExcC2EPKc
_ZN7Iex_3_19EaccesExcC2ERKNSt3__112basic_stringIcNS1_11char_traitsIcEENS1_9allocatorIcEEEE
_ZN7Iex_3_19EaccesExcC2ERKS0_
_ZN7Iex_3_19EaccesExcC2ERNSt3__118basic_stringstreamIcNS1_11char_traitsIcEENS1_9allocatorIcEEEE
_ZN7Iex_3_19EaccesExcC2Ev
_ZN7Iex_3_19EaccesExcD0Ev
_ZN7Iex_3_19EaccesExcD1Ev
_ZN7Iex_3_19EaccesExcD2Ev
_ZN7Iex_3_19EaccesExcaSEOS0_
_ZN7Iex_3_19EaccesExcaSERS0_
_ZN7Iex_3_19EagainExcC1EONSt3__112basic_stringIcNS1_11char_traitsIcEENS1_9allocatorIcEEEE
_ZN7Iex_3_19EagainExcC1EOS0_
_ZN7Iex_3_19EagainExcC1EPKc
_ZN7Iex_3_19EagainExcC1ERKNSt3__112basic_stringIcNS1_11char_traitsIcEENS1_9allocatorIcEEEE
_ZN7Iex_3_19EagainExcC1ERKS0_
_ZN7Iex_3_19EagainExcC1ERNSt3__118basic_stringstreamIcNS1_11char_traitsIcEENS1_9allocatorIcEEEE
_ZN7Iex_3_19EagainExcC1Ev
_ZN7Iex_3_19EagainExcC2EONSt3__112basic_stringIcNS1_11char_traitsIcEENS1_9allocatorIcEEEE
_ZN7Iex_3_19EagainExcC2EOS0_
_ZN7Iex_3_19EagainExcC2EPKc
_ZN7Iex_3_19EagainExcC2ERKNSt3__112basic_stringIcNS1_11char_traitsIcEENS1_9allocatorIcEEEE
_ZN7Iex_3_19EagainExcC2ERKS0_
_ZN7Iex_3_19EagainExcC2ERNSt3__118basic_stringstreamIcNS1_11char_traitsIcEENS1_9allocatorIcEEEE
_ZN7Iex_3_19EagainExcC2Ev
_ZN7Iex_3_19EagainExcD0Ev
_ZN7Iex_3_19EagainExcD1Ev
_ZN7Iex_3_19EagainExcD2Ev
_ZN7Iex_3_19EagainExcaSEOS0_
_ZN7Iex_3_19EagainExcaSERS0_
_ZN7Iex_3_19EbadfdExcC1EONSt3__112basic_stringIcNS1_11char_traitsIcEENS1_9allocatorIcEEEE
_ZN7Iex_3_19EbadfdExcC1EOS0_
_ZN7Iex_3_19EbadfdExcC1EPKc
_ZN7Iex_3_19EbadfdExcC1ERKNSt3__112basic_stringIcNS1_11char_traitsIcEENS1_9allocatorIcEEEE
_ZN7Iex_3_19EbadfdExcC1ERKS0_
_ZN7Iex_3_19EbadfdExcC1ERNSt3__118basic_stringstreamIcNS1_11char_traitsIcEENS1_9allocatorIcEEEE
_ZN7Iex_3_19EbadfdExcC1Ev
_ZN7Iex_3_19EbadfdExcC2EONSt3__112basic_stringIcNS1_11char_traitsIcEENS1_9allocatorIcEEEE
_ZN7Iex_3_19EbadfdExcC2EOS0_
_ZN7Iex_3_19EbadfdExcC2EPKc
_ZN7Iex_3_19EbadfdExcC2ERKNSt3__112basic_stringIcNS1_11char_traitsIcEENS1_9allocatorIcEEEE
_ZN7Iex_3_19EbadfdExcC2ERKS0_
_ZN7Iex_3_19EbadfdExcC2ERNSt3__118basic_stringstreamIcNS1_11char_traitsIcEENS1_9allocatorIcEEEE
_ZN7Iex_3_19EbadfdExcC2Ev
_ZN7Iex_3_19EbadfdExcD0Ev
_ZN7Iex_3_19EbadfdExcD1Ev
_ZN7Iex_3_19EbadfdExcD2Ev
_ZN7Iex_3_19EbadfdExcaSEOS0_
_ZN7Iex_3_19EbadfdExcaSERS0_
_ZN7Iex_3_19EbfontExcC1EONSt3__112basic_stringIcNS1_11char_traitsIcEENS1_9allocatorIcEEEE
_ZN7Iex_3_19EbfontExcC1EOS0_
_ZN7Iex_3_19EbfontExcC1EPKc
_ZN7Iex_3_19EbfontExcC1ERKNSt3__112basic_stringIcNS1_11char_traitsIcEENS1_9allocatorIcEEEE
_ZN7Iex_3_19EbfontExcC1ERKS0_
_ZN7Iex_3_19EbfontExcC1ERNSt3__118basic_stringstreamIcNS1_11char_traitsIcEENS1_9allocatorIcEEEE
_ZN7Iex_3_19EbfontExcC1Ev
_ZN7Iex_3_19EbfontExcC2EONSt3__112basic_stringIcNS1_11char_traitsIcEENS1_9allocatorIcEEEE
_ZN7Iex_3_19EbfontExcC2EOS0_
_ZN7Iex_3_19EbfontExcC2EPKc
_ZN7Iex_3_19EbfontExcC2ERKNSt3__112basic_stringIcNS1_11char_traitsIcEENS1_9allocatorIcEEEE
_ZN7Iex_3_19EbfontExcC2ERKS0_
_ZN7Iex_3_19EbfontExcC2ERNSt3__118basic_stringstreamIcNS1_11char_traitsIcEENS1_9allocatorIcEEEE
_ZN7Iex_3_19EbfontExcC2Ev
_ZN7Iex_3_19EbfontExcD0Ev
_ZN7Iex_3_19EbfontExcD1Ev
_ZN7Iex_3_19EbfontExcD2Ev
_ZN7Iex_3_19EbfontExcaSEOS0_
_ZN7Iex_3_19EbfontExcaSERS0_
_ZN7Iex_3_19EchildExcC1EONSt3__112basic_stringIcNS1_11char_traitsIcEENS1_9allocatorIcEEEE
_ZN7Iex_3_19EchildExcC1EOS0_
_ZN7Iex_3_19EchildExcC1EPKc
_ZN7Iex_3_19EchildExcC1ERKNSt3__112basic_stringIcNS1_11char_traitsIcEENS1_9allocatorIcEEEE
_ZN7Iex_3_19EchildExcC1ERKS0_
_ZN7Iex_3_19EchildExcC1ERNSt3__118basic_stringstreamIcNS1_11char_traitsIcEENS1_9allocatorIcEEEE
_ZN7Iex_3_19EchildExcC1Ev
_ZN7Iex_3_19EchildExcC2EONSt3__112basic_stringIcNS1_11char_traitsIcEENS1_9allocatorIcEEEE
_ZN7Iex_3_19EchildExcC2EOS0_
_ZN7Iex_3_19EchildExcC2EPKc
_ZN7Iex_3_19EchildExcC2ERKNSt3__112basic_stringIcNS1_11char_traitsIcEENS1_9allocatorIcEEEE
_ZN7Iex_3_19EchildExcC2ERKS0_
_ZN7Iex_3_19EchildExcC2ERNSt3__118basic_stringstreamIcNS1_11char_traitsIcEENS1_9allocatorIcEEEE
_ZN7Iex_3_19EchildExcC2Ev
_ZN7Iex_3_19EchildExcD0Ev
_ZN7Iex_3_19EchildExcD1Ev
_ZN7Iex_3_19EchildExcD2Ev
_ZN7Iex_3_19EchildExcaSEOS0_
_ZN7Iex_3_19EchildExcaSERS0_
_ZN7Iex_3_19EchrngExcC1EONSt3__112basic_stringIcNS1_11char_traitsIcEENS1_9allocatorIcEEEE
_ZN7Iex_3_19EchrngExcC1EOS0_
_ZN7Iex_3_19EchrngExcC1EPKc
_ZN7Iex_3_19EchrngExcC1ERKNSt3__112basic_stringIcNS1_11char_traitsIcEENS1_9allocatorIcEEEE
_ZN7Iex_3_19EchrngExcC1ERKS0_
_ZN7Iex_3_19EchrngExcC1ERNSt3__118basic_stringstreamIcNS1_11char_traitsIcEENS1_9allocatorIcEEEE
_ZN7Iex_3_19EchrngExcC1Ev
_ZN7Iex_3_19EchrngExcC2EONSt3__112basic_stringIcNS1_11char_traitsIcEENS1_9allocatorIcEEEE
_ZN7Iex_3_19EchrngExcC2EOS0_
_ZN7Iex_3_19EchrngExcC2EPKc
_ZN7Iex_3_19EchrngExcC2ERKNSt3__112basic_stringIcNS1_11char_traitsIcEENS1_9allocatorIcEEEE
_ZN7Iex_3_19EchrngExcC2ERKS0_
_ZN7Iex_3_19EchrngExcC2ERNSt3__118basic_stringstreamIcNS1_11char_traitsIcEENS1_9allocatorIcEEEE
_ZN7Iex_3_19EchrngExcC2Ev
_ZN7Iex_3_19EchrngExcD0Ev
_ZN7Iex_3_19EchrngExcD1Ev
_ZN7Iex_3_19EchrngExcD2Ev
_ZN7Iex_3_19EchrngExcaSEOS0_
_ZN7Iex_3_19EchrngExcaSERS0_
_ZN7Iex_3_19EdquotExcC1EONSt3__112basic_stringIcNS1_11char_traitsIcEENS1_9allocatorIcEEEE
_ZN7Iex_3_19EdquotExcC1EOS0_
_ZN7Iex_3_19EdquotExcC1EPKc
_ZN7Iex_3_19EdquotExcC1ERKNSt3__112basic_stringIcNS1_11char_traitsIcEENS1_9allocatorIcEEEE
_ZN7Iex_3_19EdquotExcC1ERKS0_
_ZN7Iex_3_19EdquotExcC1ERNSt3__118basic_stringstreamIcNS1_11char_traitsIcEENS1_9allocatorIcEEEE
_ZN7Iex_3_19EdquotExcC1Ev
_ZN7Iex_3_19EdquotExcC2EONSt3__112basic_stringIcNS1_11char_traitsIcEENS1_9allocatorIcEEEE
_ZN7Iex_3_19EdquotExcC2EOS0_
_ZN7Iex_3_19EdquotExcC2EPKc
_ZN7Iex_3_19EdquotExcC2ERKNSt3__112basic_stringIcNS1_11char_traitsIcEENS1_9allocatorIcEEEE
_ZN7Iex_3_19EdquotExcC2ERKS0_
_ZN7Iex_3_19EdquotExcC2ERNSt3__118basic_stringstreamIcNS1_11char_traitsIcEENS1_9allocatorIcEEEE
_ZN7Iex_3_19EdquotExcC2Ev
_ZN7Iex_3_19EdquotExcD0Ev
_ZN7Iex_3_19EdquotExcD1Ev
_ZN7Iex_3_19EdquotExcD2Ev
_ZN7Iex_3_19EdquotExcaSEOS0_
_ZN7Iex_3_19EdquotExcaSERS0_
_ZN7Iex_3_19EemptyExcC1EONSt3__112basic_stringIcNS1_11char_traitsIcEENS1_9allocatorIcEEEE
_ZN7Iex_3_19EemptyExcC1EOS0_
_ZN7Iex_3_19EemptyExcC1EPKc
_ZN7Iex_3_19EemptyExcC1ERKNSt3__112basic_stringIcNS1_11char_traitsIcEENS1_9allocatorIcEEEE
_ZN7Iex_3_19EemptyExcC1ERKS0_
_ZN7Iex_3_19EemptyExcC1ERNSt3__118basic_stringstreamIcNS1_11char_traitsIcEENS1_9allocatorIcEEEE
_ZN7Iex_3_19EemptyExcC1Ev
_ZN7Iex_3_19EemptyExcC2EONSt3__112basic_stringIcNS1_11char_traitsIcEENS1_9allocatorIcEEEE
_ZN7Iex_3_19EemptyExcC2EOS0_
_ZN7Iex_3_19EemptyExcC2EPKc
_ZN7Iex_3_19EemptyExcC2ERKNSt3__112basic_stringIcNS1_11char_traitsIcEENS1_9allocatorIcEEEE
_ZN7Iex_3_19EemptyExcC2ERKS0_
_ZN7Iex_3_19EemptyExcC2ERNSt3__118basic_stringstreamIcNS1_11char_traitsIcEENS1_9allocatorIcEEEE
_ZN7Iex_3_19EemptyExcC2Ev
_ZN7Iex_3_19EemptyExcD0Ev
_ZN7Iex_3_19EemptyExcD1Ev
_ZN7Iex_3_19EemptyExcD2Ev
_ZN7Iex_3_19EemptyExcaSEOS0_
_ZN7Iex_3_19EemptyExcaSERS0_
_ZN7Iex_3_19EexistExcC1EONSt3__112basic_stringIcNS1_11char_traitsIcEENS1_9allocatorIcEEEE
_ZN7Iex_3_19EexistExcC1EOS0_
_ZN7Iex_3_19EexistExcC1EPKc
_ZN7Iex_3_19EexistExcC1ERKNSt3__112basic_stringIcNS1_11char_traitsIcEENS1_9allocatorIcEEEE
_ZN7Iex_3_19EexistExcC1ERKS0_
_ZN7Iex_3_19EexistExcC1ERNSt3__118basic_stringstreamIcNS1_11char_traitsIcEENS1_9allocatorIcEEEE
_ZN7Iex_3_19EexistExcC1Ev
_ZN7Iex_3_19EexistExcC2EONSt3__112basic_stringIcNS1_11char_traitsIcEENS1_9allocatorIcEEEE
_ZN7Iex_3_19EexistExcC2EOS0_
_ZN7Iex_3_19EexistExcC2EPKc
_ZN7Iex_3_19EexistExcC2ERKNSt3__112basic_stringIcNS1_11char_traitsIcEENS1_9allocatorIcEEEE
_ZN7Iex_3_19EexistExcC2ERKS0_
_ZN7Iex_3_19EexistExcC2ERNSt3__118basic_stringstreamIcNS1_11char_traitsIcEENS1_9allocatorIcEEEE
_ZN7Iex_3_19EexistExcC2Ev
_ZN7Iex_3_19EexistExcD0Ev
_ZN7Iex_3_19EexistExcD1Ev
_ZN7Iex_3_19EexistExcD2Ev
_ZN7Iex_3_19EexistExcaSEOS0_
_ZN7Iex_3_19EexistExcaSERS0_
_ZN7Iex_3_19EfaultExcC1EONSt3__112basic_stringIcNS1_11char_traitsIcEENS1_9allocatorIcEEEE
_ZN7Iex_3_19EfaultExcC1EOS0_
_ZN7Iex_3_19EfaultExcC1EPKc
_ZN7Iex_3_19EfaultExcC1ERKNSt3__112basic_stringIcNS1_11char_traitsIcEENS1_9allocatorIcEEEE
_ZN7Iex_3_19EfaultExcC1ERKS0_
_ZN7Iex_3_19EfaultExcC1ERNSt3__118basic_stringstreamIcNS1_11char_traitsIcEENS1_9allocatorIcEEEE
_ZN7Iex_3_19EfaultExcC1Ev
_ZN7Iex_3_19EfaultExcC2EONSt3__112basic_stringIcNS1_11char_traitsIcEENS1_9allocatorIcEEEE
_ZN7Iex_3_19EfaultExcC2EOS0_
_ZN7Iex_3_19EfaultExcC2EPKc
_ZN7Iex_3_19EfaultExcC2ERKNSt3__112basic_stringIcNS1_11char_traitsIcEENS1_9allocatorIcEEEE
_ZN7Iex_3_19EfaultExcC2ERKS0_
_ZN7Iex_3_19EfaultExcC2ERNSt3__118basic_stringstreamIcNS1_11char_traitsIcEENS1_9allocatorIcEEEE
_ZN7Iex_3_19EfaultExcC2Ev
_ZN7Iex_3_19EfaultExcD0Ev
_ZN7Iex_3_19EfaultExcD1Ev
_ZN7Iex_3_19EfaultExcD2Ev
_ZN7Iex_3_19EfaultExcaSEOS0_
_ZN7Iex_3_19EfaultExcaSERS0_
_ZN7Iex_3_19EilseqExcC1EONSt3__112basic_stringIcNS1_11char_traitsIcEENS1_9allocatorIcEEEE
_ZN7Iex_3_19EilseqExcC1EOS0_
_ZN7Iex_3_19EilseqExcC1EPKc
_ZN7Iex_3_19EilseqExcC1ERKNSt3__112basic_stringIcNS1_11char_traitsIcEENS1_9allocatorIcEEEE
_ZN7Iex_3_19EilseqExcC1ERKS0_
_ZN7Iex_3_19EilseqExcC1ERNSt3__118basic_stringstreamIcNS1_11char_traitsIcEENS1_9allocatorIcEEEE
_ZN7Iex_3_19EilseqExcC1Ev
_ZN7Iex_3_19EilseqExcC2EONSt3__112basic_stringIcNS1_11char_traitsIcEENS1_9allocatorIcEEEE
_ZN7Iex_3_19EilseqExcC2EOS0_
_ZN7Iex_3_19EilseqExcC2EPKc
_ZN7Iex_3_19EilseqExcC2ERKNSt3__112basic_stringIcNS1_11char_traitsIcEENS1_9allocatorIcEEEE
_ZN7Iex_3_19EilseqExcC2ERKS0_
_ZN7Iex_3_19EilseqExcC2ERNSt3__118basic_stringstreamIcNS1_11char_traitsIcEENS1_9allocatorIcEEEE
_ZN7Iex_3_19EilseqExcC2Ev
_ZN7Iex_3_19EilseqExcD0Ev
_ZN7Iex_3_19EilseqExcD1Ev
_ZN7Iex_3_19EilseqExcD2Ev
_ZN7Iex_3_19EilseqExcaSEOS0_
_ZN7Iex_3_19EilseqExcaSERS0_
_ZN7Iex_3_19EinvalExcC1EONSt3__112basic_stringIcNS1_11char_traitsIcEENS1_9allocatorIcEEEE
_ZN7Iex_3_19EinvalExcC1EOS0_
_ZN7Iex_3_19EinvalExcC1EPKc
_ZN7Iex_3_19EinvalExcC1ERKNSt3__112basic_stringIcNS1_11char_traitsIcEENS1_9allocatorIcEEEE
_ZN7Iex_3_19EinvalExcC1ERKS0_
_ZN7Iex_3_19EinvalExcC1ERNSt3__118basic_stringstreamIcNS1_11char_traitsIcEENS1_9allocatorIcEEEE
_ZN7Iex_3_19EinvalExcC1Ev
_ZN7Iex_3_19EinvalExcC2EONSt3__112basic_stringIcNS1_11char_traitsIcEENS1_9allocatorIcEEEE
_ZN7Iex_3_19EinvalExcC2EOS0_
_ZN7Iex_3_19EinvalExcC2EPKc
_ZN7Iex_3_19EinvalExcC2ERKNSt3__112basic_stringIcNS1_11char_traitsIcEENS1_9allocatorIcEEEE
_ZN7Iex_3_19EinvalExcC2ERKS0_
_ZN7Iex_3_19EinvalExcC2ERNSt3__118basic_stringstreamIcNS1_11char_traitsIcEENS1_9allocatorIcEEEE
_ZN7Iex_3_19EinvalExcC2Ev
_ZN7Iex_3_19EinvalExcD0Ev
_ZN7Iex_3_19EinvalExcD1Ev
_ZN7Iex_3_19EinvalExcD2Ev
_ZN7Iex_3_19EinvalExcaSEOS0_
_ZN7Iex_3_19EinvalExcaSERS0_
_ZN7Iex_3_19EisdirExcC1EONSt3__112basic_stringIcNS1_11char_traitsIcEENS1_9allocatorIcEEEE
_ZN7Iex_3_19EisdirExcC1EOS0_
_ZN7Iex_3_19EisdirExcC1EPKc
_ZN7Iex_3_19EisdirExcC1ERKNSt3__112basic_stringIcNS1_11char_traitsIcEENS1_9allocatorIcEEEE
_ZN7Iex_3_19EisdirExcC1ERKS0_
_ZN7Iex_3_19EisdirExcC1ERNSt3__118basic_stringstreamIcNS1_11char_traitsIcEENS1_9allocatorIcEEEE
_ZN7Iex_3_19EisdirExcC1Ev
_ZN7Iex_3_19EisdirExcC2EONSt3__112basic_stringIcNS1_11char_traitsIcEENS1_9allocatorIcEEEE
_ZN7Iex_3_19EisdirExcC2EOS0_
_ZN7Iex_3_19EisdirExcC2EPKc
_ZN7Iex_3_19EisdirExcC2ERKNSt3__112basic_stringIcNS1_11char_traitsIcEENS1_9allocatorIcEEEE
_ZN7Iex_3_19EisdirExcC2ERKS0_
_ZN7Iex_3_19EisdirExcC2ERNSt3__118basic_stringstreamIcNS1_11char_traitsIcEENS1_9allocatorIcEEEE
_ZN7Iex_3_19EisdirExcC2Ev
_ZN7Iex_3_19EisdirExcD0Ev
_ZN7Iex_3_19EisdirExcD1Ev
_ZN7Iex_3_19EisdirExcD2Ev
_ZN7Iex_3_19EisdirExcaSEOS0_
_ZN7Iex_3_19EisdirExcaSERS0_
_ZN7Iex_3_19EisnamExcC1EONSt3__112basic_stringIcNS1_11char_traitsIcEENS1_9allocatorIcEEEE
_ZN7Iex_3_19EisnamExcC1EOS0_
_ZN7Iex_3_19EisnamExcC1EPKc
_ZN7Iex_3_19EisnamExcC1ERKNSt3__112basic_stringIcNS1_11char_traitsIcEENS1_9allocatorIcEEEE
_ZN7Iex_3_19EisnamExcC1ERKS0_
_ZN7Iex_3_19EisnamExcC1ERNSt3__118basic_stringstreamIcNS1_11char_traitsIcEENS1_9allocatorIcEEEE
_ZN7Iex_3_19EisnamExcC1Ev
_ZN7Iex_3_19EisnamExcC2EONSt3__112basic_stringIcNS1_11char_traitsIcEENS1_9allocatorIcEEEE
_ZN7Iex_3_19EisnamExcC2EOS0_
_ZN7Iex_3_19EisnamExcC2EPKc
_ZN7Iex_3_19EisnamExcC2ERKNSt3__112basic_stringIcNS1_11char_traitsIcEENS1_9allocatorIcEEEE
_ZN7Iex_3_19EisnamExcC2ERKS0_
_ZN7Iex_3_19EisnamExcC2ERNSt3__118basic_stringstreamIcNS1_11char_traitsIcEENS1_9allocatorIcEEEE
_ZN7Iex_3_19EisnamExcC2Ev
_ZN7Iex_3_19EisnamExcD0Ev
_ZN7Iex_3_19EisnamExcD1Ev
_ZN7Iex_3_19EisnamExcD2Ev
_ZN7Iex_3_19EisnamExcaSEOS0_
_ZN7Iex_3_19EisnamExcaSERS0_
_ZN7Iex_3_19El2hltExcC1EONSt3__112basic_stringIcNS1_11char_traitsIcEENS1_9allocatorIcEEEE
_ZN7Iex_3_19El2hltExcC1EOS0_
_ZN7Iex_3_19El2hltExcC1EPKc
_ZN7Iex_3_19El2hltExcC1ERKNSt3__112basic_stringIcNS1_11char_traitsIcEENS1_9allocatorIcEEEE
_ZN7Iex_3_19El2hltExcC1ERKS0_
_ZN7Iex_3_19El2hltExcC1ERNSt3__118basic_stringstreamIcNS1_11char_traitsIcEENS1_9allocatorIcEEEE
_ZN7Iex_3_19El2hltExcC1Ev
_ZN7Iex_3_19El2hltExcC2EONSt3__112basic_stringIcNS1_11char_traitsIcEENS1_9allocatorIcEEEE
_ZN7Iex_3_19El2hltExcC2EOS0_
_ZN7Iex_3_19El2hltExcC2EPKc
_ZN7Iex_3_19El2hltExcC2ERKNSt3__112basic_stringIcNS1_11char_traitsIcEENS1_9allocatorIcEEEE
_ZN7Iex_3_19El2hltExcC2ERKS0_
_ZN7Iex_3_19El2hltExcC2ERNSt3__118basic_stringstreamIcNS1_11char_traitsIcEENS1_9allocatorIcEEEE
_ZN7Iex_3_19El2hltExcC2Ev
_ZN7Iex_3_19El2hltExcD0Ev
_ZN7Iex_3_19El2hltExcD1Ev
_ZN7Iex_3_19El2hltExcD2Ev
_ZN7Iex_3_19El2hltExcaSEOS0_
_ZN7Iex_3_19El2hltExcaSERS0_
_ZN7Iex_3_19El3hltExcC1EONSt3__112basic_stringIcNS1_11char_traitsIcEENS1_9allocatorIcEEEE
_ZN7Iex_3_19El3hltExcC1EOS0_
_ZN7Iex_3_19El3hltExcC1EPKc
_ZN7Iex_3_19El3hltExcC1ERKNSt3__112basic_stringIcNS1_11char_traitsIcEENS1_9allocatorIcEEEE
_ZN7Iex_3_19El3hltExcC1ERKS0_
_ZN7Iex_3_19El3hltExcC1ERNSt3__118basic_stringstreamIcNS1_11char_traitsIcEENS1_9allocatorIcEEEE
_ZN7Iex_3_19El3hltExcC1Ev
_ZN7Iex_3_19El3hltExcC2EONSt3__112basic_stringIcNS1_11char_traitsIcEENS1_9allocatorIcEEEE
_ZN7Iex_3_19El3hltExcC2EOS0_
_ZN7Iex_3_19El3hltExcC2EPKc
_ZN7Iex_3_19El3hltExcC2ERKNSt3__112basic_stringIcNS1_11char_traitsIcEENS1_9allocatorIcEEEE
_ZN7Iex_3_19El3hltExcC2ERKS0_
_ZN7Iex_3_19El3hltExcC2ERNSt3__118basic_stringstreamIcNS1_11char_traitsIcEENS1_9allocatorIcEEEE
_ZN7Iex_3_19El3hltExcC2Ev
_ZN7Iex_3_19El3hltExcD0Ev
_ZN7Iex_3_19El3hltExcD1Ev
_ZN7Iex_3_19El3hltExcD2Ev
_ZN7Iex_3_19El3hltExcaSEOS0_
_ZN7Iex_3_19El3hltExcaSERS0_
_ZN7Iex_3_19El3rstExcC1EONSt3__112basic_stringIcNS1_11char_traitsIcEENS1_9allocatorIcEEEE
_ZN7Iex_3_19El3rstExcC1EOS0_
_ZN7Iex_3_19El3rstExcC1EPKc
_ZN7Iex_3_19El3rstExcC1ERKNSt3__112basic_stringIcNS1_11char_traitsIcEENS1_9allocatorIcEEEE
_ZN7Iex_3_19El3rstExcC1ERKS0_
_ZN7Iex_3_19El3rstExcC1ERNSt3__118basic_stringstreamIcNS1_11char_traitsIcEENS1_9allocatorIcEEEE
_ZN7Iex_3_19El3rstExcC1Ev
_ZN7Iex_3_19El3rstExcC2EONSt3__112basic_stringIcNS1_11char_traitsIcEENS1_9allocatorIcEEEE
_ZN7Iex_3_19El3rstExcC2EOS0_
_ZN7Iex_3_19El3rstExcC2EPKc
_ZN7Iex_3_19El3rstExcC2ERKNSt3__112basic_stringIcNS1_11char_traitsIcEENS1_9allocatorIcEEEE
_ZN7Iex_3_19El3rstExcC2ERKS0_
_ZN7Iex_3_19El3rstExcC2ERNSt3__118basic_stringstreamIcNS1_11char_traitsIcEENS1_9allocatorIcEEEE
_ZN7Iex_3_19El3rstExcC2Ev
_ZN7Iex_3_19El3rstExcD0Ev
_ZN7Iex_3_19El3rstExcD1Ev
_ZN7Iex_3_19El3rstExcD2Ev
_ZN7Iex_3_19El3rstExcaSEOS0_
_ZN7Iex_3_19El3rstExcaSERS0_
_ZN7Iex_3_19ElnrngExcC1EONSt3__112basic_stringIcNS1_11char_traitsIcEENS1_9allocatorIcEEEE
_ZN7Iex_3_19ElnrngExcC1EOS0_
_ZN7Iex_3_19ElnrngExcC1EPKc
_ZN7Iex_3_19ElnrngExcC1ERKNSt3__112basic_stringIcNS1_11char_traitsIcEENS1_9allocatorIcEEEE
_ZN7Iex_3_19ElnrngExcC1ERKS0_
_ZN7Iex_3_19ElnrngExcC1ERNSt3__118basic_stringstreamIcNS1_11char_traitsIcEENS1_9allocatorIcEEEE
_ZN7Iex_3_19ElnrngExcC1Ev
_ZN7Iex_3_19ElnrngExcC2EONSt3__112basic_stringIcNS1_11char_traitsIcEENS1_9allocatorIcEEEE
_ZN7Iex_3_19ElnrngExcC2EOS0_
_ZN7Iex_3_19ElnrngExcC2EPKc
_ZN7Iex_3_19ElnrngExcC2ERKNSt3__112basic_stringIcNS1_11char_traitsIcEENS1_9allocatorIcEEEE
_ZN7Iex_3_19ElnrngExcC2ERKS0_
_ZN7Iex_3_19ElnrngExcC2ERNSt3__118basic_stringstreamIcNS1_11char_traitsIcEENS1_9allocatorIcEEEE
_ZN7Iex_3_19ElnrngExcC2Ev
_ZN7Iex_3_19ElnrngExcD0Ev
_ZN7Iex_3_19ElnrngExcD1Ev
_ZN7Iex_3_19ElnrngExcD2Ev
_ZN7Iex_3_19ElnrngExcaSEOS0_
_ZN7Iex_3_19ElnrngExcaSERS0_
_ZN7Iex_3_19EmfileExcC1EONSt3__112basic_stringIcNS1_11char_traitsIcEENS1_9allocatorIcEEEE
_ZN7Iex_3_19EmfileExcC1EOS0_
_ZN7Iex_3_19EmfileExcC1EPKc
_ZN7Iex_3_19EmfileExcC1ERKNSt3__112basic_stringIcNS1_11char_traitsIcEENS1_9allocatorIcEEEE
_ZN7Iex_3_19EmfileExcC1ERKS0_
_ZN7Iex_3_19EmfileExcC1ERNSt3__118basic_stringstreamIcNS1_11char_traitsIcEENS1_9allocatorIcEEEE
_ZN7Iex_3_19EmfileExcC1Ev
_ZN7Iex_3_19EmfileExcC2EONSt3__112basic_stringIcNS1_11char_traitsIcEENS1_9allocatorIcEEEE
_ZN7Iex_3_19EmfileExcC2EOS0_
_ZN7Iex_3_19EmfileExcC2EPKc
_ZN7Iex_3_19EmfileExcC2ERKNSt3__112basic_stringIcNS1_11char_traitsIcEENS1_9allocatorIcEEEE
_ZN7Iex_3_19EmfileExcC2ERKS0_
_ZN7Iex_3_19EmfileExcC2ERNSt3__118basic_stringstreamIcNS1_11char_traitsIcEENS1_9allocatorIcEEEE
_ZN7Iex_3_19EmfileExcC2Ev
_ZN7Iex_3_19EmfileExcD0Ev
_ZN7Iex_3_19EmfileExcD1Ev
_ZN7Iex_3_19EmfileExcD2Ev
_ZN7Iex_3_19EmfileExcaSEOS0_
_ZN7Iex_3_19EmfileExcaSERS0_
_ZN7Iex_3_19EmlinkExcC1EONSt3__112basic_stringIcNS1_11char_traitsIcEENS1_9allocatorIcEEEE
_ZN7Iex_3_19EmlinkExcC1EOS0_
_ZN7Iex_3_19EmlinkExcC1EPKc
_ZN7Iex_3_19EmlinkExcC1ERKNSt3__112basic_stringIcNS1_11char_traitsIcEENS1_9allocatorIcEEEE
_ZN7Iex_3_19EmlinkExcC1ERKS0_
_ZN7Iex_3_19EmlinkExcC1ERNSt3__118basic_stringstreamIcNS1_11char_traitsIcEENS1_9allocatorIcEEEE
_ZN7Iex_3_19EmlinkExcC1Ev
_ZN7Iex_3_19EmlinkExcC2EONSt3__112basic_stringIcNS1_11char_traitsIcEENS1_9allocatorIcEEEE
_ZN7Iex_3_19EmlinkExcC2EOS0_
_ZN7Iex_3_19EmlinkExcC2EPKc
_ZN7Iex_3_19EmlinkExcC2ERKNSt3__112basic_stringIcNS1_11char_traitsIcEENS1_9allocatorIcEEEE
_ZN7Iex_3_19EmlinkExcC2ERKS0_
_ZN7Iex_3_19EmlinkExcC2ERNSt3__118basic_stringstreamIcNS1_11char_traitsIcEENS1_9allocatorIcEEEE
_ZN7Iex_3_19EmlinkExcC2Ev
_ZN7Iex_3_19EmlinkExcD0Ev
_ZN7Iex_3_19EmlinkExcD1Ev
_ZN7Iex_3_19EmlinkExcD2Ev
_ZN7Iex_3_19EmlinkExcaSEOS0_
_ZN7Iex_3_19EmlinkExcaSERS0_
_ZN7Iex_3_19EnfileExcC1EONSt3__112basic_stringIcNS1_11char_traitsIcEENS1_9allocatorIcEEEE
_ZN7Iex_3_19EnfileExcC1EOS0_
_ZN7Iex_3_19EnfileExcC1EPKc
_ZN7Iex_3_19EnfileExcC1ERKNSt3__112basic_stringIcNS1_11char_traitsIcEENS1_9allocatorIcEEEE
_ZN7Iex_3_19EnfileExcC1ERKS0_
_ZN7Iex_3_19EnfileExcC1ERNSt3__118basic_stringstreamIcNS1_11char_traitsIcEENS1_9allocatorIcEEEE
_ZN7Iex_3_19EnfileExcC1Ev
_ZN7Iex_3_19EnfileExcC2EONSt3__112basic_stringIcNS1_11char_traitsIcEENS1_9allocatorIcEEEE
_ZN7Iex_3_19EnfileExcC2EOS0_
_ZN7Iex_3_19EnfileExcC2EPKc
_ZN7Iex_3_19EnfileExcC2ERKNSt3__112basic_stringIcNS1_11char_traitsIcEENS1_9allocatorIcEEEE
_ZN7Iex_3_19EnfileExcC2ERKS0_
_ZN7Iex_3_19EnfileExcC2ERNSt3__118basic_stringstreamIcNS1_11char_traitsIcEENS1_9allocatorIcEEEE
_ZN7Iex_3_19EnfileExcC2Ev
_ZN7Iex_3_19EnfileExcD0Ev
_ZN7Iex_3_19EnfileExcD1Ev
_ZN7Iex_3_19EnfileExcD2Ev
_ZN7Iex_3_19EnfileExcaSEOS0_
_ZN7Iex_3_19EnfileExcaSERS0_
_ZN7Iex_3_19EnoanoExcC1EONSt3__112basic_stringIcNS1_11char_traitsIcEENS1_9allocatorIcEEEE
_ZN7Iex_3_19EnoanoExcC1EOS0_
_ZN7Iex_3_19EnoanoExcC1EPKc
_ZN7Iex_3_19EnoanoExcC1ERKNSt3__112basic_stringIcNS1_11char_traitsIcEENS1_9allocatorIcEEEE
_ZN7Iex_3_19EnoanoExcC1ERKS0_
_ZN7Iex_3_19EnoanoExcC1ERNSt3__118basic_stringstreamIcNS1_11char_traitsIcEENS1_9allocatorIcEEEE
_ZN7Iex_3_19EnoanoExcC1Ev
_ZN7Iex_3_19EnoanoExcC2EONSt3__112basic_stringIcNS1_11char_traitsIcEENS1_9allocatorIcEEEE
_ZN7Iex_3_19EnoanoExcC2EOS0_
_ZN7Iex_3_19EnoanoExcC2EPKc
_ZN7Iex_3_19EnoanoExcC2ERKNSt3__112basic_stringIcNS1_11char_traitsIcEENS1_9allocatorIcEEEE
_ZN7Iex_3_19EnoanoExcC2ERKS0_
_ZN7Iex_3_19EnoanoExcC2ERNSt3__118basic_stringstreamIcNS1_11char_traitsIcEENS1_9allocatorIcEEEE
_ZN7Iex_3_19EnoanoExcC2Ev
_ZN7Iex_3_19EnoanoExcD0Ev
_ZN7Iex_3_19EnoanoExcD1Ev
_ZN7Iex_3_19EnoanoExcD2Ev
_ZN7Iex_3_19EnoanoExcaSEOS0_
_ZN7Iex_3_19EnoanoExcaSERS0_
_ZN7Iex_3_19EnocsiExcC1EONSt3__112basic_stringIcNS1_11char_traitsIcEENS1_9allocatorIcEEEE
_ZN7Iex_3_19EnocsiExcC1EOS0_
_ZN7Iex_3_19EnocsiExcC1EPKc
_ZN7Iex_3_19EnocsiExcC1ERKNSt3__112basic_stringIcNS1_11char_traitsIcEENS1_9allocatorIcEEEE
_ZN7Iex_3_19EnocsiExcC1ERKS0_
_ZN7Iex_3_19EnocsiExcC1ERNSt3__118basic_stringstreamIcNS1_11char_traitsIcEENS1_9allocatorIcEEEE
_ZN7Iex_3_19EnocsiExcC1Ev
_ZN7Iex_3_19EnocsiExcC2EONSt3__112basic_stringIcNS1_11char_traitsIcEENS1_9allocatorIcEEEE
_ZN7Iex_3_19EnocsiExcC2EOS0_
_ZN7Iex_3_19EnocsiExcC2EPKc
_ZN7Iex_3_19EnocsiExcC2ERKNSt3__112basic_stringIcNS1_11char_traitsIcEENS1_9allocatorIcEEEE
_ZN7Iex_3_19EnocsiExcC2ERKS0_
_ZN7Iex_3_19EnocsiExcC2ERNSt3__118basic_stringstreamIcNS1_11char_traitsIcEENS1_9allocatorIcEEEE
_ZN7Iex_3_19EnocsiExcC2Ev
_ZN7Iex_3_19EnocsiExcD0Ev
_ZN7Iex_3_19EnocsiExcD1Ev
_ZN7Iex_3_19EnocsiExcD2Ev
_ZN7Iex_3_19EnocsiExcaSEOS0_
_ZN7Iex_3_19EnocsiExcaSERS0_
_ZN7Iex_3_19EnodevExcC1EONSt3__112basic_stringIcNS1_11char_traitsIcEENS1_9allocatorIcEEEE
_ZN7Iex_3_19EnodevExcC1EOS0_
_ZN7Iex_3_19EnodevExcC1EPKc
_ZN7Iex_3_19EnodevExcC1ERKNSt3__112basic_stringIcNS1_11char_traitsIcEENS1_9allocatorIcEEEE
_ZN7Iex_3_19EnodevExcC1ERKS0_
_ZN7Iex_3_19EnodevExcC1ERNSt3__118basic_stringstreamIcNS1_11char_traitsIcEENS1_9allocatorIcEEEE
_ZN7Iex_3_19EnodevExcC1Ev
_ZN7Iex_3_19EnodevExcC2EONSt3__112basic_stringIcNS1_11char_traitsIcEENS1_9allocatorIcEEEE
_ZN7Iex_3_19EnodevExcC2EOS0_
_ZN7Iex_3_19EnodevExcC2EPKc
_ZN7Iex_3_19EnodevExcC2ERKNSt3__112basic_stringIcNS1_11char_traitsIcEENS1_9allocatorIcEEEE
_ZN7Iex_3_19EnodevExcC2ERKS0_
_ZN7Iex_3_19EnodevExcC2ERNSt3__118basic_stringstreamIcNS1_11char_traitsIcEENS1_9allocatorIcEEEE
_ZN7Iex_3_19EnodevExcC2Ev
_ZN7Iex_3_19EnodevExcD0Ev
_ZN7Iex_3_19EnodevExcD1Ev
_ZN7Iex_3_19EnodevExcD2Ev
_ZN7Iex_3_19EnodevExcaSEOS0_
_ZN7Iex_3_19EnodevExcaSERS0_
_ZN7Iex_3_19EnoentExcC1EONSt3__112basic_stringIcNS1_11char_traitsIcEENS1_9allocatorIcEEEE
_ZN7Iex_3_19EnoentExcC1EOS0_
_ZN7Iex_3_19EnoentExcC1EPKc
_ZN7Iex_3_19EnoentExcC1ERKNSt3__112basic_stringIcNS1_11char_traitsIcEENS1_9allocatorIcEEEE
_ZN7Iex_3_19EnoentExcC1ERKS0_
_ZN7Iex_3_19EnoentExcC1ERNSt3__118basic_stringstreamIcNS1_11char_traitsIcEENS1_9allocatorIcEEEE
_ZN7Iex_3_19EnoentExcC1Ev
_ZN7Iex_3_19EnoentExcC2EONSt3__112basic_stringIcNS1_11char_traitsIcEENS1_9allocatorIcEEEE
_ZN7Iex_3_19EnoentExcC2EOS0_
_ZN7Iex_3_19EnoentExcC2EPKc
_ZN7Iex_3_19EnoentExcC2ERKNSt3__112basic_stringIcNS1_11char_traitsIcEENS1_9allocatorIcEEEE
_ZN7Iex_3_19EnoentExcC2ERKS0_
_ZN7Iex_3_19EnoentExcC2ERNSt3__118basic_stringstreamIcNS1_11char_traitsIcEENS1_9allocatorIcEEEE
_ZN7Iex_3_19EnoentExcC2Ev
_ZN7Iex_3_19EnoentExcD0Ev
_ZN7Iex_3_19EnoentExcD1Ev
_ZN7Iex_3_19EnoentExcD2Ev
_ZN7Iex_3_19EnoentExcaSEOS0_
_ZN7Iex_3_19EnoentExcaSERS0_
_ZN7Iex_3_19EnolckExcC1EONSt3__112basic_stringIcNS1_11char_traitsIcEENS1_9allocatorIcEEEE
_ZN7Iex_3_19EnolckExcC1EOS0_
_ZN7Iex_3_19EnolckExcC1EPKc
_ZN7Iex_3_19EnolckExcC1ERKNSt3__112basic_stringIcNS1_11char_traitsIcEENS1_9allocatorIcEEEE
_ZN7Iex_3_19EnolckExcC1ERKS0_
_ZN7Iex_3_19EnolckExcC1ERNSt3__118basic_stringstreamIcNS1_11char_traitsIcEENS1_9allocatorIcEEEE
_ZN7Iex_3_19EnolckExcC1Ev
_ZN7Iex_3_19EnolckExcC2EONSt3__112basic_stringIcNS1_11char_traitsIcEENS1_9allocatorIcEEEE
_ZN7Iex_3_19EnolckExcC2EOS0_
_ZN7Iex_3_19EnolckExcC2EPKc
_ZN7Iex_3_19EnolckExcC2ERKNSt3__112basic_stringIcNS1_11char_traitsIcEENS1_9allocatorIcEEEE
_ZN7Iex_3_19EnolckExcC2ERKS0_
_ZN7Iex_3_19EnolckExcC2ERNSt3__118basic_stringstreamIcNS1_11char_traitsIcEENS1_9allocatorIcEEEE
_ZN7Iex_3_19EnolckExcC2Ev
_ZN7Iex_3_19EnolckExcD0Ev
_ZN7Iex_3_19EnolckExcD1Ev
_ZN7Iex_3_19EnolckExcD2Ev
_ZN7Iex_3_19EnolckExcaSEOS0_
_ZN7Iex_3_19EnolckExcaSERS0_
_ZN7Iex_3_19EnomemExcC1EONSt3__112basic_stringIcNS1_11char_traitsIcEENS1_9allocatorIcEEEE
_ZN7Iex_3_19EnomemExcC1EOS0_
_ZN7Iex_3_19EnomemExcC1EPKc
_ZN7Iex_3_19EnomemExcC1ERKNSt3__112basic_stringIcNS1_11char_traitsIcEENS1_9allocatorIcEEEE
_ZN7Iex_3_19EnomemExcC1ERKS0_
_ZN7Iex_3_19EnomemExcC1ERNSt3__118basic_stringstreamIcNS1_11char_traitsIcEENS1_9allocatorIcEEEE
_ZN7Iex_3_19EnomemExcC1Ev
_ZN7Iex_3_19EnomemExcC2EONSt3__112basic_stringIcNS1_11char_traitsIcEENS1_9allocatorIcEEEE
_ZN7Iex_3_19EnomemExcC2EOS0_
_ZN7Iex_3_19EnomemExcC2EPKc
_ZN7Iex_3_19EnomemExcC2ERKNSt3__112basic_stringIcNS1_11char_traitsIcEENS1_9allocatorIcEEEE
_ZN7Iex_3_19EnomemExcC2ERKS0_
_ZN7Iex_3_19EnomemExcC2ERNSt3__118basic_stringstreamIcNS1_11char_traitsIcEENS1_9allocatorIcEEEE
_ZN7Iex_3_19EnomemExcC2Ev
_ZN7Iex_3_19EnomemExcD0Ev
_ZN7Iex_3_19EnomemExcD1Ev
_ZN7Iex_3_19EnomemExcD2Ev
_ZN7Iex_3_19EnomemExcaSEOS0_
_ZN7Iex_3_19EnomemExcaSERS0_
_ZN7Iex_3_19EnomsgExcC1EONSt3__112basic_stringIcNS1_11char_traitsIcEENS1_9allocatorIcEEEE
_ZN7Iex_3_19EnomsgExcC1EOS0_
_ZN7Iex_3_19EnomsgExcC1EPKc
_ZN7Iex_3_19EnomsgExcC1ERKNSt3__112basic_stringIcNS1_11char_traitsIcEENS1_9allocatorIcEEEE
_ZN7Iex_3_19EnomsgExcC1ERKS0_
_ZN7Iex_3_19EnomsgExcC1ERNSt3__118basic_stringstreamIcNS1_11char_traitsIcEENS1_9allocatorIcEEEE
_ZN7Iex_3_19EnomsgExcC1Ev
_ZN7Iex_3_19EnomsgExcC2EONSt3__112basic_stringIcNS1_11char_traitsIcEENS1_9allocatorIcEEEE
_ZN7Iex_3_19EnomsgExcC2EOS0_
_ZN7Iex_3_19EnomsgExcC2EPKc
_ZN7Iex_3_19EnomsgExcC2ERKNSt3__112basic_stringIcNS1_11char_traitsIcEENS1_9allocatorIcEEEE
_ZN7Iex_3_19EnomsgExcC2ERKS0_
_ZN7Iex_3_19EnomsgExcC2ERNSt3__118basic_stringstreamIcNS1_11char_traitsIcEENS1_9allocatorIcEEEE
_ZN7Iex_3_19EnomsgExcC2Ev
_ZN7Iex_3_19EnomsgExcD0Ev
_ZN7Iex_3_19EnomsgExcD1Ev
_ZN7Iex_3_19EnomsgExcD2Ev
_ZN7Iex_3_19EnomsgExcaSEOS0_
_ZN7Iex_3_19EnomsgExcaSERS0_
_ZN7Iex_3_19EnonetExcC1EONSt3__112basic_stringIcNS1_11char_traitsIcEENS1_9allocatorIcEEEE
_ZN7Iex_3_19EnonetExcC1EOS0_
_ZN7Iex_3_19EnonetExcC1EPKc
_ZN7Iex_3_19EnonetExcC1ERKNSt3__112basic_stringIcNS1_11char_traitsIcEENS1_9allocatorIcEEEE
_ZN7Iex_3_19EnonetExcC1ERKS0_
_ZN7Iex_3_19EnonetExcC1ERNSt3__118basic_stringstreamIcNS1_11char_traitsIcEENS1_9allocatorIcEEEE
_ZN7Iex_3_19EnonetExcC1Ev
_ZN7Iex_3_19EnonetExcC2EONSt3__112basic_stringIcNS1_11char_traitsIcEENS1_9allocatorIcEEEE
_ZN7Iex_3_19EnonetExcC2EOS0_
_ZN7Iex_3_19EnonetExcC2EPKc
_ZN7Iex_3_19EnonetExcC2ERKNSt3__112basic_stringIcNS1_11char_traitsIcEENS1_9allocatorIcEEEE
_ZN7Iex_3_19EnonetExcC2ERKS0_
_ZN7Iex_3_19EnonetExcC2ERNSt3__118basic_stringstreamIcNS1_11char_traitsIcEENS1_9allocatorIcEEEE
_ZN7Iex_3_19EnonetExcC2Ev
_ZN7Iex_3_19EnonetExcD0Ev
_ZN7Iex_3_19EnonetExcD1Ev
_ZN7Iex_3_19EnonetExcD2Ev
_ZN7Iex_3_19EnonetExcaSEOS0_
_ZN7Iex_3_19EnonetExcaSERS0_
_ZN7Iex_3_19EnopkgExcC1EONSt3__112basic_stringIcNS1_11char_traitsIcEENS1_9allocatorIcEEEE
_ZN7Iex_3_19EnopkgExcC1EOS0_
_ZN7Iex_3_19EnopkgExcC1EPKc
_ZN7Iex_3_19EnopkgExcC1ERKNSt3__112basic_stringIcNS1_11char_traitsIcEENS1_9allocatorIcEEEE
_ZN7Iex_3_19EnopkgExcC1ERKS0_
_ZN7Iex_3_19EnopkgExcC1ERNSt3__118basic_stringstreamIcNS1_11char_traitsIcEENS1_9allocatorIcEEEE
_ZN7Iex_3_19EnopkgExcC1Ev
_ZN7Iex_3_19EnopkgExcC2EONSt3__112basic_stringIcNS1_11char_traitsIcEENS1_9allocatorIcEEEE
_ZN7Iex_3_19EnopkgExcC2EOS0_
_ZN7Iex_3_19EnopkgExcC2EPKc
_ZN7Iex_3_19EnopkgExcC2ERKNSt3__112basic_stringIcNS1_11char_traitsIcEENS1_9allocatorIcEEEE
_ZN7Iex_3_19EnopkgExcC2ERKS0_
_ZN7Iex_3_19EnopkgExcC2ERNSt3__118basic_stringstreamIcNS1_11char_traitsIcEENS1_9allocatorIcEEEE
_ZN7Iex_3_19EnopkgExcC2Ev
_ZN7Iex_3_19EnopkgExcD0Ev
_ZN7Iex_3_19EnopkgExcD1Ev
_ZN7Iex_3_19EnopkgExcD2Ev
_ZN7Iex_3_19EnopkgExcaSEOS0_
_ZN7Iex_3_19EnopkgExcaSERS0_
_ZN7Iex_3_19EnospcExcC1EONSt3__112basic_stringIcNS1_11char_traitsIcEENS1_9allocatorIcEEEE
_ZN7Iex_3_19EnospcExcC1EOS0_
_ZN7Iex_3_19EnospcExcC1EPKc
_ZN7Iex_3_19EnospcExcC1ERKNSt3__112basic_stringIcNS1_11char_traitsIcEENS1_9allocatorIcEEEE
_ZN7Iex_3_19EnospcExcC1ERKS0_
_ZN7Iex_3_19EnospcExcC1ERNSt3__118basic_stringstreamIcNS1_11char_traitsIcEENS1_9allocatorIcEEEE
_ZN7Iex_3_19EnospcExcC1Ev
_ZN7Iex_3_19EnospcExcC2EONSt3__112basic_stringIcNS1_11char_traitsIcEENS1_9allocatorIcEEEE
_ZN7Iex_3_19EnospcExcC2EOS0_
_ZN7Iex_3_19EnospcExcC2EPKc
_ZN7Iex_3_19EnospcExcC2ERKNSt3__112basic_stringIcNS1_11char_traitsIcEENS1_9allocatorIcEEEE
_ZN7Iex_3_19EnospcExcC2ERKS0_
_ZN7Iex_3_19EnospcExcC2ERNSt3__118basic_stringstreamIcNS1_11char_traitsIcEENS1_9allocatorIcEEEE
_ZN7Iex_3_19EnospcExcC2Ev
_ZN7Iex_3_19EnospcExcD0Ev
_ZN7Iex_3_19EnospcExcD1Ev
_ZN7Iex_3_19EnospcExcD2Ev
_ZN7Iex_3_19EnospcExcaSEOS0_
_ZN7Iex_3_19EnospcExcaSERS0_
_ZN7Iex_3_19EnostrExcC1EONSt3__112basic_stringIcNS1_11char_traitsIcEENS1_9allocatorIcEEEE
_ZN7Iex_3_19EnostrExcC1EOS0_
_ZN7Iex_3_19EnostrExcC1EPKc
_ZN7Iex_3_19EnostrExcC1ERKNSt3__112basic_stringIcNS1_11char_traitsIcEENS1_9allocatorIcEEEE
_ZN7Iex_3_19EnostrExcC1ERKS0_
_ZN7Iex_3_19EnostrExcC1ERNSt3__118basic_stringstreamIcNS1_11char_traitsIcEENS1_9allocatorIcEEEE
_ZN7Iex_3_19EnostrExcC1Ev
_ZN7Iex_3_19EnostrExcC2EONSt3__112basic_stringIcNS1_11char_traitsIcEENS1_9allocatorIcEEEE
_ZN7Iex_3_19EnostrExcC2EOS0_
_ZN7Iex_3_19EnostrExcC2EPKc
_ZN7Iex_3_19EnostrExcC2ERKNSt3__112basic_stringIcNS1_11char_traitsIcEENS1_9allocatorIcEEEE
_ZN7Iex_3_19EnostrExcC2ERKS0_
_ZN7Iex_3_19EnostrExcC2ERNSt3__118basic_stringstreamIcNS1_11char_traitsIcEENS1_9allocatorIcEEEE
_ZN7Iex_3_19EnostrExcC2Ev
_ZN7Iex_3_19EnostrExcD0Ev
_ZN7Iex_3_19EnostrExcD1Ev
_ZN7Iex_3_19EnostrExcD2Ev
_ZN7Iex_3_19EnostrExcaSEOS0_
_ZN7Iex_3_19EnostrExcaSERS0_
_ZN7Iex_3_19EnosysExcC1EONSt3__112basic_stringIcNS1_11char_traitsIcEENS1_9allocatorIcEEEE
_ZN7Iex_3_19EnosysExcC1EOS0_
_ZN7Iex_3_19EnosysExcC1EPKc
_ZN7Iex_3_19EnosysExcC1ERKNSt3__112basic_stringIcNS1_11char_traitsIcEENS1_9allocatorIcEEEE
_ZN7Iex_3_19EnosysExcC1ERKS0_
_ZN7Iex_3_19EnosysExcC1ERNSt3__118basic_stringstreamIcNS1_11char_traitsIcEENS1_9allocatorIcEEEE
_ZN7Iex_3_19EnosysExcC1Ev
_ZN7Iex_3_19EnosysExcC2EONSt3__112basic_stringIcNS1_11char_traitsIcEENS1_9allocatorIcEEEE
_ZN7Iex_3_19EnosysExcC2EOS0_
_ZN7Iex_3_19EnosysExcC2EPKc
_ZN7Iex_3_19EnosysExcC2ERKNSt3__112basic_stringIcNS1_11char_traitsIcEENS1_9allocatorIcEEEE
_ZN7Iex_3_19EnosysExcC2ERKS0_
_ZN7Iex_3_19EnosysExcC2ERNSt3__118basic_stringstreamIcNS1_11char_traitsIcEENS1_9allocatorIcEEEE
_ZN7Iex_3_19EnosysExcC2Ev
_ZN7Iex_3_19EnosysExcD0Ev
_ZN7Iex_3_19EnosysExcD1Ev
_ZN7Iex_3_19EnosysExcD2Ev
_ZN7Iex_3_19EnosysExcaSEOS0_
_ZN7Iex_3_19EnosysExcaSERS0_
_ZN7Iex_3_19EnottyExcC1EONSt3__112basic_stringIcNS1_11char_traitsIcEENS1_9allocatorIcEEEE
_ZN7Iex_3_19EnottyExcC1EOS0_
_ZN7Iex_3_19EnottyExcC1EPKc
_ZN7Iex_3_19EnottyExcC1ERKNSt3__112basic_stringIcNS1_11char_traitsIcEENS1_9allocatorIcEEEE
_ZN7Iex_3_19EnottyExcC1ERKS0_
_ZN7Iex_3_19EnottyExcC1ERNSt3__118basic_stringstreamIcNS1_11char_traitsIcEENS1_9allocatorIcEEEE
_ZN7Iex_3_19EnottyExcC1Ev
_ZN7Iex_3_19EnottyExcC2EONSt3__112basic_stringIcNS1_11char_traitsIcEENS1_9allocatorIcEEEE
_ZN7Iex_3_19EnottyExcC2EOS0_
_ZN7Iex_3_19EnottyExcC2EPKc
_ZN7Iex_3_19EnottyExcC2ERKNSt3__112basic_stringIcNS1_11char_traitsIcEENS1_9allocatorIcEEEE
_ZN7Iex_3_19EnottyExcC2ERKS0_
_ZN7Iex_3_19EnottyExcC2ERNSt3__118basic_stringstreamIcNS1_11char_traitsIcEENS1_9allocatorIcEEEE
_ZN7Iex_3_19EnottyExcC2Ev
_ZN7Iex_3_19EnottyExcD0Ev
_ZN7Iex_3_19EnottyExcD1Ev
_ZN7Iex_3_19EnottyExcD2Ev
_ZN7Iex_3_19EnottyExcaSEOS0_
_ZN7Iex_3_19EnottyExcaSERS0_
_ZN7Iex_3_19EprotoExcC1EONSt3__112basic_stringIcNS1_11char_traitsIcEENS1_9allocatorIcEEEE
_ZN7Iex_3_19EprotoExcC1EOS0_
_ZN7Iex_3_19EprotoExcC1EPKc
_ZN7Iex_3_19EprotoExcC1ERKNSt3__112basic_stringIcNS1_11char_traitsIcEENS1_9allocatorIcEEEE
_ZN7Iex_3_19EprotoExcC1ERKS0_
_ZN7Iex_3_19EprotoExcC1ERNSt3__118basic_stringstreamIcNS1_11char_traitsIcEENS1_9allocatorIcEEEE
_ZN7Iex_3_19EprotoExcC1Ev
_ZN7Iex_3_19EprotoExcC2EONSt3__112basic_stringIcNS1_11char_traitsIcEENS1_9allocatorIcEEEE
_ZN7Iex_3_19EprotoExcC2EOS0_
_ZN7Iex_3_19EprotoExcC2EPKc
_ZN7Iex_3_19EprotoExcC2ERKNSt3__112basic_stringIcNS1_11char_traitsIcEENS1_9allocatorIcEEEE
_ZN7Iex_3_19EprotoExcC2ERKS0_
_ZN7Iex_3_19EprotoExcC2ERNSt3__118basic_stringstreamIcNS1_11char_traitsIcEENS1_9allocatorIcEEEE
_ZN7Iex_3_19EprotoExcC2Ev
_ZN7Iex_3_19EprotoExcD0Ev
_ZN7Iex_3_19EprotoExcD1Ev
_ZN7Iex_3_19EprotoExcD2Ev
_ZN7Iex_3_19EprotoExcaSEOS0_
_ZN7Iex_3_19EprotoExcaSERS0_
_ZN7Iex_3_19ErangeExcC1EONSt3__112basic_stringIcNS1_11char_traitsIcEENS1_9allocatorIcEEEE
_ZN7Iex_3_19ErangeExcC1EOS0_
_ZN7Iex_3_19ErangeExcC1EPKc
_ZN7Iex_3_19ErangeExcC1ERKNSt3__112basic_stringIcNS1_11char_traitsIcEENS1_9allocatorIcEEEE
_ZN7Iex_3_19ErangeExcC1ERKS0_
_ZN7Iex_3_19ErangeExcC1ERNSt3__118basic_stringstreamIcNS1_11char_traitsIcEENS1_9allocatorIcEEEE
_ZN7Iex_3_19ErangeExcC1Ev
_ZN7Iex_3_19ErangeExcC2EONSt3__112basic_stringIcNS1_11char_traitsIcEENS1_9allocatorIcEEEE
_ZN7Iex_3_19ErangeExcC2EOS0_
_ZN7Iex_3_19ErangeExcC2EPKc
_ZN7Iex_3_19ErangeExcC2ERKNSt3__112basic_stringIcNS1_11char_traitsIcEENS1_9allocatorIcEEEE
_ZN7Iex_3_19ErangeExcC2ERKS0_
_ZN7Iex_3_19ErangeExcC2ERNSt3__118basic_stringstreamIcNS1_11char_traitsIcEENS1_9allocatorIcEEEE
_ZN7Iex_3_19ErangeExcC2Ev
_ZN7Iex_3_19ErangeExcD0Ev
_ZN7Iex_3_19ErangeExcD1Ev
_ZN7Iex_3_19ErangeExcD2Ev
_ZN7Iex_3_19ErangeExcaSEOS0_
_ZN7Iex_3_19ErangeExcaSERS0_
_ZN7Iex_3_19EspipeExcC1EONSt3__112basic_stringIcNS1_11char_traitsIcEENS1_9allocatorIcEEEE
_ZN7Iex_3_19EspipeExcC1EOS0_
_ZN7Iex_3_19EspipeExcC1EPKc
_ZN7Iex_3_19EspipeExcC1ERKNSt3__112basic_stringIcNS1_11char_traitsIcEENS1_9allocatorIcEEEE
_ZN7Iex_3_19EspipeExcC1ERKS0_
_ZN7Iex_3_19EspipeExcC1ERNSt3__118basic_stringstreamIcNS1_11char_traitsIcEENS1_9allocatorIcEEEE
_ZN7Iex_3_19EspipeExcC1Ev
_ZN7Iex_3_19EspipeExcC2EONSt3__112basic_stringIcNS1_11char_traitsIcEENS1_9allocatorIcEEEE
_ZN7Iex_3_19EspipeExcC2EOS0_
_ZN7Iex_3_19EspipeExcC2EPKc
_ZN7Iex_3_19EspipeExcC2ERKNSt3__112basic_stringIcNS1_11char_traitsIcEENS1_9allocatorIcEEEE
_ZN7Iex_3_19EspipeExcC2ERKS0_
_ZN7Iex_3_19EspipeExcC2ERNSt3__118basic_stringstreamIcNS1_11char_traitsIcEENS1_9allocatorIcEEEE
_ZN7Iex_3_19EspipeExcC2Ev
_ZN7Iex_3_19EspipeExcD0Ev
_ZN7Iex_3_19EspipeExcD1Ev
_ZN7Iex_3_19EspipeExcD2Ev
_ZN7Iex_3_19EspipeExcaSEOS0_
_ZN7Iex_3_19EspipeExcaSERS0_
_ZN7Iex_3_19EsrmntExcC1EONSt3__112basic_stringIcNS1_11char_traitsIcEENS1_9allocatorIcEEEE
_ZN7Iex_3_19EsrmntExcC1EOS0_
_ZN7Iex_3_19EsrmntExcC1EPKc
_ZN7Iex_3_19EsrmntExcC1ERKNSt3__112basic_stringIcNS1_11char_traitsIcEENS1_9allocatorIcEEEE
_ZN7Iex_3_19EsrmntExcC1ERKS0_
_ZN7Iex_3_19EsrmntExcC1ERNSt3__118basic_stringstreamIcNS1_11char_traitsIcEENS1_9allocatorIcEEEE
_ZN7Iex_3_19EsrmntExcC1Ev
_ZN7Iex_3_19EsrmntExcC2EONSt3__112basic_stringIcNS1_11char_traitsIcEENS1_9allocatorIcEEEE
_ZN7Iex_3_19EsrmntExcC2EOS0_
_ZN7Iex_3_19EsrmntExcC2EPKc
_ZN7Iex_3_19EsrmntExcC2ERKNSt3__112basic_stringIcNS1_11char_traitsIcEENS1_9allocatorIcEEEE
_ZN7Iex_3_19EsrmntExcC2ERKS0_
_ZN7Iex_3_19EsrmntExcC2ERNSt3__118basic_stringstreamIcNS1_11char_traitsIcEENS1_9allocatorIcEEEE
_ZN7Iex_3_19EsrmntExcC2Ev
_ZN7Iex_3_19EsrmntExcD0Ev
_ZN7Iex_3_19EsrmntExcD1Ev
_ZN7Iex_3_19EsrmntExcD2Ev
_ZN7Iex_3_19EsrmntExcaSEOS0_
_ZN7Iex_3_19EsrmntExcaSERS0_
_ZN7Iex_3_19EstaleExcC1EONSt3__112basic_stringIcNS1_11char_traitsIcEENS1_9allocatorIcEEEE
_ZN7Iex_3_19EstaleExcC1EOS0_
_ZN7Iex_3_19EstaleExcC1EPKc
_ZN7Iex_3_19EstaleExcC1ERKNSt3__112basic_stringIcNS1_11char_traitsIcEENS1_9allocatorIcEEEE
_ZN7Iex_3_19EstaleExcC1ERKS0_
_ZN7Iex_3_19EstaleExcC1ERNSt3__118basic_stringstreamIcNS1_11char_traitsIcEENS1_9allocatorIcEEEE
_ZN7Iex_3_19EstaleExcC1Ev
_ZN7Iex_3_19EstaleExcC2EONSt3__112basic_stringIcNS1_11char_traitsIcEENS1_9allocatorIcEEEE
_ZN7Iex_3_19EstaleExcC2EOS0_
_ZN7Iex_3_19EstaleExcC2EPKc
_ZN7Iex_3_19EstaleExcC2ERKNSt3__112basic_stringIcNS1_11char_traitsIcEENS1_9allocatorIcEEEE
_ZN7Iex_3_19EstaleExcC2ERKS0_
_ZN7Iex_3_19EstaleExcC2ERNSt3__118basic_stringstreamIcNS1_11char_traitsIcEENS1_9allocatorIcEEEE
_ZN7Iex_3_19EstaleExcC2Ev
_ZN7Iex_3_19EstaleExcD0Ev
_ZN7Iex_3_19EstaleExcD1Ev
_ZN7Iex_3_19EstaleExcD2Ev
_ZN7Iex_3_19EstaleExcaSEOS0_
_ZN7Iex_3_19EstaleExcaSERS0_
_ZN7Iex_3_19EusersExcC1EONSt3__112basic_stringIcNS1_11char_traitsIcEENS1_9allocatorIcEEEE
_ZN7Iex_3_19EusersExcC1EOS0_
_ZN7Iex_3_19EusersExcC1EPKc
_ZN7Iex_3_19EusersExcC1ERKNSt3__112basic_stringIcNS1_11char_traitsIcEENS1_9allocatorIcEEEE
_ZN7Iex_3_19EusersExcC1ERKS0_
_ZN7Iex_3_19EusersExcC1ERNSt3__118basic_stringstreamIcNS1_11char_traitsIcEENS1_9allocatorIcEEEE
_ZN7Iex_3_19EusersExcC1Ev
_ZN7Iex_3_19EusersExcC2EONSt3__112basic_stringIcNS1_11char_traitsIcEENS1_9allocatorIcEEEE
_ZN7Iex_3_19EusersExcC2EOS0_
_ZN7Iex_3_19EusersExcC2EPKc
_ZN7Iex_3_19EusersExcC2ERKNSt3__112basic_stringIcNS1_11char_traitsIcEENS1_9allocatorIcEEEE
_ZN7Iex_3_19EusersExcC2ERKS0_
_ZN7Iex_3_19EusersExcC2ERNSt3__118basic_stringstreamIcNS1_11char_traitsIcEENS1_9allocatorIcEEEE
_ZN7Iex_3_19EusersExcC2Ev
_ZN7Iex_3_19EusersExcD0Ev
_ZN7Iex_3_19EusersExcD1Ev
_ZN7Iex_3_19EusersExcD2Ev
_ZN7Iex_3_19EusersExcaSEOS0_
_ZN7Iex_3_19EusersExcaSERS0_
_ZN7Iex_3_19ExfullExcC1EONSt3__112basic_stringIcNS1_11char_traitsIcEENS1_9allocatorIcEEEE
_ZN7Iex_3_19ExfullExcC1EOS0_
_ZN7Iex_3_19ExfullExcC1EPKc
_ZN7Iex_3_19ExfullExcC1ERKNSt3__112basic_stringIcNS1_11char_traitsIcEENS1_9allocatorIcEEEE
_ZN7Iex_3_19ExfullExcC1ERKS0_
_ZN7Iex_3_19ExfullExcC1ERNSt3__118basic_stringstreamIcNS1_11char_traitsIcEENS1_9allocatorIcEEEE
_ZN7Iex_3_19ExfullExcC1Ev
_ZN7Iex_3_19ExfullExcC2EONSt3__112basic_stringIcNS1_11char_traitsIcEENS1_9allocatorIcEEEE
_ZN7Iex_3_19ExfullExcC2EOS0_
_ZN7Iex_3_19ExfullExcC2EPKc
_ZN7Iex_3_19ExfullExcC2ERKNSt3__112basic_stringIcNS1_11char_traitsIcEENS1_9allocatorIcEEEE
_ZN7Iex_3_19ExfullExcC2ERKS0_
_ZN7Iex_3_19ExfullExcC2ERNSt3__118basic_stringstreamIcNS1_11char_traitsIcEENS1_9allocatorIcEEEE
_ZN7Iex_3_19ExfullExcC2Ev
_ZN7Iex_3_19ExfullExcD0Ev
_ZN7Iex_3_19ExfullExcD1Ev
_ZN7Iex_3_19ExfullExcD2Ev
_ZN7Iex_3_19ExfullExcaSEOS0_
_ZN7Iex_3_19ExfullExcaSERS0_
_ZN7Iex_3_19MathExcOn27handleOutstandingExceptionsEv
_ZN7Iex_3_19MathExcOnC1Ei
_ZN7Iex_3_19MathExcOnC2Ei
_ZN7Iex_3_19MathExcOnD1Ev
_ZN7Iex_3_19MathExcOnD2Ev
_ZN7Iex_3_19NoImplExcC1EONSt3__112basic_stringIcNS1_11char_traitsIcEENS1_9allocatorIcEEEE
_ZN7Iex_3_19NoImplExcC1EOS0_
_ZN7Iex_3_19NoImplExcC1EPKc
_ZN7Iex_3_19NoImplExcC1ERKNSt3__112basic_stringIcNS1_11char_traitsIcEENS1_9allocatorIcEEEE
_ZN7Iex_3_19NoImplExcC1ERKS0_
_ZN7Iex_3_19NoImplExcC1ERNSt3__118basic_stringstreamIcNS1_11char_traitsIcEENS1_9allocatorIcEEEE
_ZN7Iex_3_19NoImplExcC1Ev
_ZN7Iex_3_19NoImplExcC2EONSt3__112basic_stringIcNS1_11char_traitsIcEENS1_9allocatorIcEEEE
_ZN7Iex_3_19NoImplExcC2EOS0_
_ZN7Iex_3_19NoImplExcC2EPKc
_ZN7Iex_3_19NoImplExcC2ERKNSt3__112basic_stringIcNS1_11char_traitsIcEENS1_9allocatorIcEEEE
_ZN7Iex_3_19NoImplExcC2ERKS0_
_ZN7Iex_3_19NoImplExcC2ERNSt3__118basic_stringstreamIcNS1_11char_traitsIcEENS1_9allocatorIcEEEE
_ZN7Iex_3_19NoImplExcC2Ev
_ZN7Iex_3_19NoImplExcD0Ev
_ZN7Iex_3_19NoImplExcD1Ev
_ZN7Iex_3_19NoImplExcD2Ev
_ZN7Iex_3_19NoImplExcaSEOS0_
_ZN7Iex_3_19NoImplExcaSERS0_
_ZN7Iex_3_19mathExcOnEi
_ZNK7Iex_3_17BaseExc10stackTraceEv
_ZNK7Iex_3_17BaseExc4whatEv
_ZNK7Iex_3_17BaseExc7messageEv
