;
; Definition file of libOpenEXR-3_1.dll
; Automatic generated by gendef
; written by Kai Tietz 2008
;
LIBRARY "libOpenEXR-3_1.dll"
EXPORTS
ImfApplyLut
ImfCloseInputFile
ImfCloseOutputFile
ImfCloseTiledInputFile
ImfCloseTiledOutputFile
ImfCopyHeader
ImfDeleteHeader
ImfDeleteLut
ImfErrorMessage
ImfFloatToHalf
ImfFloatToHalfArray
ImfHalfToFloat
ImfHalfToFloatArray
ImfHeaderBox2fAttribute
ImfHeaderBox2iAttribute
ImfHeaderCompression
ImfHeaderDataWindow
ImfHeaderDisplayWindow
ImfHeaderDoubleAttribute
ImfHeaderFloatAttribute
ImfHeaderIntAttribute
ImfHeaderLineOrder
ImfHeaderM33fAttribute
ImfHeaderM44fAttribute
ImfHeaderPixelAspectRatio
ImfHeaderScreenWindowCenter
ImfHeaderScreenWindowWidth
ImfHeaderSetBox2fAttribute
ImfHeaderSetBox2iAttribute
ImfHeaderSetCompression
ImfHeaderSetDataWindow
ImfHeaderSetDisplayWindow
ImfHeaderSetDoubleAttribute
ImfHeaderSetFloatAttribute
ImfHeaderSetIntAttribute
ImfHeaderSetLineOrder
ImfHeaderSetM33fAttribute
ImfHeaderSetM44fAttribute
ImfHeaderSetPixelAspectRatio
ImfHeaderSetScreenWindowCenter
ImfHeaderSetScreenWindowWidth
ImfHeaderSetStringAttribute
ImfHeaderSetV2fAttribute
ImfHeaderSetV2iAttribute
ImfHeaderSetV3fAttribute
ImfHeaderSetV3iAttribute
ImfHeaderStringAttribute
ImfHeaderV2fAttribute
ImfHeaderV2iAttribute
ImfHeaderV3fAttribute
ImfHeaderV3iAttribute
ImfInputChannels
ImfInputFileName
ImfInputHeader
ImfInputReadPixels
ImfInputSetFrameBuffer
ImfNewHeader
ImfNewRound12logLut
ImfNewRoundNBitLut
ImfOpenInputFile
ImfOpenOutputFile
ImfOpenTiledInputFile
ImfOpenTiledOutputFile
ImfOutputChannels
ImfOutputCurrentScanLine
ImfOutputHeader
ImfOutputSetFrameBuffer
ImfOutputWritePixels
ImfTiledInputChannels
ImfTiledInputFileName
ImfTiledInputHeader
ImfTiledInputLevelMode
ImfTiledInputLevelRoundingMode
ImfTiledInputReadTile
ImfTiledInputReadTiles
ImfTiledInputSetFrameBuffer
ImfTiledInputTileXSize
ImfTiledInputTileYSize
ImfTiledOutputChannels
ImfTiledOutputHeader
ImfTiledOutputLevelMode
ImfTiledOutputLevelRoundingMode
ImfTiledOutputSetFrameBuffer
ImfTiledOutputTileXSize
ImfTiledOutputTileYSize
ImfTiledOutputWriteTile
ImfTiledOutputWriteTiles
_ZN7Imf_3_110Compressor12compressTileEPKciN9Imath_3_13BoxINS3_4Vec2IiEEEERS2_
_ZN7Imf_3_110Compressor14uncompressTileEPKciN9Imath_3_13BoxINS3_4Vec2IiEEEERS2_
_ZN7Imf_3_110CompressorC2ERKNS_6HeaderE
_ZN7Imf_3_110CompressorD0Ev
_ZN7Imf_3_110CompressorD1Ev
_ZN7Imf_3_110CompressorD2Ev
_ZN7Imf_3_110IDManifest10CUSTOMHASHE DATA
_ZN7Imf_3_110IDManifest10ID2_SCHEMEE DATA
_ZN7Imf_3_110IDManifest12MurmurHash32ERKNSt3__112basic_stringIcNS1_11char_traitsIcEENS1_9allocatorIcEEEE
_ZN7Imf_3_110IDManifest12MurmurHash32ERKNSt3__16vectorINS1_12basic_stringIcNS1_11char_traitsIcEENS1_9allocatorIcEEEENS6_IS8_EEEE
_ZN7Imf_3_110IDManifest12MurmurHash64ERKNSt3__112basic_stringIcNS1_11char_traitsIcEENS1_9allocatorIcEEEE
_ZN7Imf_3_110IDManifest12MurmurHash64ERKNSt3__16vectorINS1_12basic_stringIcNS1_11char_traitsIcEENS1_9allocatorIcEEEENS6_IS8_EEEE
_ZN7Imf_3_110IDManifest14MURMURHASH3_32E DATA
_ZN7Imf_3_110IDManifest14MURMURHASH3_64E DATA
_ZN7Imf_3_110IDManifest20ChannelGroupManifest10setChannelERKNSt3__112basic_stringIcNS2_11char_traitsIcEENS2_9allocatorIcEEEE
_ZN7Imf_3_110IDManifest20ChannelGroupManifest11getChannelsEv
_ZN7Imf_3_110IDManifest20ChannelGroupManifest11setChannelsERKNSt3__13setINS2_12basic_stringIcNS2_11char_traitsIcEENS2_9allocatorIcEEEENS2_4lessIS9_EENS7_IS9_EEEE
_ZN7Imf_3_110IDManifest20ChannelGroupManifest12setComponentERKNSt3__112basic_stringIcNS2_11char_traitsIcEENS2_9allocatorIcEEEE
_ZN7Imf_3_110IDManifest20ChannelGroupManifest13ConstIteratorC1ERKNS1_8IteratorE
_ZN7Imf_3_110IDManifest20ChannelGroupManifest13ConstIteratorC1ERKNSt3__120__map_const_iteratorINS3_21__tree_const_iteratorINS3_12__value_typeIyNS3_6vectorINS3_12basic_stringIcNS3_11char_traitsIcEENS3_9allocatorIcEEEENSB_ISD_EEEEEEPNS3_11__tree_nodeISG_PvEExEEEE
_ZN7Imf_3_110IDManifest20ChannelGroupManifest13ConstIteratorC1Ev
_ZN7Imf_3_110IDManifest20ChannelGroupManifest13ConstIteratorC2ERKNS1_8IteratorE
_ZN7Imf_3_110IDManifest20ChannelGroupManifest13ConstIteratorC2ERKNSt3__120__map_const_iteratorINS3_21__tree_const_iteratorINS3_12__value_typeIyNS3_6vectorINS3_12basic_stringIcNS3_11char_traitsIcEENS3_9allocatorIcEEEENSB_ISD_EEEEEEPNS3_11__tree_nodeISG_PvEExEEEE
_ZN7Imf_3_110IDManifest20ChannelGroupManifest13ConstIteratorC2Ev
_ZN7Imf_3_110IDManifest20ChannelGroupManifest13ConstIteratorppEv
_ZN7Imf_3_110IDManifest20ChannelGroupManifest13setComponentsERKNSt3__16vectorINS2_12basic_stringIcNS2_11char_traitsIcEENS2_9allocatorIcEEEENS7_IS9_EEEE
_ZN7Imf_3_110IDManifest20ChannelGroupManifest3endEv
_ZN7Imf_3_110IDManifest20ChannelGroupManifest4findEy
_ZN7Imf_3_110IDManifest20ChannelGroupManifest5beginEv
_ZN7Imf_3_110IDManifest20ChannelGroupManifest5eraseEy
_ZN7Imf_3_110IDManifest20ChannelGroupManifest6insertERKNSt3__112basic_stringIcNS2_11char_traitsIcEENS2_9allocatorIcEEEE
_ZN7Imf_3_110IDManifest20ChannelGroupManifest6insertERKNSt3__16vectorINS2_12basic_stringIcNS2_11char_traitsIcEENS2_9allocatorIcEEEENS7_IS9_EEEE
_ZN7Imf_3_110IDManifest20ChannelGroupManifest6insertEyRKNSt3__112basic_stringIcNS2_11char_traitsIcEENS2_9allocatorIcEEEE
_ZN7Imf_3_110IDManifest20ChannelGroupManifest6insertEyRKNSt3__16vectorINS2_12basic_stringIcNS2_11char_traitsIcEENS2_9allocatorIcEEEENS7_IS9_EEEE
_ZN7Imf_3_110IDManifest20ChannelGroupManifest8Iterator4textEv
_ZN7Imf_3_110IDManifest20ChannelGroupManifest8IteratorC1ERKNSt3__114__map_iteratorINS3_15__tree_iteratorINS3_12__value_typeIyNS3_6vectorINS3_12basic_stringIcNS3_11char_traitsIcEENS3_9allocatorIcEEEENSB_ISD_EEEEEEPNS3_11__tree_nodeISG_PvEExEEEE
_ZN7Imf_3_110IDManifest20ChannelGroupManifest8IteratorC1Ev
_ZN7Imf_3_110IDManifest20ChannelGroupManifest8IteratorC2ERKNSt3__114__map_iteratorINS3_15__tree_iteratorINS3_12__value_typeIyNS3_6vectorINS3_12basic_stringIcNS3_11char_traitsIcEENS3_9allocatorIcEEEENSB_ISD_EEEEEEPNS3_11__tree_nodeISG_PvEExEEEE
_ZN7Imf_3_110IDManifest20ChannelGroupManifest8IteratorC2Ev
_ZN7Imf_3_110IDManifest20ChannelGroupManifest8IteratorppEv
_ZN7Imf_3_110IDManifest20ChannelGroupManifestC1Ev
_ZN7Imf_3_110IDManifest20ChannelGroupManifestC2Ev
_ZN7Imf_3_110IDManifest20ChannelGroupManifestixEy
_ZN7Imf_3_110IDManifest20ChannelGroupManifestlsERKNSt3__112basic_stringIcNS2_11char_traitsIcEENS2_9allocatorIcEEEE
_ZN7Imf_3_110IDManifest20ChannelGroupManifestlsEy
_ZN7Imf_3_110IDManifest3addERKNS0_20ChannelGroupManifestE
_ZN7Imf_3_110IDManifest3addERKNSt3__112basic_stringIcNS1_11char_traitsIcEENS1_9allocatorIcEEEE
_ZN7Imf_3_110IDManifest3addERKNSt3__13setINS1_12basic_stringIcNS1_11char_traitsIcEENS1_9allocatorIcEEEENS1_4lessIS8_EENS6_IS8_EEEE
_ZN7Imf_3_110IDManifest5mergeERKS0_
_ZN7Imf_3_110IDManifest7UNKNOWNE DATA
_ZN7Imf_3_110IDManifest9ID_SCHEMEE DATA
_ZN7Imf_3_110IDManifest9NOTHASHEDE DATA
_ZN7Imf_3_110IDManifestC1EPKcS2_
_ZN7Imf_3_110IDManifestC1ERKNS_20CompressedIDManifestE
_ZN7Imf_3_110IDManifestC1Ev
_ZN7Imf_3_110IDManifestC2EPKcS2_
_ZN7Imf_3_110IDManifestC2ERKNS_20CompressedIDManifestE
_ZN7Imf_3_110IDManifestC2Ev
_ZN7Imf_3_110IDManifestixEy
_ZN7Imf_3_110LatLongMap13pixelPositionERKN9Imath_3_13BoxINS1_4Vec2IiEEEERKNS1_4Vec3IfEE
_ZN7Imf_3_110LatLongMap13pixelPositionERKN9Imath_3_13BoxINS1_4Vec2IiEEEERKNS3_IfEE
_ZN7Imf_3_110LatLongMap7latLongERKN9Imath_3_13BoxINS1_4Vec2IiEEEERKNS3_IfEE
_ZN7Imf_3_110LatLongMap7latLongERKN9Imath_3_14Vec3IfEE
_ZN7Imf_3_110LatLongMap9directionERKN9Imath_3_13BoxINS1_4Vec2IiEEEERKNS3_IfEE
_ZN7Imf_3_110OutputFile10copyPixelsERNS_9InputFileE
_ZN7Imf_3_110OutputFile10copyPixelsERNS_9InputPartE
_ZN7Imf_3_110OutputFile11writePixelsEi
_ZN7Imf_3_110OutputFile13breakScanLineEiiic
_ZN7Imf_3_110OutputFile14setFrameBufferERKNS_11FrameBufferE
_ZN7Imf_3_110OutputFile18updatePreviewImageEPKNS_11PreviewRgbaE
_ZN7Imf_3_110OutputFileC1EPKcRKNS_6HeaderEi
_ZN7Imf_3_110OutputFileC1ERNS_7OStreamERKNS_6HeaderEi
_ZN7Imf_3_110OutputFileC2EPKcRKNS_6HeaderEi
_ZN7Imf_3_110OutputFileC2ERNS_7OStreamERKNS_6HeaderEi
_ZN7Imf_3_110OutputFileD0Ev
_ZN7Imf_3_110OutputFileD1Ev
_ZN7Imf_3_110OutputFileD2Ev
_ZN7Imf_3_110OutputPart10copyPixelsERNS_9InputFileE
_ZN7Imf_3_110OutputPart10copyPixelsERNS_9InputPartE
_ZN7Imf_3_110OutputPart11writePixelsEi
_ZN7Imf_3_110OutputPart13breakScanLineEiiic
_ZN7Imf_3_110OutputPart14setFrameBufferERKNS_11FrameBufferE
_ZN7Imf_3_110OutputPart18updatePreviewImageEPKNS_11PreviewRgbaE
_ZN7Imf_3_110OutputPartC1ERNS_19MultiPartOutputFileEi
_ZN7Imf_3_110OutputPartC2ERNS_19MultiPartOutputFileEi
_ZN7Imf_3_110addCapDateERNS_6HeaderERKNSt3__112basic_stringIcNS2_11char_traitsIcEENS2_9allocatorIcEEEE
_ZN7Imf_3_110addExpTimeERNS_6HeaderERKf
_ZN7Imf_3_110addKeyCodeERNS_6HeaderERKNS_7KeyCodeE
_ZN7Imf_3_110halfToUintEN9Imath_3_14halfE
_ZN7Imf_3_110hasCapDateERKNS_6HeaderE
_ZN7Imf_3_110hasExpTimeERKNS_6HeaderE
_ZN7Imf_3_110hasKeyCodeERKNS_6HeaderE
_ZN7Imf_3_110idManifestERKNS_6HeaderE
_ZN7Imf_3_110idManifestERNS_6HeaderE
_ZN7Imf_3_110isDeepDataERKNSt3__112basic_stringIcNS0_11char_traitsIcEENS0_9allocatorIcEEEE
_ZN7Imf_3_110isImfMagicEPKc
_ZN7Imf_3_110numSamplesEiii
_ZN7Imf_3_110round12logEN9Imath_3_14halfE
_ZN7Imf_3_110uintToHalfEj
_ZN7Imf_3_110wav2DecodeEPtiiiit
_ZN7Imf_3_110wav2EncodeEPtiiiit
_ZN7Imf_3_110worldToNDCERKNS_6HeaderE
_ZN7Imf_3_110worldToNDCERNS_6HeaderE
_ZN7Imf_3_111ChannelList11findChannelEPKc
_ZN7Imf_3_111ChannelList11findChannelERKNSt3__112basic_stringIcNS1_11char_traitsIcEENS1_9allocatorIcEEEE
_ZN7Imf_3_111ChannelList13ConstIteratorC1ERKNS0_8IteratorE
_ZN7Imf_3_111ChannelList13ConstIteratorC1ERKNSt3__120__map_const_iteratorINS2_21__tree_const_iteratorINS2_12__value_typeINS_4NameENS_7ChannelEEEPNS2_11__tree_nodeIS8_PvEExEEEE
_ZN7Imf_3_111ChannelList13ConstIteratorC1Ev
_ZN7Imf_3_111ChannelList13ConstIteratorC2ERKNS0_8IteratorE
_ZN7Imf_3_111ChannelList13ConstIteratorC2ERKNSt3__120__map_const_iteratorINS2_21__tree_const_iteratorINS2_12__value_typeINS_4NameENS_7ChannelEEEPNS2_11__tree_nodeIS8_PvEExEEEE
_ZN7Imf_3_111ChannelList13ConstIteratorC2Ev
_ZN7Imf_3_111ChannelList13ConstIteratorppEi
_ZN7Imf_3_111ChannelList13ConstIteratorppEv
_ZN7Imf_3_111ChannelList15channelsInLayerERKNSt3__112basic_stringIcNS1_11char_traitsIcEENS1_9allocatorIcEEEERNS0_8IteratorESB_
_ZN7Imf_3_111ChannelList18channelsWithPrefixEPKcRNS0_8IteratorES4_
_ZN7Imf_3_111ChannelList18channelsWithPrefixERKNSt3__112basic_stringIcNS1_11char_traitsIcEENS1_9allocatorIcEEEERNS0_8IteratorESB_
_ZN7Imf_3_111ChannelList3endEv
_ZN7Imf_3_111ChannelList4findEPKc
_ZN7Imf_3_111ChannelList4findERKNSt3__112basic_stringIcNS1_11char_traitsIcEENS1_9allocatorIcEEEE
_ZN7Imf_3_111ChannelList5beginEv
_ZN7Imf_3_111ChannelList6insertEPKcRKNS_7ChannelE
_ZN7Imf_3_111ChannelList6insertERKNSt3__112basic_stringIcNS1_11char_traitsIcEENS1_9allocatorIcEEEERKNS_7ChannelE
_ZN7Imf_3_111ChannelList8IteratorC1ERKNSt3__114__map_iteratorINS2_15__tree_iteratorINS2_12__value_typeINS_4NameENS_7ChannelEEEPNS2_11__tree_nodeIS8_PvEExEEEE
_ZN7Imf_3_111ChannelList8IteratorC1Ev
_ZN7Imf_3_111ChannelList8IteratorC2ERKNSt3__114__map_iteratorINS2_15__tree_iteratorINS2_12__value_typeINS_4NameENS_7ChannelEEEPNS2_11__tree_nodeIS8_PvEExEEEE
_ZN7Imf_3_111ChannelList8IteratorC2Ev
_ZN7Imf_3_111ChannelList8IteratorppEi
_ZN7Imf_3_111ChannelList8IteratorppEv
_ZN7Imf_3_111ChannelListixEPKc
_ZN7Imf_3_111ChannelListixERKNSt3__112basic_stringIcNS1_11char_traitsIcEENS1_9allocatorIcEEEE
_ZN7Imf_3_111FrameBuffer13ConstIteratorC1ERKNS0_8IteratorE
_ZN7Imf_3_111FrameBuffer13ConstIteratorC1ERKNSt3__120__map_const_iteratorINS2_21__tree_const_iteratorINS2_12__value_typeINS_4NameENS_5SliceEEEPNS2_11__tree_nodeIS8_PvEExEEEE
_ZN7Imf_3_111FrameBuffer13ConstIteratorC1Ev
_ZN7Imf_3_111FrameBuffer13ConstIteratorC2ERKNS0_8IteratorE
_ZN7Imf_3_111FrameBuffer13ConstIteratorC2ERKNSt3__120__map_const_iteratorINS2_21__tree_const_iteratorINS2_12__value_typeINS_4NameENS_5SliceEEEPNS2_11__tree_nodeIS8_PvEExEEEE
_ZN7Imf_3_111FrameBuffer13ConstIteratorC2Ev
_ZN7Imf_3_111FrameBuffer13ConstIteratorppEi
_ZN7Imf_3_111FrameBuffer13ConstIteratorppEv
_ZN7Imf_3_111FrameBuffer3endEv
_ZN7Imf_3_111FrameBuffer4findEPKc
_ZN7Imf_3_111FrameBuffer4findERKNSt3__112basic_stringIcNS1_11char_traitsIcEENS1_9allocatorIcEEEE
_ZN7Imf_3_111FrameBuffer5beginEv
_ZN7Imf_3_111FrameBuffer6insertEPKcRKNS_5SliceE
_ZN7Imf_3_111FrameBuffer6insertERKNSt3__112basic_stringIcNS1_11char_traitsIcEENS1_9allocatorIcEEEERKNS_5SliceE
_ZN7Imf_3_111FrameBuffer8IteratorC1ERKNSt3__114__map_iteratorINS2_15__tree_iteratorINS2_12__value_typeINS_4NameENS_5SliceEEEPNS2_11__tree_nodeIS8_PvEExEEEE
_ZN7Imf_3_111FrameBuffer8IteratorC1Ev
_ZN7Imf_3_111FrameBuffer8IteratorC2ERKNSt3__114__map_iteratorINS2_15__tree_iteratorINS2_12__value_typeINS_4NameENS_5SliceEEEPNS2_11__tree_nodeIS8_PvEExEEEE
_ZN7Imf_3_111FrameBuffer8IteratorC2Ev
_ZN7Imf_3_111FrameBuffer8IteratorppEi
_ZN7Imf_3_111FrameBuffer8IteratorppEv
_ZN7Imf_3_111FrameBuffer9findSliceEPKc
_ZN7Imf_3_111FrameBuffer9findSliceERKNSt3__112basic_stringIcNS1_11char_traitsIcEENS1_9allocatorIcEEEE
_ZN7Imf_3_111FrameBufferixEPKc
_ZN7Imf_3_111FrameBufferixERKNSt3__112basic_stringIcNS1_11char_traitsIcEENS1_9allocatorIcEEEE
_ZN7Imf_3_111StdIFStream4readEPci
_ZN7Imf_3_111StdIFStream5clearEv
_ZN7Imf_3_111StdIFStream5seekgEy
_ZN7Imf_3_111StdIFStream5tellgEv
_ZN7Imf_3_111StdIFStreamC1EPKc
_ZN7Imf_3_111StdIFStreamC1ERNSt3__114basic_ifstreamIcNS1_11char_traitsIcEEEEPKc
_ZN7Imf_3_111StdIFStreamC2EPKc
_ZN7Imf_3_111StdIFStreamC2ERNSt3__114basic_ifstreamIcNS1_11char_traitsIcEEEEPKc
_ZN7Imf_3_111StdIFStreamD0Ev
_ZN7Imf_3_111StdIFStreamD1Ev
_ZN7Imf_3_111StdIFStreamD2Ev
_ZN7Imf_3_111StdISStream3strERKNSt3__112basic_stringIcNS1_11char_traitsIcEENS1_9allocatorIcEEEE
_ZN7Imf_3_111StdISStream4readEPci
_ZN7Imf_3_111StdISStream5clearEv
_ZN7Imf_3_111StdISStream5seekgEy
_ZN7Imf_3_111StdISStream5tellgEv
_ZN7Imf_3_111StdISStreamC1Ev
_ZN7Imf_3_111StdISStreamC2Ev
_ZN7Imf_3_111StdISStreamD0Ev
_ZN7Imf_3_111StdISStreamD1Ev
_ZN7Imf_3_111StdISStreamD2Ev
_ZN7Imf_3_111StdOFStream5seekpEy
_ZN7Imf_3_111StdOFStream5tellpEv
_ZN7Imf_3_111StdOFStream5writeEPKci
_ZN7Imf_3_111StdOFStreamC1EPKc
_ZN7Imf_3_111StdOFStreamC1ERNSt3__114basic_ofstreamIcNS1_11char_traitsIcEEEEPKc
_ZN7Imf_3_111StdOFStreamC2EPKc
_ZN7Imf_3_111StdOFStreamC2ERNSt3__114basic_ofstreamIcNS1_11char_traitsIcEEEEPKc
_ZN7Imf_3_111StdOFStreamD0Ev
_ZN7Imf_3_111StdOFStreamD1Ev
_ZN7Imf_3_111StdOFStreamD2Ev
_ZN7Imf_3_111StdOSStream5seekpEy
_ZN7Imf_3_111StdOSStream5tellpEv
_ZN7Imf_3_111StdOSStream5writeEPKci
_ZN7Imf_3_111StdOSStreamC1Ev
_ZN7Imf_3_111StdOSStreamC2Ev
_ZN7Imf_3_111StdOSStreamD0Ev
_ZN7Imf_3_111StdOSStreamD1Ev
_ZN7Imf_3_111StdOSStreamD2Ev
_ZN7Imf_3_111TileOffsets8readFromENSt3__16vectorIyNS1_9allocatorIyEEEERb
_ZN7Imf_3_111TileOffsets8readFromERNS_7IStreamERbbb
_ZN7Imf_3_111TileOffsetsC1ENS_9LevelModeEiiPKiS3_
_ZN7Imf_3_111TileOffsetsC2ENS_9LevelModeEiiPKiS3_
_ZN7Imf_3_111TileOffsetsclEiii
_ZN7Imf_3_111TileOffsetsclEiiii
_ZN7Imf_3_111addAltitudeERNS_6HeaderERKf
_ZN7Imf_3_111addApertureERNS_6HeaderERKf
_ZN7Imf_3_111addCommentsERNS_6HeaderERKNSt3__112basic_stringIcNS2_11char_traitsIcEENS2_9allocatorIcEEEE
_ZN7Imf_3_111addIsoSpeedERNS_6HeaderERKf
_ZN7Imf_3_111addLatitudeERNS_6HeaderERKf
_ZN7Imf_3_111addTimeCodeERNS_6HeaderERKNS_8TimeCodeE
_ZN7Imf_3_111addXDensityERNS_6HeaderERKf
_ZN7Imf_3_111floatToHalfEf
_ZN7Imf_3_111floatToUintEf
_ZN7Imf_3_111hasAltitudeERKNS_6HeaderE
_ZN7Imf_3_111hasApertureERKNS_6HeaderE
_ZN7Imf_3_111hasCommentsERKNS_6HeaderE
_ZN7Imf_3_111hasIsoSpeedERKNS_6HeaderE
_ZN7Imf_3_111hasLatitudeERKNS_6HeaderE
_ZN7Imf_3_111hasTimeCodeERKNS_6HeaderE
_ZN7Imf_3_111hasXDensityERKNS_6HeaderE
_ZN7Imf_3_111hufCompressEPKtiPc
_ZN7Imf_3_111rleCompressEiPKcPa
_ZN7Imf_3_111skipChannelERPKcNS_9PixelTypeEy
_ZN7Imf_3_112PreviewImageC1ERKS0_
_ZN7Imf_3_112PreviewImageC1EjjPKNS_11PreviewRgbaE
_ZN7Imf_3_112PreviewImageC2ERKS0_
_ZN7Imf_3_112PreviewImageC2EjjPKNS_11PreviewRgbaE
_ZN7Imf_3_112PreviewImageD1Ev
_ZN7Imf_3_112PreviewImageD2Ev
_ZN7Imf_3_112PreviewImageaSERKS0_
_ZN7Imf_3_112addLongitudeERNS_6HeaderERKf
_ZN7Imf_3_112addMultiViewERNS_6HeaderERKNSt3__16vectorINS2_12basic_stringIcNS2_11char_traitsIcEENS2_9allocatorIcEEEENS7_IS9_EEEE
_ZN7Imf_3_112addUtcOffsetERNS_6HeaderERKf
_ZN7Imf_3_112addWrapmodesERNS_6HeaderERKNSt3__112basic_stringIcNS2_11char_traitsIcEENS2_9allocatorIcEEEE
_ZN7Imf_3_112hasLongitudeERKNS_6HeaderE
_ZN7Imf_3_112hasMultiViewERKNS_6HeaderE
_ZN7Imf_3_112hasUtcOffsetERKNS_6HeaderE
_ZN7Imf_3_112hasWrapmodesERKNS_6HeaderE
_ZN7Imf_3_113AcesInputFile10readPixelsEi
_ZN7Imf_3_113AcesInputFile10readPixelsEii
_ZN7Imf_3_113AcesInputFile14setFrameBufferEPNS_4RgbaEyy
_ZN7Imf_3_113AcesInputFileC1ERKNSt3__112basic_stringIcNS1_11char_traitsIcEENS1_9allocatorIcEEEEi
_ZN7Imf_3_113AcesInputFileC1ERNS_7IStreamEi
_ZN7Imf_3_113AcesInputFileC2ERKNSt3__112basic_stringIcNS1_11char_traitsIcEENS1_9allocatorIcEEEEi
_ZN7Imf_3_113AcesInputFileC2ERNS_7IStreamEi
_ZN7Imf_3_113AcesInputFileD0Ev
_ZN7Imf_3_113AcesInputFileD1Ev
_ZN7Imf_3_113AcesInputFileD2Ev
_ZN7Imf_3_113RgbaInputFile10readPixelsEi
_ZN7Imf_3_113RgbaInputFile10readPixelsEii
_ZN7Imf_3_113RgbaInputFile12setLayerNameERKNSt3__112basic_stringIcNS1_11char_traitsIcEENS1_9allocatorIcEEEE
_ZN7Imf_3_113RgbaInputFile14setFrameBufferEPNS_4RgbaEyy
_ZN7Imf_3_113RgbaInputFileC1EPKcRKNSt3__112basic_stringIcNS3_11char_traitsIcEENS3_9allocatorIcEEEEi
_ZN7Imf_3_113RgbaInputFileC1EPKci
_ZN7Imf_3_113RgbaInputFileC1ERNS_7IStreamERKNSt3__112basic_stringIcNS3_11char_traitsIcEENS3_9allocatorIcEEEEi
_ZN7Imf_3_113RgbaInputFileC1ERNS_7IStreamEi
_ZN7Imf_3_113RgbaInputFileC2EPKcRKNSt3__112basic_stringIcNS3_11char_traitsIcEENS3_9allocatorIcEEEEi
_ZN7Imf_3_113RgbaInputFileC2EPKci
_ZN7Imf_3_113RgbaInputFileC2ERNS_7IStreamERKNSt3__112basic_stringIcNS3_11char_traitsIcEENS3_9allocatorIcEEEEi
_ZN7Imf_3_113RgbaInputFileC2ERNS_7IStreamEi
_ZN7Imf_3_113RgbaInputFileD0Ev
_ZN7Imf_3_113RgbaInputFileD1Ev
_ZN7Imf_3_113RgbaInputFileD2Ev
_ZN7Imf_3_113addIDManifestERNS_6HeaderERKNS_20CompressedIDManifestE
_ZN7Imf_3_113addWorldToNDCERNS_6HeaderERKN9Imath_3_18Matrix44IfEE
_ZN7Imf_3_113defaultFormatEPNS_10CompressorE
_ZN7Imf_3_113guessExactFpsERKNS_8RationalE
_ZN7Imf_3_113guessExactFpsEd
_ZN7Imf_3_113hasIDManifestERKNS_6HeaderE
_ZN7Imf_3_113hasWorldToNDCERKNS_6HeaderE
_ZN7Imf_3_113hufUncompressEPKciPti
_ZN7Imf_3_113isOpenExrFileEPKc
_ZN7Imf_3_113isOpenExrFileEPKcRb
_ZN7Imf_3_113isOpenExrFileEPKcRbS2_
_ZN7Imf_3_113isOpenExrFileEPKcRbS2_S2_
_ZN7Imf_3_113isOpenExrFileERNS_7IStreamE
_ZN7Imf_3_113isOpenExrFileERNS_7IStreamERb
_ZN7Imf_3_113isOpenExrFileERNS_7IStreamERbS2_
_ZN7Imf_3_113isOpenExrFileERNS_7IStreamERbS2_S2_
_ZN7Imf_3_113newCompressorENS_11CompressionEyRKNS_6HeaderE
_ZN7Imf_3_113pixelTypeSizeENS_9PixelTypeE
_ZN7Imf_3_113rleUncompressEiiPKaPc
_ZN7Imf_3_113usesLongNamesERKNS_6HeaderE
_ZN7Imf_3_113worldToCameraERKNS_6HeaderE
_ZN7Imf_3_113worldToCameraERNS_6HeaderE
_ZN7Imf_3_114AcesOutputFile11writePixelsEi
_ZN7Imf_3_114AcesOutputFile14setFrameBufferEPKNS_4RgbaEyy
_ZN7Imf_3_114AcesOutputFile18updatePreviewImageEPKNS_11PreviewRgbaE
_ZN7Imf_3_114AcesOutputFileC1ERKNSt3__112basic_stringIcNS1_11char_traitsIcEENS1_9allocatorIcEEEERKN9Imath_3_13BoxINSA_4Vec2IiEEEESG_NS_12RgbaChannelsEfNSC_IfEEfNS_9LineOrderENS_11CompressionEi
_ZN7Imf_3_114AcesOutputFileC1ERKNSt3__112basic_stringIcNS1_11char_traitsIcEENS1_9allocatorIcEEEERKNS_6HeaderENS_12RgbaChannelsEi
_ZN7Imf_3_114AcesOutputFileC1ERKNSt3__112basic_stringIcNS1_11char_traitsIcEENS1_9allocatorIcEEEEiiNS_12RgbaChannelsEfN9Imath_3_14Vec2IfEEfNS_9LineOrderENS_11CompressionEi
_ZN7Imf_3_114AcesOutputFileC1ERNS_7OStreamERKNS_6HeaderENS_12RgbaChannelsEi
_ZN7Imf_3_114AcesOutputFileC2ERKNSt3__112basic_stringIcNS1_11char_traitsIcEENS1_9allocatorIcEEEERKN9Imath_3_13BoxINSA_4Vec2IiEEEESG_NS_12RgbaChannelsEfNSC_IfEEfNS_9LineOrderENS_11CompressionEi
_ZN7Imf_3_114AcesOutputFileC2ERKNSt3__112basic_stringIcNS1_11char_traitsIcEENS1_9allocatorIcEEEERKNS_6HeaderENS_12RgbaChannelsEi
_ZN7Imf_3_114AcesOutputFileC2ERKNSt3__112basic_stringIcNS1_11char_traitsIcEENS1_9allocatorIcEEEEiiNS_12RgbaChannelsEfN9Imath_3_14Vec2IfEEfNS_9LineOrderENS_11CompressionEi
_ZN7Imf_3_114AcesOutputFileC2ERNS_7OStreamERKNS_6HeaderENS_12RgbaChannelsEi
_ZN7Imf_3_114AcesOutputFileD0Ev
_ZN7Imf_3_114AcesOutputFileD1Ev
_ZN7Imf_3_114AcesOutputFileD2Ev
_ZN7Imf_3_114ChromaticitiesC1ERKN9Imath_3_14Vec2IfEES5_S5_S5_
_ZN7Imf_3_114ChromaticitiesC2ERKN9Imath_3_14Vec2IfEES5_S5_S5_
_ZN7Imf_3_114RgbaOutputFile11writePixelsEi
_ZN7Imf_3_114RgbaOutputFile13breakScanLineEiiic
_ZN7Imf_3_114RgbaOutputFile13setYCRoundingEjj
_ZN7Imf_3_114RgbaOutputFile14setFrameBufferEPKNS_4RgbaEyy
_ZN7Imf_3_114RgbaOutputFile18updatePreviewImageEPKNS_11PreviewRgbaE
_ZN7Imf_3_114RgbaOutputFileC1EPKcRKN9Imath_3_13BoxINS3_4Vec2IiEEEES9_NS_12RgbaChannelsEfNS5_IfEEfNS_9LineOrderENS_11CompressionEi
_ZN7Imf_3_114RgbaOutputFileC1EPKcRKNS_6HeaderENS_12RgbaChannelsEi
_ZN7Imf_3_114RgbaOutputFileC1EPKciiNS_12RgbaChannelsEfN9Imath_3_14Vec2IfEEfNS_9LineOrderENS_11CompressionEi
_ZN7Imf_3_114RgbaOutputFileC1ERNS_7OStreamERKNS_6HeaderENS_12RgbaChannelsEi
_ZN7Imf_3_114RgbaOutputFileC2EPKcRKN9Imath_3_13BoxINS3_4Vec2IiEEEES9_NS_12RgbaChannelsEfNS5_IfEEfNS_9LineOrderENS_11CompressionEi
_ZN7Imf_3_114RgbaOutputFileC2EPKcRKNS_6HeaderENS_12RgbaChannelsEi
_ZN7Imf_3_114RgbaOutputFileC2EPKciiNS_12RgbaChannelsEfN9Imath_3_14Vec2IfEEfNS_9LineOrderENS_11CompressionEi
_ZN7Imf_3_114RgbaOutputFileC2ERNS_7OStreamERKNS_6HeaderENS_12RgbaChannelsEi
_ZN7Imf_3_114RgbaOutputFileD0Ev
_ZN7Imf_3_114RgbaOutputFileD1Ev
_ZN7Imf_3_114RgbaOutputFileD2Ev
_ZN7Imf_3_114TiledInputFile11rawTileDataERiS1_S1_S1_RPKcS1_
_ZN7Imf_3_114TiledInputFile14setFrameBufferERKNS_11FrameBufferE
_ZN7Imf_3_114TiledInputFile8readTileEiii
_ZN7Imf_3_114TiledInputFile8readTileEiiii
_ZN7Imf_3_114TiledInputFile9readTilesEiiiii
_ZN7Imf_3_114TiledInputFile9readTilesEiiiiii
_ZN7Imf_3_114TiledInputFileC1EPKci
_ZN7Imf_3_114TiledInputFileC1ERNS_7IStreamEi
_ZN7Imf_3_114TiledInputFileC2EPKci
_ZN7Imf_3_114TiledInputFileC2ERNS_7IStreamEi
_ZN7Imf_3_114TiledInputFileD0Ev
_ZN7Imf_3_114TiledInputFileD1Ev
_ZN7Imf_3_114TiledInputFileD2Ev
_ZN7Imf_3_114TiledInputPart11rawTileDataERiS1_S1_S1_RPKcS1_
_ZN7Imf_3_114TiledInputPart14setFrameBufferERKNS_11FrameBufferE
_ZN7Imf_3_114TiledInputPart8readTileEiii
_ZN7Imf_3_114TiledInputPart8readTileEiiii
_ZN7Imf_3_114TiledInputPart9readTilesEiiiii
_ZN7Imf_3_114TiledInputPart9readTilesEiiiiii
_ZN7Imf_3_114TiledInputPartC1ERNS_18MultiPartInputFileEi
_ZN7Imf_3_114TiledInputPartC2ERNS_18MultiPartInputFileEi
_ZN7Imf_3_114TypedAttributeIN9Imath_3_13BoxINS1_4Vec2IfEEEEE13copyValueFromERKNS_9AttributeE
_ZN7Imf_3_114TypedAttributeIN9Imath_3_13BoxINS1_4Vec2IfEEEEE14staticTypeNameEv
_ZN7Imf_3_114TypedAttributeIN9Imath_3_13BoxINS1_4Vec2IfEEEEE16makeNewAttributeEv
_ZN7Imf_3_114TypedAttributeIN9Imath_3_13BoxINS1_4Vec2IfEEEEE21registerAttributeTypeEv
_ZN7Imf_3_114TypedAttributeIN9Imath_3_13BoxINS1_4Vec2IfEEEEE23unRegisterAttributeTypeEv
_ZN7Imf_3_114TypedAttributeIN9Imath_3_13BoxINS1_4Vec2IfEEEEE4castEPKNS_9AttributeE
_ZN7Imf_3_114TypedAttributeIN9Imath_3_13BoxINS1_4Vec2IfEEEEE4castEPNS_9AttributeE
_ZN7Imf_3_114TypedAttributeIN9Imath_3_13BoxINS1_4Vec2IfEEEEE4castERKNS_9AttributeE
_ZN7Imf_3_114TypedAttributeIN9Imath_3_13BoxINS1_4Vec2IfEEEEE4castERNS_9AttributeE
_ZN7Imf_3_114TypedAttributeIN9Imath_3_13BoxINS1_4Vec2IfEEEEE5valueEv
_ZN7Imf_3_114TypedAttributeIN9Imath_3_13BoxINS1_4Vec2IfEEEEEC1ERKS5_
_ZN7Imf_3_114TypedAttributeIN9Imath_3_13BoxINS1_4Vec2IfEEEEEC2ERKS5_
_ZN7Imf_3_114TypedAttributeIN9Imath_3_13BoxINS1_4Vec2IfEEEEED0Ev
_ZN7Imf_3_114TypedAttributeIN9Imath_3_13BoxINS1_4Vec2IfEEEEED1Ev
_ZN7Imf_3_114TypedAttributeIN9Imath_3_13BoxINS1_4Vec2IfEEEEED2Ev
_ZN7Imf_3_114TypedAttributeIN9Imath_3_13BoxINS1_4Vec2IiEEEEE13copyValueFromERKNS_9AttributeE
_ZN7Imf_3_114TypedAttributeIN9Imath_3_13BoxINS1_4Vec2IiEEEEE14staticTypeNameEv
_ZN7Imf_3_114TypedAttributeIN9Imath_3_13BoxINS1_4Vec2IiEEEEE16makeNewAttributeEv
_ZN7Imf_3_114TypedAttributeIN9Imath_3_13BoxINS1_4Vec2IiEEEEE21registerAttributeTypeEv
_ZN7Imf_3_114TypedAttributeIN9Imath_3_13BoxINS1_4Vec2IiEEEEE23unRegisterAttributeTypeEv
_ZN7Imf_3_114TypedAttributeIN9Imath_3_13BoxINS1_4Vec2IiEEEEE4castEPKNS_9AttributeE
_ZN7Imf_3_114TypedAttributeIN9Imath_3_13BoxINS1_4Vec2IiEEEEE4castEPNS_9AttributeE
_ZN7Imf_3_114TypedAttributeIN9Imath_3_13BoxINS1_4Vec2IiEEEEE4castERKNS_9AttributeE
_ZN7Imf_3_114TypedAttributeIN9Imath_3_13BoxINS1_4Vec2IiEEEEE4castERNS_9AttributeE
_ZN7Imf_3_114TypedAttributeIN9Imath_3_13BoxINS1_4Vec2IiEEEEE5valueEv
_ZN7Imf_3_114TypedAttributeIN9Imath_3_13BoxINS1_4Vec2IiEEEEEC1ERKS5_
_ZN7Imf_3_114TypedAttributeIN9Imath_3_13BoxINS1_4Vec2IiEEEEEC2ERKS5_
_ZN7Imf_3_114TypedAttributeIN9Imath_3_13BoxINS1_4Vec2IiEEEEED0Ev
_ZN7Imf_3_114TypedAttributeIN9Imath_3_13BoxINS1_4Vec2IiEEEEED1Ev
_ZN7Imf_3_114TypedAttributeIN9Imath_3_13BoxINS1_4Vec2IiEEEEED2Ev
_ZN7Imf_3_114TypedAttributeIN9Imath_3_14Vec2IdEEE13copyValueFromERKNS_9AttributeE
_ZN7Imf_3_114TypedAttributeIN9Imath_3_14Vec2IdEEE14staticTypeNameEv
_ZN7Imf_3_114TypedAttributeIN9Imath_3_14Vec2IdEEE16makeNewAttributeEv
_ZN7Imf_3_114TypedAttributeIN9Imath_3_14Vec2IdEEE21registerAttributeTypeEv
_ZN7Imf_3_114TypedAttributeIN9Imath_3_14Vec2IdEEE23unRegisterAttributeTypeEv
_ZN7Imf_3_114TypedAttributeIN9Imath_3_14Vec2IdEEE4castEPKNS_9AttributeE
_ZN7Imf_3_114TypedAttributeIN9Imath_3_14Vec2IdEEE4castEPNS_9AttributeE
_ZN7Imf_3_114TypedAttributeIN9Imath_3_14Vec2IdEEE4castERKNS_9AttributeE
_ZN7Imf_3_114TypedAttributeIN9Imath_3_14Vec2IdEEE4castERNS_9AttributeE
_ZN7Imf_3_114TypedAttributeIN9Imath_3_14Vec2IdEEE5valueEv
_ZN7Imf_3_114TypedAttributeIN9Imath_3_14Vec2IdEEEC1ERKS3_
_ZN7Imf_3_114TypedAttributeIN9Imath_3_14Vec2IdEEEC2ERKS3_
_ZN7Imf_3_114TypedAttributeIN9Imath_3_14Vec2IdEEED0Ev
_ZN7Imf_3_114TypedAttributeIN9Imath_3_14Vec2IdEEED1Ev
_ZN7Imf_3_114TypedAttributeIN9Imath_3_14Vec2IdEEED2Ev
_ZN7Imf_3_114TypedAttributeIN9Imath_3_14Vec2IfEEE13copyValueFromERKNS_9AttributeE
_ZN7Imf_3_114TypedAttributeIN9Imath_3_14Vec2IfEEE14staticTypeNameEv
_ZN7Imf_3_114TypedAttributeIN9Imath_3_14Vec2IfEEE16makeNewAttributeEv
_ZN7Imf_3_114TypedAttributeIN9Imath_3_14Vec2IfEEE21registerAttributeTypeEv
_ZN7Imf_3_114TypedAttributeIN9Imath_3_14Vec2IfEEE23unRegisterAttributeTypeEv
_ZN7Imf_3_114TypedAttributeIN9Imath_3_14Vec2IfEEE4castEPKNS_9AttributeE
_ZN7Imf_3_114TypedAttributeIN9Imath_3_14Vec2IfEEE4castEPNS_9AttributeE
_ZN7Imf_3_114TypedAttributeIN9Imath_3_14Vec2IfEEE4castERKNS_9AttributeE
_ZN7Imf_3_114TypedAttributeIN9Imath_3_14Vec2IfEEE4castERNS_9AttributeE
_ZN7Imf_3_114TypedAttributeIN9Imath_3_14Vec2IfEEE5valueEv
_ZN7Imf_3_114TypedAttributeIN9Imath_3_14Vec2IfEEEC1ERKS3_
_ZN7Imf_3_114TypedAttributeIN9Imath_3_14Vec2IfEEEC2ERKS3_
_ZN7Imf_3_114TypedAttributeIN9Imath_3_14Vec2IfEEED0Ev
_ZN7Imf_3_114TypedAttributeIN9Imath_3_14Vec2IfEEED1Ev
_ZN7Imf_3_114TypedAttributeIN9Imath_3_14Vec2IfEEED2Ev
_ZN7Imf_3_114TypedAttributeIN9Imath_3_14Vec2IiEEE13copyValueFromERKNS_9AttributeE
_ZN7Imf_3_114TypedAttributeIN9Imath_3_14Vec2IiEEE14staticTypeNameEv
_ZN7Imf_3_114TypedAttributeIN9Imath_3_14Vec2IiEEE16makeNewAttributeEv
_ZN7Imf_3_114TypedAttributeIN9Imath_3_14Vec2IiEEE21registerAttributeTypeEv
_ZN7Imf_3_114TypedAttributeIN9Imath_3_14Vec2IiEEE23unRegisterAttributeTypeEv
_ZN7Imf_3_114TypedAttributeIN9Imath_3_14Vec2IiEEE4castEPKNS_9AttributeE
_ZN7Imf_3_114TypedAttributeIN9Imath_3_14Vec2IiEEE4castEPNS_9AttributeE
_ZN7Imf_3_114TypedAttributeIN9Imath_3_14Vec2IiEEE4castERKNS_9AttributeE
_ZN7Imf_3_114TypedAttributeIN9Imath_3_14Vec2IiEEE4castERNS_9AttributeE
_ZN7Imf_3_114TypedAttributeIN9Imath_3_14Vec2IiEEE5valueEv
_ZN7Imf_3_114TypedAttributeIN9Imath_3_14Vec2IiEEEC1ERKS3_
_ZN7Imf_3_114TypedAttributeIN9Imath_3_14Vec2IiEEEC2ERKS3_
_ZN7Imf_3_114TypedAttributeIN9Imath_3_14Vec2IiEEED0Ev
_ZN7Imf_3_114TypedAttributeIN9Imath_3_14Vec2IiEEED1Ev
_ZN7Imf_3_114TypedAttributeIN9Imath_3_14Vec2IiEEED2Ev
_ZN7Imf_3_114TypedAttributeIN9Imath_3_14Vec3IdEEE13copyValueFromERKNS_9AttributeE
_ZN7Imf_3_114TypedAttributeIN9Imath_3_14Vec3IdEEE14staticTypeNameEv
_ZN7Imf_3_114TypedAttributeIN9Imath_3_14Vec3IdEEE16makeNewAttributeEv
_ZN7Imf_3_114TypedAttributeIN9Imath_3_14Vec3IdEEE21registerAttributeTypeEv
_ZN7Imf_3_114TypedAttributeIN9Imath_3_14Vec3IdEEE23unRegisterAttributeTypeEv
_ZN7Imf_3_114TypedAttributeIN9Imath_3_14Vec3IdEEE4castEPKNS_9AttributeE
_ZN7Imf_3_114TypedAttributeIN9Imath_3_14Vec3IdEEE4castEPNS_9AttributeE
_ZN7Imf_3_114TypedAttributeIN9Imath_3_14Vec3IdEEE4castERKNS_9AttributeE
_ZN7Imf_3_114TypedAttributeIN9Imath_3_14Vec3IdEEE4castERNS_9AttributeE
_ZN7Imf_3_114TypedAttributeIN9Imath_3_14Vec3IdEEE5valueEv
_ZN7Imf_3_114TypedAttributeIN9Imath_3_14Vec3IdEEEC1ERKS3_
_ZN7Imf_3_114TypedAttributeIN9Imath_3_14Vec3IdEEEC2ERKS3_
_ZN7Imf_3_114TypedAttributeIN9Imath_3_14Vec3IdEEED0Ev
_ZN7Imf_3_114TypedAttributeIN9Imath_3_14Vec3IdEEED1Ev
_ZN7Imf_3_114TypedAttributeIN9Imath_3_14Vec3IdEEED2Ev
_ZN7Imf_3_114TypedAttributeIN9Imath_3_14Vec3IfEEE13copyValueFromERKNS_9AttributeE
_ZN7Imf_3_114TypedAttributeIN9Imath_3_14Vec3IfEEE14staticTypeNameEv
_ZN7Imf_3_114TypedAttributeIN9Imath_3_14Vec3IfEEE16makeNewAttributeEv
_ZN7Imf_3_114TypedAttributeIN9Imath_3_14Vec3IfEEE21registerAttributeTypeEv
_ZN7Imf_3_114TypedAttributeIN9Imath_3_14Vec3IfEEE23unRegisterAttributeTypeEv
_ZN7Imf_3_114TypedAttributeIN9Imath_3_14Vec3IfEEE4castEPKNS_9AttributeE
_ZN7Imf_3_114TypedAttributeIN9Imath_3_14Vec3IfEEE4castEPNS_9AttributeE
_ZN7Imf_3_114TypedAttributeIN9Imath_3_14Vec3IfEEE4castERKNS_9AttributeE
_ZN7Imf_3_114TypedAttributeIN9Imath_3_14Vec3IfEEE4castERNS_9AttributeE
_ZN7Imf_3_114TypedAttributeIN9Imath_3_14Vec3IfEEE5valueEv
_ZN7Imf_3_114TypedAttributeIN9Imath_3_14Vec3IfEEEC1ERKS3_
_ZN7Imf_3_114TypedAttributeIN9Imath_3_14Vec3IfEEEC2ERKS3_
_ZN7Imf_3_114TypedAttributeIN9Imath_3_14Vec3IfEEED0Ev
_ZN7Imf_3_114TypedAttributeIN9Imath_3_14Vec3IfEEED1Ev
_ZN7Imf_3_114TypedAttributeIN9Imath_3_14Vec3IfEEED2Ev
_ZN7Imf_3_114TypedAttributeIN9Imath_3_14Vec3IiEEE13copyValueFromERKNS_9AttributeE
_ZN7Imf_3_114TypedAttributeIN9Imath_3_14Vec3IiEEE14staticTypeNameEv
_ZN7Imf_3_114TypedAttributeIN9Imath_3_14Vec3IiEEE16makeNewAttributeEv
_ZN7Imf_3_114TypedAttributeIN9Imath_3_14Vec3IiEEE21registerAttributeTypeEv
_ZN7Imf_3_114TypedAttributeIN9Imath_3_14Vec3IiEEE23unRegisterAttributeTypeEv
_ZN7Imf_3_114TypedAttributeIN9Imath_3_14Vec3IiEEE4castEPKNS_9AttributeE
_ZN7Imf_3_114TypedAttributeIN9Imath_3_14Vec3IiEEE4castEPNS_9AttributeE
_ZN7Imf_3_114TypedAttributeIN9Imath_3_14Vec3IiEEE4castERKNS_9AttributeE
_ZN7Imf_3_114TypedAttributeIN9Imath_3_14Vec3IiEEE4castERNS_9AttributeE
_ZN7Imf_3_114TypedAttributeIN9Imath_3_14Vec3IiEEE5valueEv
_ZN7Imf_3_114TypedAttributeIN9Imath_3_14Vec3IiEEEC1ERKS3_
_ZN7Imf_3_114TypedAttributeIN9Imath_3_14Vec3IiEEEC2ERKS3_
_ZN7Imf_3_114TypedAttributeIN9Imath_3_14Vec3IiEEED0Ev
_ZN7Imf_3_114TypedAttributeIN9Imath_3_14Vec3IiEEED1Ev
_ZN7Imf_3_114TypedAttributeIN9Imath_3_14Vec3IiEEED2Ev
_ZN7Imf_3_114TypedAttributeIN9Imath_3_18Matrix33IdEEE13copyValueFromERKNS_9AttributeE
_ZN7Imf_3_114TypedAttributeIN9Imath_3_18Matrix33IdEEE14staticTypeNameEv
_ZN7Imf_3_114TypedAttributeIN9Imath_3_18Matrix33IdEEE16makeNewAttributeEv
_ZN7Imf_3_114TypedAttributeIN9Imath_3_18Matrix33IdEEE21registerAttributeTypeEv
_ZN7Imf_3_114TypedAttributeIN9Imath_3_18Matrix33IdEEE23unRegisterAttributeTypeEv
_ZN7Imf_3_114TypedAttributeIN9Imath_3_18Matrix33IdEEE4castEPKNS_9AttributeE
_ZN7Imf_3_114TypedAttributeIN9Imath_3_18Matrix33IdEEE4castEPNS_9AttributeE
_ZN7Imf_3_114TypedAttributeIN9Imath_3_18Matrix33IdEEE4castERKNS_9AttributeE
_ZN7Imf_3_114TypedAttributeIN9Imath_3_18Matrix33IdEEE4castERNS_9AttributeE
_ZN7Imf_3_114TypedAttributeIN9Imath_3_18Matrix33IdEEE5valueEv
_ZN7Imf_3_114TypedAttributeIN9Imath_3_18Matrix33IdEEEC1ERKS3_
_ZN7Imf_3_114TypedAttributeIN9Imath_3_18Matrix33IdEEEC2ERKS3_
_ZN7Imf_3_114TypedAttributeIN9Imath_3_18Matrix33IdEEED0Ev
_ZN7Imf_3_114TypedAttributeIN9Imath_3_18Matrix33IdEEED1Ev
_ZN7Imf_3_114TypedAttributeIN9Imath_3_18Matrix33IdEEED2Ev
_ZN7Imf_3_114TypedAttributeIN9Imath_3_18Matrix33IfEEE13copyValueFromERKNS_9AttributeE
_ZN7Imf_3_114TypedAttributeIN9Imath_3_18Matrix33IfEEE14staticTypeNameEv
_ZN7Imf_3_114TypedAttributeIN9Imath_3_18Matrix33IfEEE16makeNewAttributeEv
_ZN7Imf_3_114TypedAttributeIN9Imath_3_18Matrix33IfEEE21registerAttributeTypeEv
_ZN7Imf_3_114TypedAttributeIN9Imath_3_18Matrix33IfEEE23unRegisterAttributeTypeEv
_ZN7Imf_3_114TypedAttributeIN9Imath_3_18Matrix33IfEEE4castEPKNS_9AttributeE
_ZN7Imf_3_114TypedAttributeIN9Imath_3_18Matrix33IfEEE4castEPNS_9AttributeE
_ZN7Imf_3_114TypedAttributeIN9Imath_3_18Matrix33IfEEE4castERKNS_9AttributeE
_ZN7Imf_3_114TypedAttributeIN9Imath_3_18Matrix33IfEEE4castERNS_9AttributeE
_ZN7Imf_3_114TypedAttributeIN9Imath_3_18Matrix33IfEEE5valueEv
_ZN7Imf_3_114TypedAttributeIN9Imath_3_18Matrix33IfEEEC1ERKS3_
_ZN7Imf_3_114TypedAttributeIN9Imath_3_18Matrix33IfEEEC2ERKS3_
_ZN7Imf_3_114TypedAttributeIN9Imath_3_18Matrix33IfEEED0Ev
_ZN7Imf_3_114TypedAttributeIN9Imath_3_18Matrix33IfEEED1Ev
_ZN7Imf_3_114TypedAttributeIN9Imath_3_18Matrix33IfEEED2Ev
_ZN7Imf_3_114TypedAttributeIN9Imath_3_18Matrix44IdEEE13copyValueFromERKNS_9AttributeE
_ZN7Imf_3_114TypedAttributeIN9Imath_3_18Matrix44IdEEE14staticTypeNameEv
_ZN7Imf_3_114TypedAttributeIN9Imath_3_18Matrix44IdEEE16makeNewAttributeEv
_ZN7Imf_3_114TypedAttributeIN9Imath_3_18Matrix44IdEEE21registerAttributeTypeEv
_ZN7Imf_3_114TypedAttributeIN9Imath_3_18Matrix44IdEEE23unRegisterAttributeTypeEv
_ZN7Imf_3_114TypedAttributeIN9Imath_3_18Matrix44IdEEE4castEPKNS_9AttributeE
_ZN7Imf_3_114TypedAttributeIN9Imath_3_18Matrix44IdEEE4castEPNS_9AttributeE
_ZN7Imf_3_114TypedAttributeIN9Imath_3_18Matrix44IdEEE4castERKNS_9AttributeE
_ZN7Imf_3_114TypedAttributeIN9Imath_3_18Matrix44IdEEE4castERNS_9AttributeE
_ZN7Imf_3_114TypedAttributeIN9Imath_3_18Matrix44IdEEE5valueEv
_ZN7Imf_3_114TypedAttributeIN9Imath_3_18Matrix44IdEEEC1ERKS3_
_ZN7Imf_3_114TypedAttributeIN9Imath_3_18Matrix44IdEEEC2ERKS3_
_ZN7Imf_3_114TypedAttributeIN9Imath_3_18Matrix44IdEEED0Ev
_ZN7Imf_3_114TypedAttributeIN9Imath_3_18Matrix44IdEEED1Ev
_ZN7Imf_3_114TypedAttributeIN9Imath_3_18Matrix44IdEEED2Ev
_ZN7Imf_3_114TypedAttributeIN9Imath_3_18Matrix44IfEEE13copyValueFromERKNS_9AttributeE
_ZN7Imf_3_114TypedAttributeIN9Imath_3_18Matrix44IfEEE14staticTypeNameEv
_ZN7Imf_3_114TypedAttributeIN9Imath_3_18Matrix44IfEEE16makeNewAttributeEv
_ZN7Imf_3_114TypedAttributeIN9Imath_3_18Matrix44IfEEE21registerAttributeTypeEv
_ZN7Imf_3_114TypedAttributeIN9Imath_3_18Matrix44IfEEE23unRegisterAttributeTypeEv
_ZN7Imf_3_114TypedAttributeIN9Imath_3_18Matrix44IfEEE4castEPKNS_9AttributeE
_ZN7Imf_3_114TypedAttributeIN9Imath_3_18Matrix44IfEEE4castEPNS_9AttributeE
_ZN7Imf_3_114TypedAttributeIN9Imath_3_18Matrix44IfEEE4castERKNS_9AttributeE
_ZN7Imf_3_114TypedAttributeIN9Imath_3_18Matrix44IfEEE4castERNS_9AttributeE
_ZN7Imf_3_114TypedAttributeIN9Imath_3_18Matrix44IfEEE5valueEv
_ZN7Imf_3_114TypedAttributeIN9Imath_3_18Matrix44IfEEEC1ERKS3_
_ZN7Imf_3_114TypedAttributeIN9Imath_3_18Matrix44IfEEEC2ERKS3_
_ZN7Imf_3_114TypedAttributeIN9Imath_3_18Matrix44IfEEED0Ev
_ZN7Imf_3_114TypedAttributeIN9Imath_3_18Matrix44IfEEED1Ev
_ZN7Imf_3_114TypedAttributeIN9Imath_3_18Matrix44IfEEED2Ev
_ZN7Imf_3_114TypedAttributeINS_11ChannelListEE13copyValueFromERKNS_9AttributeE
_ZN7Imf_3_114TypedAttributeINS_11ChannelListEE14staticTypeNameEv
_ZN7Imf_3_114TypedAttributeINS_11ChannelListEE16makeNewAttributeEv
_ZN7Imf_3_114TypedAttributeINS_11ChannelListEE21registerAttributeTypeEv
_ZN7Imf_3_114TypedAttributeINS_11ChannelListEE23unRegisterAttributeTypeEv
_ZN7Imf_3_114TypedAttributeINS_11ChannelListEE4castEPKNS_9AttributeE
_ZN7Imf_3_114TypedAttributeINS_11ChannelListEE4castEPNS_9AttributeE
_ZN7Imf_3_114TypedAttributeINS_11ChannelListEE4castERKNS_9AttributeE
_ZN7Imf_3_114TypedAttributeINS_11ChannelListEE4castERNS_9AttributeE
_ZN7Imf_3_114TypedAttributeINS_11ChannelListEE5valueEv
_ZN7Imf_3_114TypedAttributeINS_11ChannelListEEC1ERKS1_
_ZN7Imf_3_114TypedAttributeINS_11ChannelListEEC1Ev
_ZN7Imf_3_114TypedAttributeINS_11ChannelListEEC2ERKS1_
_ZN7Imf_3_114TypedAttributeINS_11ChannelListEEC2Ev
_ZN7Imf_3_114TypedAttributeINS_11ChannelListEED0Ev
_ZN7Imf_3_114TypedAttributeINS_11ChannelListEED1Ev
_ZN7Imf_3_114TypedAttributeINS_11ChannelListEED2Ev
_ZN7Imf_3_114TypedAttributeINS_11CompressionEE13copyValueFromERKNS_9AttributeE
_ZN7Imf_3_114TypedAttributeINS_11CompressionEE14staticTypeNameEv
_ZN7Imf_3_114TypedAttributeINS_11CompressionEE16makeNewAttributeEv
_ZN7Imf_3_114TypedAttributeINS_11CompressionEE21registerAttributeTypeEv
_ZN7Imf_3_114TypedAttributeINS_11CompressionEE23unRegisterAttributeTypeEv
_ZN7Imf_3_114TypedAttributeINS_11CompressionEE4castEPKNS_9AttributeE
_ZN7Imf_3_114TypedAttributeINS_11CompressionEE4castEPNS_9AttributeE
_ZN7Imf_3_114TypedAttributeINS_11CompressionEE4castERKNS_9AttributeE
_ZN7Imf_3_114TypedAttributeINS_11CompressionEE4castERNS_9AttributeE
_ZN7Imf_3_114TypedAttributeINS_11CompressionEE5valueEv
_ZN7Imf_3_114TypedAttributeINS_11CompressionEEC1ERKS1_
_ZN7Imf_3_114TypedAttributeINS_11CompressionEEC2ERKS1_
_ZN7Imf_3_114TypedAttributeINS_11CompressionEED0Ev
_ZN7Imf_3_114TypedAttributeINS_11CompressionEED1Ev
_ZN7Imf_3_114TypedAttributeINS_11CompressionEED2Ev
_ZN7Imf_3_114TypedAttributeINS_12PreviewImageEE13copyValueFromERKNS_9AttributeE
_ZN7Imf_3_114TypedAttributeINS_12PreviewImageEE14staticTypeNameEv
_ZN7Imf_3_114TypedAttributeINS_12PreviewImageEE16makeNewAttributeEv
_ZN7Imf_3_114TypedAttributeINS_12PreviewImageEE21registerAttributeTypeEv
_ZN7Imf_3_114TypedAttributeINS_12PreviewImageEE23unRegisterAttributeTypeEv
_ZN7Imf_3_114TypedAttributeINS_12PreviewImageEE4castEPKNS_9AttributeE
_ZN7Imf_3_114TypedAttributeINS_12PreviewImageEE4castEPNS_9AttributeE
_ZN7Imf_3_114TypedAttributeINS_12PreviewImageEE4castERKNS_9AttributeE
_ZN7Imf_3_114TypedAttributeINS_12PreviewImageEE4castERNS_9AttributeE
_ZN7Imf_3_114TypedAttributeINS_12PreviewImageEE5valueEv
_ZN7Imf_3_114TypedAttributeINS_12PreviewImageEEC1ERKS1_
_ZN7Imf_3_114TypedAttributeINS_12PreviewImageEEC2ERKS1_
_ZN7Imf_3_114TypedAttributeINS_12PreviewImageEED0Ev
_ZN7Imf_3_114TypedAttributeINS_12PreviewImageEED1Ev
_ZN7Imf_3_114TypedAttributeINS_12PreviewImageEED2Ev
_ZN7Imf_3_114TypedAttributeINS_14ChromaticitiesEE13copyValueFromERKNS_9AttributeE
_ZN7Imf_3_114TypedAttributeINS_14ChromaticitiesEE14staticTypeNameEv
_ZN7Imf_3_114TypedAttributeINS_14ChromaticitiesEE16makeNewAttributeEv
_ZN7Imf_3_114TypedAttributeINS_14ChromaticitiesEE21registerAttributeTypeEv
_ZN7Imf_3_114TypedAttributeINS_14ChromaticitiesEE23unRegisterAttributeTypeEv
_ZN7Imf_3_114TypedAttributeINS_14ChromaticitiesEE4castEPKNS_9AttributeE
_ZN7Imf_3_114TypedAttributeINS_14ChromaticitiesEE4castEPNS_9AttributeE
_ZN7Imf_3_114TypedAttributeINS_14ChromaticitiesEE4castERKNS_9AttributeE
_ZN7Imf_3_114TypedAttributeINS_14ChromaticitiesEE4castERNS_9AttributeE
_ZN7Imf_3_114TypedAttributeINS_14ChromaticitiesEE5valueEv
_ZN7Imf_3_114TypedAttributeINS_14ChromaticitiesEEC1ERKS1_
_ZN7Imf_3_114TypedAttributeINS_14ChromaticitiesEEC2ERKS1_
_ZN7Imf_3_114TypedAttributeINS_14ChromaticitiesEED0Ev
_ZN7Imf_3_114TypedAttributeINS_14ChromaticitiesEED1Ev
_ZN7Imf_3_114TypedAttributeINS_14ChromaticitiesEED2Ev
_ZN7Imf_3_114TypedAttributeINS_14DeepImageStateEE14staticTypeNameEv
_ZN7Imf_3_114TypedAttributeINS_14DeepImageStateEE16makeNewAttributeEv
_ZN7Imf_3_114TypedAttributeINS_14DeepImageStateEE21registerAttributeTypeEv
_ZN7Imf_3_114TypedAttributeINS_14DeepImageStateEE23unRegisterAttributeTypeEv
_ZN7Imf_3_114TypedAttributeINS_14DeepImageStateEE4castEPKNS_9AttributeE
_ZN7Imf_3_114TypedAttributeINS_14DeepImageStateEE4castEPNS_9AttributeE
_ZN7Imf_3_114TypedAttributeINS_14DeepImageStateEE4castERKNS_9AttributeE
_ZN7Imf_3_114TypedAttributeINS_14DeepImageStateEE4castERNS_9AttributeE
_ZN7Imf_3_114TypedAttributeINS_14DeepImageStateEE5valueEv
_ZN7Imf_3_114TypedAttributeINS_14DeepImageStateEEC1ERKS1_
_ZN7Imf_3_114TypedAttributeINS_14DeepImageStateEEC2ERKS1_
_ZN7Imf_3_114TypedAttributeINS_14DeepImageStateEED0Ev
_ZN7Imf_3_114TypedAttributeINS_14DeepImageStateEED1Ev
_ZN7Imf_3_114TypedAttributeINS_14DeepImageStateEED2Ev
_ZN7Imf_3_114TypedAttributeINS_15TileDescriptionEE13copyValueFromERKNS_9AttributeE
_ZN7Imf_3_114TypedAttributeINS_15TileDescriptionEE14staticTypeNameEv
_ZN7Imf_3_114TypedAttributeINS_15TileDescriptionEE16makeNewAttributeEv
_ZN7Imf_3_114TypedAttributeINS_15TileDescriptionEE21registerAttributeTypeEv
_ZN7Imf_3_114TypedAttributeINS_15TileDescriptionEE23unRegisterAttributeTypeEv
_ZN7Imf_3_114TypedAttributeINS_15TileDescriptionEE4castEPKNS_9AttributeE
_ZN7Imf_3_114TypedAttributeINS_15TileDescriptionEE4castEPNS_9AttributeE
_ZN7Imf_3_114TypedAttributeINS_15TileDescriptionEE4castERKNS_9AttributeE
_ZN7Imf_3_114TypedAttributeINS_15TileDescriptionEE4castERNS_9AttributeE
_ZN7Imf_3_114TypedAttributeINS_15TileDescriptionEE5valueEv
_ZN7Imf_3_114TypedAttributeINS_15TileDescriptionEEC1ERKS1_
_ZN7Imf_3_114TypedAttributeINS_15TileDescriptionEEC2ERKS1_
_ZN7Imf_3_114TypedAttributeINS_15TileDescriptionEED0Ev
_ZN7Imf_3_114TypedAttributeINS_15TileDescriptionEED1Ev
_ZN7Imf_3_114TypedAttributeINS_15TileDescriptionEED2Ev
_ZN7Imf_3_114TypedAttributeINS_20CompressedIDManifestEE13copyValueFromERKNS_9AttributeE
_ZN7Imf_3_114TypedAttributeINS_20CompressedIDManifestEE14staticTypeNameEv
_ZN7Imf_3_114TypedAttributeINS_20CompressedIDManifestEE16makeNewAttributeEv
_ZN7Imf_3_114TypedAttributeINS_20CompressedIDManifestEE21registerAttributeTypeEv
_ZN7Imf_3_114TypedAttributeINS_20CompressedIDManifestEE23unRegisterAttributeTypeEv
_ZN7Imf_3_114TypedAttributeINS_20CompressedIDManifestEE4castEPKNS_9AttributeE
_ZN7Imf_3_114TypedAttributeINS_20CompressedIDManifestEE4castEPNS_9AttributeE
_ZN7Imf_3_114TypedAttributeINS_20CompressedIDManifestEE4castERKNS_9AttributeE
_ZN7Imf_3_114TypedAttributeINS_20CompressedIDManifestEE4castERNS_9AttributeE
_ZN7Imf_3_114TypedAttributeINS_20CompressedIDManifestEE5valueEv
_ZN7Imf_3_114TypedAttributeINS_20CompressedIDManifestEEC1ERKS1_
_ZN7Imf_3_114TypedAttributeINS_20CompressedIDManifestEEC2ERKS1_
_ZN7Imf_3_114TypedAttributeINS_20CompressedIDManifestEED0Ev
_ZN7Imf_3_114TypedAttributeINS_20CompressedIDManifestEED1Ev
_ZN7Imf_3_114TypedAttributeINS_20CompressedIDManifestEED2Ev
_ZN7Imf_3_114TypedAttributeINS_6EnvmapEE14staticTypeNameEv
_ZN7Imf_3_114TypedAttributeINS_6EnvmapEE16makeNewAttributeEv
_ZN7Imf_3_114TypedAttributeINS_6EnvmapEE21registerAttributeTypeEv
_ZN7Imf_3_114TypedAttributeINS_6EnvmapEE23unRegisterAttributeTypeEv
_ZN7Imf_3_114TypedAttributeINS_6EnvmapEE4castEPKNS_9AttributeE
_ZN7Imf_3_114TypedAttributeINS_6EnvmapEE4castEPNS_9AttributeE
_ZN7Imf_3_114TypedAttributeINS_6EnvmapEE4castERKNS_9AttributeE
_ZN7Imf_3_114TypedAttributeINS_6EnvmapEE4castERNS_9AttributeE
_ZN7Imf_3_114TypedAttributeINS_6EnvmapEE5valueEv
_ZN7Imf_3_114TypedAttributeINS_6EnvmapEEC1ERKS1_
_ZN7Imf_3_114TypedAttributeINS_6EnvmapEEC2ERKS1_
_ZN7Imf_3_114TypedAttributeINS_6EnvmapEED0Ev
_ZN7Imf_3_114TypedAttributeINS_6EnvmapEED1Ev
_ZN7Imf_3_114TypedAttributeINS_6EnvmapEED2Ev
_ZN7Imf_3_114TypedAttributeINS_7KeyCodeEE13copyValueFromERKNS_9AttributeE
_ZN7Imf_3_114TypedAttributeINS_7KeyCodeEE14staticTypeNameEv
_ZN7Imf_3_114TypedAttributeINS_7KeyCodeEE16makeNewAttributeEv
_ZN7Imf_3_114TypedAttributeINS_7KeyCodeEE21registerAttributeTypeEv
_ZN7Imf_3_114TypedAttributeINS_7KeyCodeEE23unRegisterAttributeTypeEv
_ZN7Imf_3_114TypedAttributeINS_7KeyCodeEE4castEPKNS_9AttributeE
_ZN7Imf_3_114TypedAttributeINS_7KeyCodeEE4castEPNS_9AttributeE
_ZN7Imf_3_114TypedAttributeINS_7KeyCodeEE4castERKNS_9AttributeE
_ZN7Imf_3_114TypedAttributeINS_7KeyCodeEE4castERNS_9AttributeE
_ZN7Imf_3_114TypedAttributeINS_7KeyCodeEE5valueEv
_ZN7Imf_3_114TypedAttributeINS_7KeyCodeEEC1ERKS1_
_ZN7Imf_3_114TypedAttributeINS_7KeyCodeEEC2ERKS1_
_ZN7Imf_3_114TypedAttributeINS_7KeyCodeEED0Ev
_ZN7Imf_3_114TypedAttributeINS_7KeyCodeEED1Ev
_ZN7Imf_3_114TypedAttributeINS_7KeyCodeEED2Ev
_ZN7Imf_3_114TypedAttributeINS_8RationalEE13copyValueFromERKNS_9AttributeE
_ZN7Imf_3_114TypedAttributeINS_8RationalEE14staticTypeNameEv
_ZN7Imf_3_114TypedAttributeINS_8RationalEE16makeNewAttributeEv
_ZN7Imf_3_114TypedAttributeINS_8RationalEE21registerAttributeTypeEv
_ZN7Imf_3_114TypedAttributeINS_8RationalEE23unRegisterAttributeTypeEv
_ZN7Imf_3_114TypedAttributeINS_8RationalEE4castEPKNS_9AttributeE
_ZN7Imf_3_114TypedAttributeINS_8RationalEE4castEPNS_9AttributeE
_ZN7Imf_3_114TypedAttributeINS_8RationalEE4castERKNS_9AttributeE
_ZN7Imf_3_114TypedAttributeINS_8RationalEE4castERNS_9AttributeE
_ZN7Imf_3_114TypedAttributeINS_8RationalEE5valueEv
_ZN7Imf_3_114TypedAttributeINS_8RationalEEC1ERKS1_
_ZN7Imf_3_114TypedAttributeINS_8RationalEEC2ERKS1_
_ZN7Imf_3_114TypedAttributeINS_8RationalEED0Ev
_ZN7Imf_3_114TypedAttributeINS_8RationalEED1Ev
_ZN7Imf_3_114TypedAttributeINS_8RationalEED2Ev
_ZN7Imf_3_114TypedAttributeINS_8TimeCodeEE13copyValueFromERKNS_9AttributeE
_ZN7Imf_3_114TypedAttributeINS_8TimeCodeEE14staticTypeNameEv
_ZN7Imf_3_114TypedAttributeINS_8TimeCodeEE16makeNewAttributeEv
_ZN7Imf_3_114TypedAttributeINS_8TimeCodeEE21registerAttributeTypeEv
_ZN7Imf_3_114TypedAttributeINS_8TimeCodeEE23unRegisterAttributeTypeEv
_ZN7Imf_3_114TypedAttributeINS_8TimeCodeEE4castEPKNS_9AttributeE
_ZN7Imf_3_114TypedAttributeINS_8TimeCodeEE4castEPNS_9AttributeE
_ZN7Imf_3_114TypedAttributeINS_8TimeCodeEE4castERKNS_9AttributeE
_ZN7Imf_3_114TypedAttributeINS_8TimeCodeEE4castERNS_9AttributeE
_ZN7Imf_3_114TypedAttributeINS_8TimeCodeEE5valueEv
_ZN7Imf_3_114TypedAttributeINS_8TimeCodeEEC1ERKS1_
_ZN7Imf_3_114TypedAttributeINS_8TimeCodeEEC2ERKS1_
_ZN7Imf_3_114TypedAttributeINS_8TimeCodeEED0Ev
_ZN7Imf_3_114TypedAttributeINS_8TimeCodeEED1Ev
_ZN7Imf_3_114TypedAttributeINS_8TimeCodeEED2Ev
_ZN7Imf_3_114TypedAttributeINS_9LineOrderEE13copyValueFromERKNS_9AttributeE
_ZN7Imf_3_114TypedAttributeINS_9LineOrderEE14staticTypeNameEv
_ZN7Imf_3_114TypedAttributeINS_9LineOrderEE16makeNewAttributeEv
_ZN7Imf_3_114TypedAttributeINS_9LineOrderEE21registerAttributeTypeEv
_ZN7Imf_3_114TypedAttributeINS_9LineOrderEE23unRegisterAttributeTypeEv
_ZN7Imf_3_114TypedAttributeINS_9LineOrderEE4castEPKNS_9AttributeE
_ZN7Imf_3_114TypedAttributeINS_9LineOrderEE4castEPNS_9AttributeE
_ZN7Imf_3_114TypedAttributeINS_9LineOrderEE4castERKNS_9AttributeE
_ZN7Imf_3_114TypedAttributeINS_9LineOrderEE4castERNS_9AttributeE
_ZN7Imf_3_114TypedAttributeINS_9LineOrderEE5valueEv
_ZN7Imf_3_114TypedAttributeINS_9LineOrderEEC1ERKS1_
_ZN7Imf_3_114TypedAttributeINS_9LineOrderEEC2ERKS1_
_ZN7Imf_3_114TypedAttributeINS_9LineOrderEED0Ev
_ZN7Imf_3_114TypedAttributeINS_9LineOrderEED1Ev
_ZN7Imf_3_114TypedAttributeINS_9LineOrderEED2Ev
_ZN7Imf_3_114TypedAttributeINSt3__112basic_stringIcNS1_11char_traitsIcEENS1_9allocatorIcEEEEE13copyValueFromERKNS_9AttributeE
_ZN7Imf_3_114TypedAttributeINSt3__112basic_stringIcNS1_11char_traitsIcEENS1_9allocatorIcEEEEE14staticTypeNameEv
_ZN7Imf_3_114TypedAttributeINSt3__112basic_stringIcNS1_11char_traitsIcEENS1_9allocatorIcEEEEE16makeNewAttributeEv
_ZN7Imf_3_114TypedAttributeINSt3__112basic_stringIcNS1_11char_traitsIcEENS1_9allocatorIcEEEEE21registerAttributeTypeEv
_ZN7Imf_3_114TypedAttributeINSt3__112basic_stringIcNS1_11char_traitsIcEENS1_9allocatorIcEEEEE23unRegisterAttributeTypeEv
_ZN7Imf_3_114TypedAttributeINSt3__112basic_stringIcNS1_11char_traitsIcEENS1_9allocatorIcEEEEE4castEPKNS_9AttributeE
_ZN7Imf_3_114TypedAttributeINSt3__112basic_stringIcNS1_11char_traitsIcEENS1_9allocatorIcEEEEE4castEPNS_9AttributeE
_ZN7Imf_3_114TypedAttributeINSt3__112basic_stringIcNS1_11char_traitsIcEENS1_9allocatorIcEEEEE4castERKNS_9AttributeE
_ZN7Imf_3_114TypedAttributeINSt3__112basic_stringIcNS1_11char_traitsIcEENS1_9allocatorIcEEEEE4castERNS_9AttributeE
_ZN7Imf_3_114TypedAttributeINSt3__112basic_stringIcNS1_11char_traitsIcEENS1_9allocatorIcEEEEE5valueEv
_ZN7Imf_3_114TypedAttributeINSt3__112basic_stringIcNS1_11char_traitsIcEENS1_9allocatorIcEEEEEC1ERKS7_
_ZN7Imf_3_114TypedAttributeINSt3__112basic_stringIcNS1_11char_traitsIcEENS1_9allocatorIcEEEEEC2ERKS7_
_ZN7Imf_3_114TypedAttributeINSt3__112basic_stringIcNS1_11char_traitsIcEENS1_9allocatorIcEEEEED0Ev
_ZN7Imf_3_114TypedAttributeINSt3__112basic_stringIcNS1_11char_traitsIcEENS1_9allocatorIcEEEEED1Ev
_ZN7Imf_3_114TypedAttributeINSt3__112basic_stringIcNS1_11char_traitsIcEENS1_9allocatorIcEEEEED2Ev
_ZN7Imf_3_114TypedAttributeINSt3__16vectorINS1_12basic_stringIcNS1_11char_traitsIcEENS1_9allocatorIcEEEENS6_IS8_EEEEE13copyValueFromERKNS_9AttributeE
_ZN7Imf_3_114TypedAttributeINSt3__16vectorINS1_12basic_stringIcNS1_11char_traitsIcEENS1_9allocatorIcEEEENS6_IS8_EEEEE14staticTypeNameEv
_ZN7Imf_3_114TypedAttributeINSt3__16vectorINS1_12basic_stringIcNS1_11char_traitsIcEENS1_9allocatorIcEEEENS6_IS8_EEEEE16makeNewAttributeEv
_ZN7Imf_3_114TypedAttributeINSt3__16vectorINS1_12basic_stringIcNS1_11char_traitsIcEENS1_9allocatorIcEEEENS6_IS8_EEEEE21registerAttributeTypeEv
_ZN7Imf_3_114TypedAttributeINSt3__16vectorINS1_12basic_stringIcNS1_11char_traitsIcEENS1_9allocatorIcEEEENS6_IS8_EEEEE23unRegisterAttributeTypeEv
_ZN7Imf_3_114TypedAttributeINSt3__16vectorINS1_12basic_stringIcNS1_11char_traitsIcEENS1_9allocatorIcEEEENS6_IS8_EEEEE4castEPKNS_9AttributeE
_ZN7Imf_3_114TypedAttributeINSt3__16vectorINS1_12basic_stringIcNS1_11char_traitsIcEENS1_9allocatorIcEEEENS6_IS8_EEEEE4castEPNS_9AttributeE
_ZN7Imf_3_114TypedAttributeINSt3__16vectorINS1_12basic_stringIcNS1_11char_traitsIcEENS1_9allocatorIcEEEENS6_IS8_EEEEE4castERKNS_9AttributeE
_ZN7Imf_3_114TypedAttributeINSt3__16vectorINS1_12basic_stringIcNS1_11char_traitsIcEENS1_9allocatorIcEEEENS6_IS8_EEEEE4castERNS_9AttributeE
_ZN7Imf_3_114TypedAttributeINSt3__16vectorINS1_12basic_stringIcNS1_11char_traitsIcEENS1_9allocatorIcEEEENS6_IS8_EEEEE5valueEv
_ZN7Imf_3_114TypedAttributeINSt3__16vectorINS1_12basic_stringIcNS1_11char_traitsIcEENS1_9allocatorIcEEEENS6_IS8_EEEEEC1ERKSA_
_ZN7Imf_3_114TypedAttributeINSt3__16vectorINS1_12basic_stringIcNS1_11char_traitsIcEENS1_9allocatorIcEEEENS6_IS8_EEEEEC2ERKSA_
_ZN7Imf_3_114TypedAttributeINSt3__16vectorINS1_12basic_stringIcNS1_11char_traitsIcEENS1_9allocatorIcEEEENS6_IS8_EEEEED0Ev
_ZN7Imf_3_114TypedAttributeINSt3__16vectorINS1_12basic_stringIcNS1_11char_traitsIcEENS1_9allocatorIcEEEENS6_IS8_EEEEED1Ev
_ZN7Imf_3_114TypedAttributeINSt3__16vectorINS1_12basic_stringIcNS1_11char_traitsIcEENS1_9allocatorIcEEEENS6_IS8_EEEEED2Ev
_ZN7Imf_3_114TypedAttributeINSt3__16vectorIfNS1_9allocatorIfEEEEE13copyValueFromERKNS_9AttributeE
_ZN7Imf_3_114TypedAttributeINSt3__16vectorIfNS1_9allocatorIfEEEEE14staticTypeNameEv
_ZN7Imf_3_114TypedAttributeINSt3__16vectorIfNS1_9allocatorIfEEEEE16makeNewAttributeEv
_ZN7Imf_3_114TypedAttributeINSt3__16vectorIfNS1_9allocatorIfEEEEE21registerAttributeTypeEv
_ZN7Imf_3_114TypedAttributeINSt3__16vectorIfNS1_9allocatorIfEEEEE23unRegisterAttributeTypeEv
_ZN7Imf_3_114TypedAttributeINSt3__16vectorIfNS1_9allocatorIfEEEEE4castEPKNS_9AttributeE
_ZN7Imf_3_114TypedAttributeINSt3__16vectorIfNS1_9allocatorIfEEEEE4castEPNS_9AttributeE
_ZN7Imf_3_114TypedAttributeINSt3__16vectorIfNS1_9allocatorIfEEEEE4castERKNS_9AttributeE
_ZN7Imf_3_114TypedAttributeINSt3__16vectorIfNS1_9allocatorIfEEEEE4castERNS_9AttributeE
_ZN7Imf_3_114TypedAttributeINSt3__16vectorIfNS1_9allocatorIfEEEEE5valueEv
_ZN7Imf_3_114TypedAttributeINSt3__16vectorIfNS1_9allocatorIfEEEEEC1ERKS5_
_ZN7Imf_3_114TypedAttributeINSt3__16vectorIfNS1_9allocatorIfEEEEEC2ERKS5_
_ZN7Imf_3_114TypedAttributeINSt3__16vectorIfNS1_9allocatorIfEEEEED0Ev
_ZN7Imf_3_114TypedAttributeINSt3__16vectorIfNS1_9allocatorIfEEEEED1Ev
_ZN7Imf_3_114TypedAttributeINSt3__16vectorIfNS1_9allocatorIfEEEEED2Ev
_ZN7Imf_3_114TypedAttributeIdE13copyValueFromERKNS_9AttributeE
_ZN7Imf_3_114TypedAttributeIdE13readValueFromERNS_7IStreamEii
_ZN7Imf_3_114TypedAttributeIdE14staticTypeNameEv
_ZN7Imf_3_114TypedAttributeIdE16makeNewAttributeEv
_ZN7Imf_3_114TypedAttributeIdE21registerAttributeTypeEv
_ZN7Imf_3_114TypedAttributeIdE23unRegisterAttributeTypeEv
_ZN7Imf_3_114TypedAttributeIdE4castEPKNS_9AttributeE
_ZN7Imf_3_114TypedAttributeIdE4castEPNS_9AttributeE
_ZN7Imf_3_114TypedAttributeIdE4castERKNS_9AttributeE
_ZN7Imf_3_114TypedAttributeIdE4castERNS_9AttributeE
_ZN7Imf_3_114TypedAttributeIdE5valueEv
_ZN7Imf_3_114TypedAttributeIdEC1ERKd
_ZN7Imf_3_114TypedAttributeIdEC2ERKd
_ZN7Imf_3_114TypedAttributeIdED0Ev
_ZN7Imf_3_114TypedAttributeIdED1Ev
_ZN7Imf_3_114TypedAttributeIdED2Ev
_ZN7Imf_3_114TypedAttributeIfE13copyValueFromERKNS_9AttributeE
_ZN7Imf_3_114TypedAttributeIfE13readValueFromERNS_7IStreamEii
_ZN7Imf_3_114TypedAttributeIfE14staticTypeNameEv
_ZN7Imf_3_114TypedAttributeIfE16makeNewAttributeEv
_ZN7Imf_3_114TypedAttributeIfE21registerAttributeTypeEv
_ZN7Imf_3_114TypedAttributeIfE23unRegisterAttributeTypeEv
_ZN7Imf_3_114TypedAttributeIfE4castEPKNS_9AttributeE
_ZN7Imf_3_114TypedAttributeIfE4castEPNS_9AttributeE
_ZN7Imf_3_114TypedAttributeIfE4castERKNS_9AttributeE
_ZN7Imf_3_114TypedAttributeIfE4castERNS_9AttributeE
_ZN7Imf_3_114TypedAttributeIfE5valueEv
_ZN7Imf_3_114TypedAttributeIfEC1ERKf
_ZN7Imf_3_114TypedAttributeIfEC2ERKf
_ZN7Imf_3_114TypedAttributeIfED0Ev
_ZN7Imf_3_114TypedAttributeIfED1Ev
_ZN7Imf_3_114TypedAttributeIfED2Ev
_ZN7Imf_3_114TypedAttributeIiE13copyValueFromERKNS_9AttributeE
_ZN7Imf_3_114TypedAttributeIiE13readValueFromERNS_7IStreamEii
_ZN7Imf_3_114TypedAttributeIiE14staticTypeNameEv
_ZN7Imf_3_114TypedAttributeIiE16makeNewAttributeEv
_ZN7Imf_3_114TypedAttributeIiE21registerAttributeTypeEv
_ZN7Imf_3_114TypedAttributeIiE23unRegisterAttributeTypeEv
_ZN7Imf_3_114TypedAttributeIiE4castEPKNS_9AttributeE
_ZN7Imf_3_114TypedAttributeIiE4castEPNS_9AttributeE
_ZN7Imf_3_114TypedAttributeIiE4castERKNS_9AttributeE
_ZN7Imf_3_114TypedAttributeIiE4castERNS_9AttributeE
_ZN7Imf_3_114TypedAttributeIiE5valueEv
_ZN7Imf_3_114TypedAttributeIiEC1ERKi
_ZN7Imf_3_114TypedAttributeIiEC2ERKi
_ZN7Imf_3_114TypedAttributeIiED0Ev
_ZN7Imf_3_114TypedAttributeIiED1Ev
_ZN7Imf_3_114TypedAttributeIiED2Ev
_ZN7Imf_3_114adoptedNeutralERKNS_6HeaderE
_ZN7Imf_3_114adoptedNeutralERNS_6HeaderE
_ZN7Imf_3_114channelsInViewERKNSt3__112basic_stringIcNS0_11char_traitsIcEENS0_9allocatorIcEEEERKNS_11ChannelListERKNS0_6vectorIS6_NS4_IS6_EEEE
_ZN7Imf_3_114chromaticitiesERKNS_6HeaderE
_ZN7Imf_3_114chromaticitiesERNS_6HeaderE
_ZN7Imf_3_114convertInPlaceERPcRPKcNS_9PixelTypeEy
_ZN7Imf_3_114deepImageStateERKNS_6HeaderE
_ZN7Imf_3_114deepImageStateERNS_6HeaderE
_ZN7Imf_3_114focusAttributeERKNS_6HeaderE
_ZN7Imf_3_114focusAttributeERNS_6HeaderE
_ZN7Imf_3_114insertViewNameERKNSt3__112basic_stringIcNS0_11char_traitsIcEENS0_9allocatorIcEEEERKNS0_6vectorIS6_NS4_IS6_EEEEi
_ZN7Imf_3_114lineBufferMaxYEiii
_ZN7Imf_3_114lineBufferMinYEiii
_ZN7Imf_3_114ownerAttributeERKNS_6HeaderE
_ZN7Imf_3_114ownerAttributeERNS_6HeaderE
_ZN7Imf_3_114removeViewNameERKNSt3__112basic_stringIcNS0_11char_traitsIcEENS0_9allocatorIcEEEES8_
_ZN7Imf_3_114whiteLuminanceERKNS_6HeaderE
_ZN7Imf_3_114whiteLuminanceERNS_6HeaderE
_ZN7Imf_3_115DeepCompositing15composite_pixelEPfPPKfPPKciii
_ZN7Imf_3_115DeepCompositing4sortEPiPPKfPPKciii
_ZN7Imf_3_115DeepCompositingC1Ev
_ZN7Imf_3_115DeepCompositingC2Ev
_ZN7Imf_3_115DeepCompositingD0Ev
_ZN7Imf_3_115DeepCompositingD1Ev
_ZN7Imf_3_115DeepCompositingD2Ev
_ZN7Imf_3_115DeepFrameBuffer13ConstIteratorC1ERKNS0_8IteratorE
_ZN7Imf_3_115DeepFrameBuffer13ConstIteratorC1ERKNSt3__120__map_const_iteratorINS2_21__tree_const_iteratorINS2_12__value_typeINS_4NameENS_9DeepSliceEEEPNS2_11__tree_nodeIS8_PvEExEEEE
_ZN7Imf_3_115DeepFrameBuffer13ConstIteratorC1Ev
_ZN7Imf_3_115DeepFrameBuffer13ConstIteratorC2ERKNS0_8IteratorE
_ZN7Imf_3_115DeepFrameBuffer13ConstIteratorC2ERKNSt3__120__map_const_iteratorINS2_21__tree_const_iteratorINS2_12__value_typeINS_4NameENS_9DeepSliceEEEPNS2_11__tree_nodeIS8_PvEExEEEE
_ZN7Imf_3_115DeepFrameBuffer13ConstIteratorC2Ev
_ZN7Imf_3_115DeepFrameBuffer13ConstIteratorppEi
_ZN7Imf_3_115DeepFrameBuffer13ConstIteratorppEv
_ZN7Imf_3_115DeepFrameBuffer22insertSampleCountSliceERKNS_5SliceE
_ZN7Imf_3_115DeepFrameBuffer3endEv
_ZN7Imf_3_115DeepFrameBuffer4findEPKc
_ZN7Imf_3_115DeepFrameBuffer4findERKNSt3__112basic_stringIcNS1_11char_traitsIcEENS1_9allocatorIcEEEE
_ZN7Imf_3_115DeepFrameBuffer5beginEv
_ZN7Imf_3_115DeepFrameBuffer6insertEPKcRKNS_9DeepSliceE
_ZN7Imf_3_115DeepFrameBuffer6insertERKNSt3__112basic_stringIcNS1_11char_traitsIcEENS1_9allocatorIcEEEERKNS_9DeepSliceE
_ZN7Imf_3_115DeepFrameBuffer8IteratorC1ERKNSt3__114__map_iteratorINS2_15__tree_iteratorINS2_12__value_typeINS_4NameENS_9DeepSliceEEEPNS2_11__tree_nodeIS8_PvEExEEEE
_ZN7Imf_3_115DeepFrameBuffer8IteratorC1Ev
_ZN7Imf_3_115DeepFrameBuffer8IteratorC2ERKNSt3__114__map_iteratorINS2_15__tree_iteratorINS2_12__value_typeINS_4NameENS_9DeepSliceEEEPNS2_11__tree_nodeIS8_PvEExEEEE
_ZN7Imf_3_115DeepFrameBuffer8IteratorC2Ev
_ZN7Imf_3_115DeepFrameBuffer8IteratorppEi
_ZN7Imf_3_115DeepFrameBuffer8IteratorppEv
_ZN7Imf_3_115DeepFrameBuffer9findSliceEPKc
_ZN7Imf_3_115DeepFrameBuffer9findSliceERKNSt3__112basic_stringIcNS1_11char_traitsIcEENS1_9allocatorIcEEEE
_ZN7Imf_3_115DeepFrameBufferixEPKc
_ZN7Imf_3_115DeepFrameBufferixERKNSt3__112basic_stringIcNS1_11char_traitsIcEENS1_9allocatorIcEEEE
_ZN7Imf_3_115OpaqueAttribute13copyValueFromERKNS_9AttributeE
_ZN7Imf_3_115OpaqueAttribute13readValueFromERNS_7IStreamEii
_ZN7Imf_3_115OpaqueAttributeC1EPKc
_ZN7Imf_3_115OpaqueAttributeC1ERKS0_
_ZN7Imf_3_115OpaqueAttributeC2EPKc
_ZN7Imf_3_115OpaqueAttributeC2ERKS0_
_ZN7Imf_3_115OpaqueAttributeD0Ev
_ZN7Imf_3_115OpaqueAttributeD1Ev
_ZN7Imf_3_115OpaqueAttributeD2Ev
_ZN7Imf_3_115TiledOutputFile10copyPixelsERNS_14TiledInputFileE
_ZN7Imf_3_115TiledOutputFile10copyPixelsERNS_14TiledInputPartE
_ZN7Imf_3_115TiledOutputFile10copyPixelsERNS_9InputFileE
_ZN7Imf_3_115TiledOutputFile10copyPixelsERNS_9InputPartE
_ZN7Imf_3_115TiledOutputFile10writeTilesEiiiii
_ZN7Imf_3_115TiledOutputFile10writeTilesEiiiiii
_ZN7Imf_3_115TiledOutputFile14setFrameBufferERKNS_11FrameBufferE
_ZN7Imf_3_115TiledOutputFile18updatePreviewImageEPKNS_11PreviewRgbaE
_ZN7Imf_3_115TiledOutputFile9breakTileEiiiiiic
_ZN7Imf_3_115TiledOutputFile9writeTileEiii
_ZN7Imf_3_115TiledOutputFile9writeTileEiiii
_ZN7Imf_3_115TiledOutputFileC1EPKcRKNS_6HeaderEi
_ZN7Imf_3_115TiledOutputFileC1ERNS_7OStreamERKNS_6HeaderEi
_ZN7Imf_3_115TiledOutputFileC2EPKcRKNS_6HeaderEi
_ZN7Imf_3_115TiledOutputFileC2ERNS_7OStreamERKNS_6HeaderEi
_ZN7Imf_3_115TiledOutputFileD0Ev
_ZN7Imf_3_115TiledOutputFileD1Ev
_ZN7Imf_3_115TiledOutputFileD2Ev
_ZN7Imf_3_115TiledOutputPart10copyPixelsERNS_14TiledInputFileE
_ZN7Imf_3_115TiledOutputPart10copyPixelsERNS_14TiledInputPartE
_ZN7Imf_3_115TiledOutputPart10copyPixelsERNS_9InputFileE
_ZN7Imf_3_115TiledOutputPart10copyPixelsERNS_9InputPartE
_ZN7Imf_3_115TiledOutputPart10writeTilesEiiiii
_ZN7Imf_3_115TiledOutputPart10writeTilesEiiiiii
_ZN7Imf_3_115TiledOutputPart14setFrameBufferERKNS_11FrameBufferE
_ZN7Imf_3_115TiledOutputPart18updatePreviewImageEPKNS_11PreviewRgbaE
_ZN7Imf_3_115TiledOutputPart9breakTileEiiiiiic
_ZN7Imf_3_115TiledOutputPart9writeTileEiii
_ZN7Imf_3_115TiledOutputPart9writeTileEiiii
_ZN7Imf_3_115TiledOutputPartC1ERNS_19MultiPartOutputFileEi
_ZN7Imf_3_115TiledOutputPartC2ERNS_19MultiPartOutputFileEi
_ZN7Imf_3_115areCounterpartsERKNSt3__112basic_stringIcNS0_11char_traitsIcEENS0_9allocatorIcEEEES8_RKNS0_6vectorIS6_NS4_IS6_EEEE
_ZN7Imf_3_115defaultViewNameERKNSt3__16vectorINS0_12basic_stringIcNS0_11char_traitsIcEENS0_9allocatorIcEEEENS5_IS7_EEEE
_ZN7Imf_3_115envmapAttributeERKNS_6HeaderE
_ZN7Imf_3_115envmapAttributeERNS_6HeaderE
_ZN7Imf_3_115framesPerSecondERKNS_6HeaderE
_ZN7Imf_3_115framesPerSecondERNS_6HeaderE
_ZN7Imf_3_115isSupportedTypeERKNSt3__112basic_stringIcNS0_11char_traitsIcEENS0_9allocatorIcEEEE
_ZN7Imf_3_116GenericInputFile30readMagicNumberAndVersionFieldERNS_7IStreamERi
_ZN7Imf_3_116GenericInputFileC1Ev
_ZN7Imf_3_116GenericInputFileC2Ev
_ZN7Imf_3_116GenericInputFileD0Ev
_ZN7Imf_3_116GenericInputFileD1Ev
_ZN7Imf_3_116GenericInputFileD2Ev
_ZN7Imf_3_116addWorldToCameraERNS_6HeaderERKN9Imath_3_18Matrix44IfEE
_ZN7Imf_3_116capDateAttributeERKNS_6HeaderE
_ZN7Imf_3_116capDateAttributeERNS_6HeaderE
_ZN7Imf_3_116channelsInNoViewERKNS_11ChannelListERKNSt3__16vectorINS3_12basic_stringIcNS3_11char_traitsIcEENS3_9allocatorIcEEEENS8_ISA_EEEE
_ZN7Imf_3_116expTimeAttributeERKNS_6HeaderE
_ZN7Imf_3_116expTimeAttributeERNS_6HeaderE
_ZN7Imf_3_116hasWorldToCameraERKNS_6HeaderE
_ZN7Imf_3_116keyCodeAttributeERKNS_6HeaderE
_ZN7Imf_3_116keyCodeAttributeERNS_6HeaderE
_ZN7Imf_3_116lookModTransformERKNS_6HeaderE
_ZN7Imf_3_116lookModTransformERNS_6HeaderE
_ZN7Imf_3_116numLinesInBufferENS_11CompressionE
_ZN7Imf_3_116numLinesInBufferEPNS_10CompressorE
_ZN7Imf_3_116staticInitializeEv
_ZN7Imf_3_117GenericOutputFile31writeMagicNumberAndVersionFieldERNS_7OStreamEPKNS_6HeaderEi
_ZN7Imf_3_117GenericOutputFile31writeMagicNumberAndVersionFieldERNS_7OStreamERKNS_6HeaderE
_ZN7Imf_3_117GenericOutputFileC1Ev
_ZN7Imf_3_117GenericOutputFileC2Ev
_ZN7Imf_3_117GenericOutputFileD0Ev
_ZN7Imf_3_117GenericOutputFileD1Ev
_ZN7Imf_3_117GenericOutputFileD2Ev
_ZN7Imf_3_117ScanLineInputFile10readPixelsEi
_ZN7Imf_3_117ScanLineInputFile10readPixelsEii
_ZN7Imf_3_117ScanLineInputFile12rawPixelDataEiRPKcRi
_ZN7Imf_3_117ScanLineInputFile14setFrameBufferERKNS_11FrameBufferE
_ZN7Imf_3_117ScanLineInputFileC1ERKNS_6HeaderEPNS_7IStreamEi
_ZN7Imf_3_117ScanLineInputFileC2ERKNS_6HeaderEPNS_7IStreamEi
_ZN7Imf_3_117ScanLineInputFileD0Ev
_ZN7Imf_3_117ScanLineInputFileD1Ev
_ZN7Imf_3_117ScanLineInputFileD2Ev
_ZN7Imf_3_117addAdoptedNeutralERNS_6HeaderERKN9Imath_3_14Vec2IfEE
_ZN7Imf_3_117addChromaticitiesERNS_6HeaderERKNS_14ChromaticitiesE
_ZN7Imf_3_117addDeepImageStateERNS_6HeaderERKNS_14DeepImageStateE
_ZN7Imf_3_117addWhiteLuminanceERNS_6HeaderERKf
_ZN7Imf_3_117altitudeAttributeERKNS_6HeaderE
_ZN7Imf_3_117altitudeAttributeERNS_6HeaderE
_ZN7Imf_3_117apertureAttributeERKNS_6HeaderE
_ZN7Imf_3_117apertureAttributeERNS_6HeaderE
_ZN7Imf_3_117bytesPerLineTableERKNS_6HeaderERNSt3__16vectorIyNS3_9allocatorIyEEEE
_ZN7Imf_3_117channelInAllViewsERKNSt3__112basic_stringIcNS0_11char_traitsIcEENS0_9allocatorIcEEEERKNS_11ChannelListERKNS0_6vectorIS6_NS4_IS6_EEEE
_ZN7Imf_3_117commentsAttributeERKNS_6HeaderE
_ZN7Imf_3_117commentsAttributeERNS_6HeaderE
_ZN7Imf_3_117dataWindowForTileERKNS_15TileDescriptionEiiiiiiii
_ZN7Imf_3_117globalThreadCountEv
_ZN7Imf_3_117hasAdoptedNeutralERKNS_6HeaderE
_ZN7Imf_3_117hasChromaticitiesERKNS_6HeaderE
_ZN7Imf_3_117hasDeepImageStateERKNS_6HeaderE
_ZN7Imf_3_117hasWhiteLuminanceERKNS_6HeaderE
_ZN7Imf_3_117isDeepOpenExrFileEPKc
_ZN7Imf_3_117isDeepOpenExrFileERNS_7IStreamE
_ZN7Imf_3_117isoSpeedAttributeERKNS_6HeaderE
_ZN7Imf_3_117isoSpeedAttributeERNS_6HeaderE
_ZN7Imf_3_117latitudeAttributeERKNS_6HeaderE
_ZN7Imf_3_117latitudeAttributeERNS_6HeaderE
_ZN7Imf_3_117newTileCompressorENS_11CompressionEyyRKNS_6HeaderE
_ZN7Imf_3_117timeCodeAttributeERKNS_6HeaderE
_ZN7Imf_3_117timeCodeAttributeERNS_6HeaderE
_ZN7Imf_3_117xDensityAttributeERKNS_6HeaderE
_ZN7Imf_3_117xDensityAttributeERNS_6HeaderE
_ZN7Imf_3_118DeepTiledInputFile14setFrameBufferERKNS_15DeepFrameBufferE
_ZN7Imf_3_118DeepTiledInputFile20readPixelSampleCountEiii
_ZN7Imf_3_118DeepTiledInputFile20readPixelSampleCountEiiii
_ZN7Imf_3_118DeepTiledInputFile21readPixelSampleCountsEiiiii
_ZN7Imf_3_118DeepTiledInputFile21readPixelSampleCountsEiiiiii
_ZN7Imf_3_118DeepTiledInputFile8readTileEiii
_ZN7Imf_3_118DeepTiledInputFile8readTileEiiii
_ZN7Imf_3_118DeepTiledInputFile9readTilesEiiiii
_ZN7Imf_3_118DeepTiledInputFile9readTilesEiiiiii
_ZN7Imf_3_118DeepTiledInputFileC1EPKci
_ZN7Imf_3_118DeepTiledInputFileC1ERNS_7IStreamEi
_ZN7Imf_3_118DeepTiledInputFileC2EPKci
_ZN7Imf_3_118DeepTiledInputFileC2ERNS_7IStreamEi
_ZN7Imf_3_118DeepTiledInputFileD0Ev
_ZN7Imf_3_118DeepTiledInputFileD1Ev
_ZN7Imf_3_118DeepTiledInputFileD2Ev
_ZN7Imf_3_118DeepTiledInputPart14setFrameBufferERKNS_15DeepFrameBufferE
_ZN7Imf_3_118DeepTiledInputPart20readPixelSampleCountEiii
_ZN7Imf_3_118DeepTiledInputPart20readPixelSampleCountEiiii
_ZN7Imf_3_118DeepTiledInputPart21readPixelSampleCountsEiiiii
_ZN7Imf_3_118DeepTiledInputPart21readPixelSampleCountsEiiiiii
_ZN7Imf_3_118DeepTiledInputPart8readTileEiii
_ZN7Imf_3_118DeepTiledInputPart8readTileEiiii
_ZN7Imf_3_118DeepTiledInputPart9readTilesEiiiii
_ZN7Imf_3_118DeepTiledInputPart9readTilesEiiiiii
_ZN7Imf_3_118DeepTiledInputPartC1ERNS_18MultiPartInputFileEi
_ZN7Imf_3_118DeepTiledInputPartC2ERNS_18MultiPartInputFileEi
_ZN7Imf_3_118MultiPartInputFile14flushPartCacheEv
_ZN7Imf_3_118MultiPartInputFileC1EPKcib
_ZN7Imf_3_118MultiPartInputFileC1ERNS_7IStreamEib
_ZN7Imf_3_118MultiPartInputFileC2EPKcib
_ZN7Imf_3_118MultiPartInputFileC2ERNS_7IStreamEib
_ZN7Imf_3_118MultiPartInputFileD0Ev
_ZN7Imf_3_118MultiPartInputFileD1Ev
_ZN7Imf_3_118MultiPartInputFileD2Ev
_ZN7Imf_3_118TiledRgbaInputFile12setLayerNameERKNSt3__112basic_stringIcNS1_11char_traitsIcEENS1_9allocatorIcEEEE
_ZN7Imf_3_118TiledRgbaInputFile14setFrameBufferEPNS_4RgbaEyy
_ZN7Imf_3_118TiledRgbaInputFile8readTileEiii
_ZN7Imf_3_118TiledRgbaInputFile8readTileEiiii
_ZN7Imf_3_118TiledRgbaInputFile9readTilesEiiiii
_ZN7Imf_3_118TiledRgbaInputFile9readTilesEiiiiii
_ZN7Imf_3_118TiledRgbaInputFileC1EPKcRKNSt3__112basic_stringIcNS3_11char_traitsIcEENS3_9allocatorIcEEEEi
_ZN7Imf_3_118TiledRgbaInputFileC1EPKci
_ZN7Imf_3_118TiledRgbaInputFileC1ERNS_7IStreamERKNSt3__112basic_stringIcNS3_11char_traitsIcEENS3_9allocatorIcEEEEi
_ZN7Imf_3_118TiledRgbaInputFileC1ERNS_7IStreamEi
_ZN7Imf_3_118TiledRgbaInputFileC2EPKcRKNSt3__112basic_stringIcNS3_11char_traitsIcEENS3_9allocatorIcEEEEi
_ZN7Imf_3_118TiledRgbaInputFileC2EPKci
_ZN7Imf_3_118TiledRgbaInputFileC2ERNS_7IStreamERKNSt3__112basic_stringIcNS3_11char_traitsIcEENS3_9allocatorIcEEEEi
_ZN7Imf_3_118TiledRgbaInputFileC2ERNS_7IStreamEi
_ZN7Imf_3_118TiledRgbaInputFileD0Ev
_ZN7Imf_3_118TiledRgbaInputFileD1Ev
_ZN7Imf_3_118TiledRgbaInputFileD2Ev
_ZN7Imf_3_118addFramesPerSecondERNS_6HeaderERKNS_8RationalE
_ZN7Imf_3_118channelInOtherViewERKNSt3__112basic_stringIcNS0_11char_traitsIcEENS0_9allocatorIcEEEERKNS_11ChannelListERKNS0_6vectorIS6_NS4_IS6_EEEES8_
_ZN7Imf_3_118dataWindowForLevelERKNS_15TileDescriptionEiiiiii
_ZN7Imf_3_118hasFramesPerSecondERKNS_6HeaderE
_ZN7Imf_3_118isLossyCompressionENS_11CompressionE
_ZN7Imf_3_118isTiledOpenExrFileEPKc
_ZN7Imf_3_118isTiledOpenExrFileERNS_7IStreamE
_ZN7Imf_3_118isValidCompressionENS_11CompressionE
_ZN7Imf_3_118longitudeAttributeERKNS_6HeaderE
_ZN7Imf_3_118longitudeAttributeERNS_6HeaderE
_ZN7Imf_3_118multiViewAttributeERKNS_6HeaderE
_ZN7Imf_3_118multiViewAttributeERNS_6HeaderE
_ZN7Imf_3_118originalDataWindowERKNS_6HeaderE
_ZN7Imf_3_118originalDataWindowERNS_6HeaderE
_ZN7Imf_3_118renderingTransformERKNS_6HeaderE
_ZN7Imf_3_118renderingTransformERNS_6HeaderE
_ZN7Imf_3_118utcOffsetAttributeERKNS_6HeaderE
_ZN7Imf_3_118utcOffsetAttributeERNS_6HeaderE
_ZN7Imf_3_118wrapmodesAttributeERKNS_6HeaderE
_ZN7Imf_3_118wrapmodesAttributeERNS_6HeaderE
_ZN7Imf_3_119DeepTiledOutputFile10copyPixelsERNS_18DeepTiledInputFileE
_ZN7Imf_3_119DeepTiledOutputFile10copyPixelsERNS_18DeepTiledInputPartE
_ZN7Imf_3_119DeepTiledOutputFile10writeTilesEiiiii
_ZN7Imf_3_119DeepTiledOutputFile10writeTilesEiiiiii
_ZN7Imf_3_119DeepTiledOutputFile14setFrameBufferERKNS_15DeepFrameBufferE
_ZN7Imf_3_119DeepTiledOutputFile18updatePreviewImageEPKNS_11PreviewRgbaE
_ZN7Imf_3_119DeepTiledOutputFile9breakTileEiiiiiic
_ZN7Imf_3_119DeepTiledOutputFile9writeTileEiii
_ZN7Imf_3_119DeepTiledOutputFile9writeTileEiiii
_ZN7Imf_3_119DeepTiledOutputFileC1EPKcRKNS_6HeaderEi
_ZN7Imf_3_119DeepTiledOutputFileC1ERNS_7OStreamERKNS_6HeaderEi
_ZN7Imf_3_119DeepTiledOutputFileC2EPKcRKNS_6HeaderEi
_ZN7Imf_3_119DeepTiledOutputFileC2ERNS_7OStreamERKNS_6HeaderEi
_ZN7Imf_3_119DeepTiledOutputFileD0Ev
_ZN7Imf_3_119DeepTiledOutputFileD1Ev
_ZN7Imf_3_119DeepTiledOutputFileD2Ev
_ZN7Imf_3_119DeepTiledOutputPart10copyPixelsERNS_18DeepTiledInputFileE
_ZN7Imf_3_119DeepTiledOutputPart10copyPixelsERNS_18DeepTiledInputPartE
_ZN7Imf_3_119DeepTiledOutputPart10writeTilesEiiiii
_ZN7Imf_3_119DeepTiledOutputPart10writeTilesEiiiiii
_ZN7Imf_3_119DeepTiledOutputPart14setFrameBufferERKNS_15DeepFrameBufferE
_ZN7Imf_3_119DeepTiledOutputPart18updatePreviewImageEPKNS_11PreviewRgbaE
_ZN7Imf_3_119DeepTiledOutputPart9breakTileEiiiiiic
_ZN7Imf_3_119DeepTiledOutputPart9writeTileEiii
_ZN7Imf_3_119DeepTiledOutputPart9writeTileEiiii
_ZN7Imf_3_119DeepTiledOutputPartC1ERNS_19MultiPartOutputFileEi
_ZN7Imf_3_119DeepTiledOutputPartC2ERNS_19MultiPartOutputFileEi
_ZN7Imf_3_119MultiPartOutputFileC1EPKcPKNS_6HeaderEibi
_ZN7Imf_3_119MultiPartOutputFileC1ERNS_7OStreamEPKNS_6HeaderEibi
_ZN7Imf_3_119MultiPartOutputFileC2EPKcPKNS_6HeaderEibi
_ZN7Imf_3_119MultiPartOutputFileC2ERNS_7OStreamEPKNS_6HeaderEibi
_ZN7Imf_3_119MultiPartOutputFileD0Ev
_ZN7Imf_3_119MultiPartOutputFileD1Ev
_ZN7Imf_3_119MultiPartOutputFileD2Ev
_ZN7Imf_3_119TiledRgbaOutputFile10writeTilesEiiiii
_ZN7Imf_3_119TiledRgbaOutputFile10writeTilesEiiiiii
_ZN7Imf_3_119TiledRgbaOutputFile14setFrameBufferEPKNS_4RgbaEyy
_ZN7Imf_3_119TiledRgbaOutputFile18updatePreviewImageEPKNS_11PreviewRgbaE
_ZN7Imf_3_119TiledRgbaOutputFile9breakTileEiiiiiic
_ZN7Imf_3_119TiledRgbaOutputFile9writeTileEiii
_ZN7Imf_3_119TiledRgbaOutputFile9writeTileEiiii
_ZN7Imf_3_119TiledRgbaOutputFileC1EPKcRKNS_6HeaderENS_12RgbaChannelsEiiNS_9LevelModeENS_17LevelRoundingModeEi
_ZN7Imf_3_119TiledRgbaOutputFileC1EPKciiNS_9LevelModeENS_17LevelRoundingModeERKN9Imath_3_13BoxINS5_4Vec2IiEEEESB_NS_12RgbaChannelsEfNS7_IfEEfNS_9LineOrderENS_11CompressionEi
_ZN7Imf_3_119TiledRgbaOutputFileC1EPKciiiiNS_9LevelModeENS_17LevelRoundingModeENS_12RgbaChannelsEfN9Imath_3_14Vec2IfEEfNS_9LineOrderENS_11CompressionEi
_ZN7Imf_3_119TiledRgbaOutputFileC1ERNS_7OStreamERKNS_6HeaderENS_12RgbaChannelsEiiNS_9LevelModeENS_17LevelRoundingModeEi
_ZN7Imf_3_119TiledRgbaOutputFileC2EPKcRKNS_6HeaderENS_12RgbaChannelsEiiNS_9LevelModeENS_17LevelRoundingModeEi
_ZN7Imf_3_119TiledRgbaOutputFileC2EPKciiNS_9LevelModeENS_17LevelRoundingModeERKN9Imath_3_13BoxINS5_4Vec2IiEEEESB_NS_12RgbaChannelsEfNS7_IfEEfNS_9LineOrderENS_11CompressionEi
_ZN7Imf_3_119TiledRgbaOutputFileC2EPKciiiiNS_9LevelModeENS_17LevelRoundingModeENS_12RgbaChannelsEfN9Imath_3_14Vec2IfEEfNS_9LineOrderENS_11CompressionEi
_ZN7Imf_3_119TiledRgbaOutputFileC2ERNS_7OStreamERKNS_6HeaderENS_12RgbaChannelsEiiNS_9LevelModeENS_17LevelRoundingModeEi
_ZN7Imf_3_119TiledRgbaOutputFileD0Ev
_ZN7Imf_3_119TiledRgbaOutputFileD1Ev
_ZN7Imf_3_119TiledRgbaOutputFileD2Ev
_ZN7Imf_3_119addLookModTransformERNS_6HeaderERKNSt3__112basic_stringIcNS2_11char_traitsIcEENS2_9allocatorIcEEEE
_ZN7Imf_3_119copyFromFrameBufferERPcRPKcS3_yNS_10Compressor6FormatENS_9PixelTypeE
_ZN7Imf_3_119copyIntoFrameBufferERPKcPcS3_ybdNS_10Compressor6FormatENS_9PixelTypeES6_
_ZN7Imf_3_119dwaCompressionLevelERKNS_6HeaderE
_ZN7Imf_3_119dwaCompressionLevelERNS_6HeaderE
_ZN7Imf_3_119hasLookModTransformERKNS_6HeaderE
_ZN7Imf_3_119idManifestAttributeERKNS_6HeaderE
_ZN7Imf_3_119idManifestAttributeERNS_6HeaderE
_ZN7Imf_3_119viewFromChannelNameERKNSt3__112basic_stringIcNS0_11char_traitsIcEENS0_9allocatorIcEEEERKNS0_6vectorIS6_NS4_IS6_EEEE
_ZN7Imf_3_119worldToNDCAttributeERKNS_6HeaderE
_ZN7Imf_3_119worldToNDCAttributeERNS_6HeaderE
_ZN7Imf_3_120CompressedIDManifestC1ERKNS_10IDManifestE
_ZN7Imf_3_120CompressedIDManifestC1ERKS0_
_ZN7Imf_3_120CompressedIDManifestC1Ev
_ZN7Imf_3_120CompressedIDManifestC2ERKNS_10IDManifestE
_ZN7Imf_3_120CompressedIDManifestC2ERKS0_
_ZN7Imf_3_120CompressedIDManifestC2Ev
_ZN7Imf_3_120CompressedIDManifestD1Ev
_ZN7Imf_3_120CompressedIDManifestD2Ev
_ZN7Imf_3_120CompressedIDManifestaSERKS0_
_ZN7Imf_3_120precalculateTileInfoERKNS_15TileDescriptionEiiiiRPiS4_RiS5_
_ZN7Imf_3_120setGlobalThreadCountEi
_ZN7Imf_3_121CompositeDeepScanLine10readPixelsEii
_ZN7Imf_3_121CompositeDeepScanLine14setCompositingEPNS_15DeepCompositingE
_ZN7Imf_3_121CompositeDeepScanLine14setFrameBufferERKNS_11FrameBufferE
_ZN7Imf_3_121CompositeDeepScanLine21getMaximumSampleCountEv
_ZN7Imf_3_121CompositeDeepScanLine21setMaximumSampleCountEx
_ZN7Imf_3_121CompositeDeepScanLine9addSourceEPNS_21DeepScanLineInputFileE
_ZN7Imf_3_121CompositeDeepScanLine9addSourceEPNS_21DeepScanLineInputPartE
_ZN7Imf_3_121CompositeDeepScanLineC1Ev
_ZN7Imf_3_121CompositeDeepScanLineC2Ev
_ZN7Imf_3_121CompositeDeepScanLineD0Ev
_ZN7Imf_3_121CompositeDeepScanLineD1Ev
_ZN7Imf_3_121CompositeDeepScanLineD2Ev
_ZN7Imf_3_121DeepScanLineInputFile10readPixelsEi
_ZN7Imf_3_121DeepScanLineInputFile10readPixelsEii
_ZN7Imf_3_121DeepScanLineInputFile12rawPixelDataEiPcRy
_ZN7Imf_3_121DeepScanLineInputFile14setFrameBufferERKNS_15DeepFrameBufferE
_ZN7Imf_3_121DeepScanLineInputFile21readPixelSampleCountsEi
_ZN7Imf_3_121DeepScanLineInputFile21readPixelSampleCountsEii
_ZN7Imf_3_121DeepScanLineInputFileC1EPKci
_ZN7Imf_3_121DeepScanLineInputFileC1ERKNS_6HeaderEPNS_7IStreamEii
_ZN7Imf_3_121DeepScanLineInputFileC1ERNS_7IStreamEi
_ZN7Imf_3_121DeepScanLineInputFileC2EPKci
_ZN7Imf_3_121DeepScanLineInputFileC2ERKNS_6HeaderEPNS_7IStreamEii
_ZN7Imf_3_121DeepScanLineInputFileC2ERNS_7IStreamEi
_ZN7Imf_3_121DeepScanLineInputFileD0Ev
_ZN7Imf_3_121DeepScanLineInputFileD1Ev
_ZN7Imf_3_121DeepScanLineInputFileD2Ev
_ZN7Imf_3_121DeepScanLineInputPart10readPixelsEi
_ZN7Imf_3_121DeepScanLineInputPart10readPixelsEii
_ZN7Imf_3_121DeepScanLineInputPart12rawPixelDataEiPcRy
_ZN7Imf_3_121DeepScanLineInputPart14setFrameBufferERKNS_15DeepFrameBufferE
_ZN7Imf_3_121DeepScanLineInputPart21readPixelSampleCountsEi
_ZN7Imf_3_121DeepScanLineInputPart21readPixelSampleCountsEii
_ZN7Imf_3_121DeepScanLineInputPartC1ERNS_18MultiPartInputFileEi
_ZN7Imf_3_121DeepScanLineInputPartC2ERNS_18MultiPartInputFileEi
_ZN7Imf_3_121addOriginalDataWindowERNS_6HeaderERKN9Imath_3_13BoxINS2_4Vec2IiEEEE
_ZN7Imf_3_121addRenderingTransformERNS_6HeaderERKNSt3__112basic_stringIcNS2_11char_traitsIcEENS2_9allocatorIcEEEE
_ZN7Imf_3_121bytesPerDeepLineTableERKNS_6HeaderEPciiRNSt3__16vectorIyNS4_9allocatorIyEEEE
_ZN7Imf_3_121bytesPerDeepLineTableERKNS_6HeaderEiiPKciiRNSt3__16vectorIyNS5_9allocatorIyEEEE
_ZN7Imf_3_121calculateBytesPerLineERKNS_6HeaderEPciiiiiiRNSt3__16vectorIiNS4_9allocatorIiEEEES9_RNS5_IyNS6_IyEEEE
_ZN7Imf_3_121fillChannelWithZeroesERPcNS_10Compressor6FormatENS_9PixelTypeEy
_ZN7Imf_3_121hasOriginalDataWindowERKNS_6HeaderE
_ZN7Imf_3_121hasRenderingTransformERKNS_6HeaderE
_ZN7Imf_3_122DeepScanLineOutputFile10copyPixelsERNS_21DeepScanLineInputFileE
_ZN7Imf_3_122DeepScanLineOutputFile10copyPixelsERNS_21DeepScanLineInputPartE
_ZN7Imf_3_122DeepScanLineOutputFile11writePixelsEi
_ZN7Imf_3_122DeepScanLineOutputFile14setFrameBufferERKNS_15DeepFrameBufferE
_ZN7Imf_3_122DeepScanLineOutputFile18updatePreviewImageEPKNS_11PreviewRgbaE
_ZN7Imf_3_122DeepScanLineOutputFileC1EPKcRKNS_6HeaderEi
_ZN7Imf_3_122DeepScanLineOutputFileC1ERNS_7OStreamERKNS_6HeaderEi
_ZN7Imf_3_122DeepScanLineOutputFileC2EPKcRKNS_6HeaderEi
_ZN7Imf_3_122DeepScanLineOutputFileC2ERNS_7OStreamERKNS_6HeaderEi
_ZN7Imf_3_122DeepScanLineOutputFileD0Ev
_ZN7Imf_3_122DeepScanLineOutputFileD1Ev
_ZN7Imf_3_122DeepScanLineOutputFileD2Ev
_ZN7Imf_3_122DeepScanLineOutputPart10copyPixelsERNS_21DeepScanLineInputFileE
_ZN7Imf_3_122DeepScanLineOutputPart10copyPixelsERNS_21DeepScanLineInputPartE
_ZN7Imf_3_122DeepScanLineOutputPart11writePixelsEi
_ZN7Imf_3_122DeepScanLineOutputPart14setFrameBufferERKNS_15DeepFrameBufferE
_ZN7Imf_3_122DeepScanLineOutputPart18updatePreviewImageEPKNS_11PreviewRgbaE
_ZN7Imf_3_122DeepScanLineOutputPartC1ERNS_19MultiPartOutputFileEi
_ZN7Imf_3_122DeepScanLineOutputPartC2ERNS_19MultiPartOutputFileEi
_ZN7Imf_3_122addDwaCompressionLevelERNS_6HeaderERKf
_ZN7Imf_3_122calculateBytesPerPixelERKNS_6HeaderE
_ZN7Imf_3_122hasDwaCompressionLevelERKNS_6HeaderE
_ZN7Imf_3_122isMultiPartOpenExrFileEPKc
_ZN7Imf_3_122isMultiPartOpenExrFileERNS_7IStreamE
_ZN7Imf_3_122isValidDeepCompressionENS_11CompressionE
_ZN7Imf_3_122worldToCameraAttributeERKNS_6HeaderE
_ZN7Imf_3_122worldToCameraAttributeERNS_6HeaderE
_ZN7Imf_3_123adoptedNeutralAttributeERKNS_6HeaderE
_ZN7Imf_3_123adoptedNeutralAttributeERNS_6HeaderE
_ZN7Imf_3_123chromaticitiesAttributeERKNS_6HeaderE
_ZN7Imf_3_123chromaticitiesAttributeERNS_6HeaderE
_ZN7Imf_3_123copyFromDeepFrameBufferERPcPKcS0_xxiiiiiiixxxNS_10Compressor6FormatENS_9PixelTypeE
_ZN7Imf_3_123copyIntoDeepFrameBufferERPKcPcS1_xxiiiiiiixxxbdNS_10Compressor6FormatENS_9PixelTypeES6_
_ZN7Imf_3_123deepImageStateAttributeERKNS_6HeaderE
_ZN7Imf_3_123deepImageStateAttributeERNS_6HeaderE
_ZN7Imf_3_123getChunkOffsetTableSizeERKNS_6HeaderE
_ZN7Imf_3_123offsetInLineBufferTableERKNSt3__16vectorIyNS0_9allocatorIyEEEEiRS4_
_ZN7Imf_3_123offsetInLineBufferTableERKNSt3__16vectorIyNS0_9allocatorIyEEEEiiiRS4_
_ZN7Imf_3_123whiteLuminanceAttributeERKNS_6HeaderE
_ZN7Imf_3_123whiteLuminanceAttributeERNS_6HeaderE
_ZN7Imf_3_124framesPerSecondAttributeERKNS_6HeaderE
_ZN7Imf_3_124framesPerSecondAttributeERNS_6HeaderE
_ZN7Imf_3_125lookModTransformAttributeERKNS_6HeaderE
_ZN7Imf_3_125lookModTransformAttributeERNS_6HeaderE
_ZN7Imf_3_127originalDataWindowAttributeERKNS_6HeaderE
_ZN7Imf_3_127originalDataWindowAttributeERNS_6HeaderE
_ZN7Imf_3_127renderingTransformAttributeERKNS_6HeaderE
_ZN7Imf_3_127renderingTransformAttributeERNS_6HeaderE
_ZN7Imf_3_128dwaCompressionLevelAttributeERKNS_6HeaderE
_ZN7Imf_3_128dwaCompressionLevelAttributeERNS_6HeaderE
_ZN7Imf_3_128getTiledChunkOffsetTableSizeERKNS_6HeaderE
_ZN7Imf_3_129setDefaultDwaCompressionLevelEf
_ZN7Imf_3_129setDefaultZipCompressionLevelEi
_ZN7Imf_3_15ArrayINS0_IcEEE11resizeEraseEl
_ZN7Imf_3_15ArrayIbE11resizeEraseEl
_ZN7Imf_3_15ArrayIcE11resizeEraseEl
_ZN7Imf_3_15ArrayIjE11resizeEraseEl
_ZN7Imf_3_15CpuIdC1Ev
_ZN7Imf_3_15CpuIdC2Ev
_ZN7Imf_3_15Slice4MakeENS_9PixelTypeEPKvRKN9Imath_3_13BoxINS4_4Vec2IiEEEEyyiidbb
_ZN7Imf_3_15Slice4MakeENS_9PixelTypeEPKvRKN9Imath_3_14Vec2IiEExxyyiidbb
_ZN7Imf_3_15SliceC1ENS_9PixelTypeEPcyyiidbb
_ZN7Imf_3_15SliceC2ENS_9PixelTypeEPcyyiidbb
_ZN7Imf_3_15focusERKNS_6HeaderE
_ZN7Imf_3_15focusERNS_6HeaderE
_ZN7Imf_3_15ownerERKNS_6HeaderE
_ZN7Imf_3_15ownerERNS_6HeaderE
_ZN7Imf_3_16Header10chunkCountEv
_ZN7Imf_3_16Header10dataWindowEv
_ZN7Imf_3_16Header10setVersionEi
_ZN7Imf_3_16Header11compressionEv
_ZN7Imf_3_16Header12previewImageEv
_ZN7Imf_3_16Header12readsNothingEv
_ZN7Imf_3_16Header13ConstIteratorC1ERKNS0_8IteratorE
_ZN7Imf_3_16Header13ConstIteratorC1ERKNSt3__120__map_const_iteratorINS2_21__tree_const_iteratorINS2_12__value_typeINS_4NameEPNS_9AttributeEEEPNS2_11__tree_nodeIS9_PvEExEEEE
_ZN7Imf_3_16Header13ConstIteratorC1Ev
_ZN7Imf_3_16Header13ConstIteratorC2ERKNS0_8IteratorE
_ZN7Imf_3_16Header13ConstIteratorC2ERKNSt3__120__map_const_iteratorINS2_21__tree_const_iteratorINS2_12__value_typeINS_4NameEPNS_9AttributeEEEPNS2_11__tree_nodeIS9_PvEExEEEE
_ZN7Imf_3_16Header13ConstIteratorC2Ev
_ZN7Imf_3_16Header13ConstIteratorppEi
_ZN7Imf_3_16Header13ConstIteratorppEv
_ZN7Imf_3_16Header13displayWindowEv
_ZN7Imf_3_16Header13setChunkCountEi
_ZN7Imf_3_16Header14setMaxTileSizeEii
_ZN7Imf_3_16Header15setMaxImageSizeEii
_ZN7Imf_3_16Header15setPreviewImageERKNS_12PreviewImageE
_ZN7Imf_3_16Header15tileDescriptionEv
_ZN7Imf_3_16Header16pixelAspectRatioEv
_ZN7Imf_3_16Header17screenWindowWidthEv
_ZN7Imf_3_16Header18screenWindowCenterEv
_ZN7Imf_3_16Header18setTileDescriptionERKNS_15TileDescriptionE
_ZN7Imf_3_16Header19dwaCompressionLevelEv
_ZN7Imf_3_16Header19zipCompressionLevelEv
_ZN7Imf_3_16Header29resetDefaultCompressionLevelsEv
_ZN7Imf_3_16Header3endEv
_ZN7Imf_3_16Header4findEPKc
_ZN7Imf_3_16Header4findERKNSt3__112basic_stringIcNS1_11char_traitsIcEENS1_9allocatorIcEEEE
_ZN7Imf_3_16Header4nameEv
_ZN7Imf_3_16Header4typeEv
_ZN7Imf_3_16Header4viewEv
_ZN7Imf_3_16Header5beginEv
_ZN7Imf_3_16Header5eraseEPKc
_ZN7Imf_3_16Header5eraseERKNSt3__112basic_stringIcNS1_11char_traitsIcEENS1_9allocatorIcEEEE
_ZN7Imf_3_16Header6insertEPKcRKNS_9AttributeE
_ZN7Imf_3_16Header6insertERKNSt3__112basic_stringIcNS1_11char_traitsIcEENS1_9allocatorIcEEEERKNS_9AttributeE
_ZN7Imf_3_16Header7setNameERKNSt3__112basic_stringIcNS1_11char_traitsIcEENS1_9allocatorIcEEEE
_ZN7Imf_3_16Header7setTypeERKNSt3__112basic_stringIcNS1_11char_traitsIcEENS1_9allocatorIcEEEE
_ZN7Imf_3_16Header7setViewERKNSt3__112basic_stringIcNS1_11char_traitsIcEENS1_9allocatorIcEEEE
_ZN7Imf_3_16Header7versionEv
_ZN7Imf_3_16Header8IteratorC1ERKNSt3__114__map_iteratorINS2_15__tree_iteratorINS2_12__value_typeINS_4NameEPNS_9AttributeEEEPNS2_11__tree_nodeIS9_PvEExEEEE
_ZN7Imf_3_16Header8IteratorC1Ev
_ZN7Imf_3_16Header8IteratorC2ERKNSt3__114__map_iteratorINS2_15__tree_iteratorINS2_12__value_typeINS_4NameEPNS_9AttributeEEEPNS2_11__tree_nodeIS9_PvEExEEEE
_ZN7Imf_3_16Header8IteratorC2Ev
_ZN7Imf_3_16Header8IteratorppEi
_ZN7Imf_3_16Header8IteratorppEv
_ZN7Imf_3_16Header8channelsEv
_ZN7Imf_3_16Header8readFromERNS_7IStreamERi
_ZN7Imf_3_16Header9lineOrderEv
_ZN7Imf_3_16HeaderC1EOS0_
_ZN7Imf_3_16HeaderC1ERKN9Imath_3_13BoxINS1_4Vec2IiEEEES7_fRKNS3_IfEEfNS_9LineOrderENS_11CompressionE
_ZN7Imf_3_16HeaderC1ERKS0_
_ZN7Imf_3_16HeaderC1EiiRKN9Imath_3_13BoxINS1_4Vec2IiEEEEfRKNS3_IfEEfNS_9LineOrderENS_11CompressionE
_ZN7Imf_3_16HeaderC1EiifRKN9Imath_3_14Vec2IfEEfNS_9LineOrderENS_11CompressionE
_ZN7Imf_3_16HeaderC2EOS0_
_ZN7Imf_3_16HeaderC2ERKN9Imath_3_13BoxINS1_4Vec2IiEEEES7_fRKNS3_IfEEfNS_9LineOrderENS_11CompressionE
_ZN7Imf_3_16HeaderC2ERKS0_
_ZN7Imf_3_16HeaderC2EiiRKN9Imath_3_13BoxINS1_4Vec2IiEEEEfRKNS3_IfEEfNS_9LineOrderENS_11CompressionE
_ZN7Imf_3_16HeaderC2EiifRKN9Imath_3_14Vec2IfEEfNS_9LineOrderENS_11CompressionE
_ZN7Imf_3_16HeaderD1Ev
_ZN7Imf_3_16HeaderD2Ev
_ZN7Imf_3_16HeaderaSEOS0_
_ZN7Imf_3_16HeaderaSERKS0_
_ZN7Imf_3_16HeaderixEPKc
_ZN7Imf_3_16HeaderixERKNSt3__112basic_stringIcNS1_11char_traitsIcEENS1_9allocatorIcEEEE
_ZN7Imf_3_16envmapERKNS_6HeaderE
_ZN7Imf_3_16envmapERNS_6HeaderE
_ZN7Imf_3_17Array2DINS_4RgbaEE11resizeEraseEll
_ZN7Imf_3_17Array2DINS_4RgbaEEC1Ev
_ZN7Imf_3_17Array2DINS_4RgbaEEC2Ev
_ZN7Imf_3_17Array2DINS_4RgbaEED1Ev
_ZN7Imf_3_17Array2DINS_4RgbaEED2Ev
_ZN7Imf_3_17Array2DINS_4RgbaEEixEl
_ZN7Imf_3_17Array2DIjE11resizeEraseEll
_ZN7Imf_3_17Array2DIjEC1Ev
_ZN7Imf_3_17Array2DIjEC2Ev
_ZN7Imf_3_17Array2DIjED1Ev
_ZN7Imf_3_17Array2DIjED2Ev
_ZN7Imf_3_17Array2DIjEixEl
_ZN7Imf_3_17ChannelC1ENS_9PixelTypeEiib
_ZN7Imf_3_17ChannelC2ENS_9PixelTypeEiib
_ZN7Imf_3_17CubeMap10sizeOfFaceERKN9Imath_3_13BoxINS1_4Vec2IiEEEE
_ZN7Imf_3_17CubeMap13pixelPositionENS_11CubeMapFaceERKN9Imath_3_13BoxINS2_4Vec2IiEEEENS4_IfEE
_ZN7Imf_3_17CubeMap17dataWindowForFaceENS_11CubeMapFaceERKN9Imath_3_13BoxINS2_4Vec2IiEEEE
_ZN7Imf_3_17CubeMap20faceAndPixelPositionERKN9Imath_3_14Vec3IfEERKNS1_3BoxINS1_4Vec2IiEEEERNS_11CubeMapFaceERNS7_IfEE
_ZN7Imf_3_17CubeMap9directionENS_11CubeMapFaceERKN9Imath_3_13BoxINS2_4Vec2IiEEEERKNS4_IfEE
_ZN7Imf_3_17IStream16readMemoryMappedEi
_ZN7Imf_3_17IStream5clearEv
_ZN7Imf_3_17IStreamC2EPKc
_ZN7Imf_3_17IStreamD0Ev
_ZN7Imf_3_17IStreamD1Ev
_ZN7Imf_3_17IStreamD2Ev
_ZN7Imf_3_17KeyCode11setFilmTypeEi
_ZN7Imf_3_17KeyCode13setPerfOffsetEi
_ZN7Imf_3_17KeyCode14setFilmMfcCodeEi
_ZN7Imf_3_17KeyCode16setPerfsPerCountEi
_ZN7Imf_3_17KeyCode16setPerfsPerFrameEi
_ZN7Imf_3_17KeyCode8setCountEi
_ZN7Imf_3_17KeyCode9setPrefixEi
_ZN7Imf_3_17KeyCodeC1ERKS0_
_ZN7Imf_3_17KeyCodeC1Eiiiiiii
_ZN7Imf_3_17KeyCodeC2ERKS0_
_ZN7Imf_3_17KeyCodeC2Eiiiiiii
_ZN7Imf_3_17KeyCodeaSERKS0_
_ZN7Imf_3_17OStreamC2EPKc
_ZN7Imf_3_17OStreamD0Ev
_ZN7Imf_3_17OStreamD1Ev
_ZN7Imf_3_17OStreamD2Ev
_ZN7Imf_3_17RgbaYca13fixSaturationERKN9Imath_3_14Vec3IfEEiPKPKNS_4RgbaEPS6_
_ZN7Imf_3_17RgbaYca18decimateChromaVertEiPKPKNS_4RgbaEPS1_
_ZN7Imf_3_17RgbaYca19decimateChromaHorizEiPKNS_4RgbaEPS1_
_ZN7Imf_3_17RgbaYca21reconstructChromaVertEiPKPKNS_4RgbaEPS1_
_ZN7Imf_3_17RgbaYca22reconstructChromaHorizEiPKNS_4RgbaEPS1_
_ZN7Imf_3_17RgbaYca8roundYCAEijjPKNS_4RgbaEPS1_
_ZN7Imf_3_17RgbaYca9RGBAtoYCAERKN9Imath_3_14Vec3IfEEibPKNS_4RgbaEPS6_
_ZN7Imf_3_17RgbaYca9YCAtoRGBAERKN9Imath_3_14Vec3IfEEiPKNS_4RgbaEPS6_
_ZN7Imf_3_17RgbaYca9computeYwERKNS_14ChromaticitiesE
_ZN7Imf_3_17capDateERKNS_6HeaderE
_ZN7Imf_3_17capDateERNS_6HeaderE
_ZN7Imf_3_17expTimeERKNS_6HeaderE
_ZN7Imf_3_17expTimeERNS_6HeaderE
_ZN7Imf_3_17isImageERKNSt3__112basic_stringIcNS0_11char_traitsIcEENS0_9allocatorIcEEEE
_ZN7Imf_3_17isTiledERKNSt3__112basic_stringIcNS0_11char_traitsIcEENS0_9allocatorIcEEEE
_ZN7Imf_3_17keyCodeERKNS_6HeaderE
_ZN7Imf_3_17keyCodeERNS_6HeaderE
_ZN7Imf_3_18RGBtoXYZERKNS_14ChromaticitiesEf
_ZN7Imf_3_18RationalC1Ed
_ZN7Imf_3_18RationalC2Ed
_ZN7Imf_3_18TimeCode10setMinutesEi
_ZN7Imf_3_18TimeCode10setSecondsEi
_ZN7Imf_3_18TimeCode11setUserDataEj
_ZN7Imf_3_18TimeCode12setDropFrameEb
_ZN7Imf_3_18TimeCode13setColorFrameEb
_ZN7Imf_3_18TimeCode13setFieldPhaseEb
_ZN7Imf_3_18TimeCode14setBinaryGroupEii
_ZN7Imf_3_18TimeCode15setTimeAndFlagsEjNS0_7PackingE
_ZN7Imf_3_18TimeCode7setBgf0Eb
_ZN7Imf_3_18TimeCode7setBgf1Eb
_ZN7Imf_3_18TimeCode7setBgf2Eb
_ZN7Imf_3_18TimeCode8setFrameEi
_ZN7Imf_3_18TimeCode8setHoursEi
_ZN7Imf_3_18TimeCodeC1ERKS0_
_ZN7Imf_3_18TimeCodeC1Eiiiibbbbbbiiiiiiii
_ZN7Imf_3_18TimeCodeC1EjjNS0_7PackingE
_ZN7Imf_3_18TimeCodeC1Ev
_ZN7Imf_3_18TimeCodeC2ERKS0_
_ZN7Imf_3_18TimeCodeC2Eiiiibbbbbbiiiiiiii
_ZN7Imf_3_18TimeCodeC2EjjNS0_7PackingE
_ZN7Imf_3_18TimeCodeC2Ev
_ZN7Imf_3_18TimeCodeaSERKS0_
_ZN7Imf_3_18XYZtoRGBERKNS_14ChromaticitiesEf
_ZN7Imf_3_18addFocusERNS_6HeaderERKf
_ZN7Imf_3_18addOwnerERNS_6HeaderERKNSt3__112basic_stringIcNS2_11char_traitsIcEENS2_9allocatorIcEEEE
_ZN7Imf_3_18altitudeERKNS_6HeaderE
_ZN7Imf_3_18altitudeERNS_6HeaderE
_ZN7Imf_3_18apertureERKNS_6HeaderE
_ZN7Imf_3_18apertureERNS_6HeaderE
_ZN7Imf_3_18commentsERKNS_6HeaderE
_ZN7Imf_3_18commentsERNS_6HeaderE
_ZN7Imf_3_18hasFocusERKNS_6HeaderE
_ZN7Imf_3_18hasOwnerERKNS_6HeaderE
_ZN7Imf_3_18isoSpeedERKNS_6HeaderE
_ZN7Imf_3_18isoSpeedERNS_6HeaderE
_ZN7Imf_3_18latitudeERKNS_6HeaderE
_ZN7Imf_3_18latitudeERNS_6HeaderE
_ZN7Imf_3_18timeCodeERKNS_6HeaderE
_ZN7Imf_3_18timeCodeERNS_6HeaderE
_ZN7Imf_3_18xDensityERKNS_6HeaderE
_ZN7Imf_3_18xDensityERNS_6HeaderE
_ZN7Imf_3_19Attribute12newAttributeEPKc
_ZN7Imf_3_19Attribute21registerAttributeTypeEPKcPFPS0_vE
_ZN7Imf_3_19Attribute23unRegisterAttributeTypeEPKc
_ZN7Imf_3_19Attribute9knownTypeEPKc
_ZN7Imf_3_19AttributeC2Ev
_ZN7Imf_3_19AttributeD0Ev
_ZN7Imf_3_19AttributeD1Ev
_ZN7Imf_3_19AttributeD2Ev
_ZN7Imf_3_19DeepSliceC1ENS_9PixelTypeEPcyyyiidbb
_ZN7Imf_3_19DeepSliceC2ENS_9PixelTypeEPcyyyiidbb
_ZN7Imf_3_19InputFile10readPixelsEi
_ZN7Imf_3_19InputFile10readPixelsEii
_ZN7Imf_3_19InputFile11rawTileDataERiS1_S1_S1_RPKcS1_
_ZN7Imf_3_19InputFile12rawPixelDataEiRPKcRi
_ZN7Imf_3_19InputFile14setFrameBufferERKNS_11FrameBufferE
_ZN7Imf_3_19InputFileC1EPKci
_ZN7Imf_3_19InputFileC1ERNS_7IStreamEi
_ZN7Imf_3_19InputFileC2EPKci
_ZN7Imf_3_19InputFileC2ERNS_7IStreamEi
_ZN7Imf_3_19InputFileD0Ev
_ZN7Imf_3_19InputFileD1Ev
_ZN7Imf_3_19InputFileD2Ev
_ZN7Imf_3_19InputPart10readPixelsEi
_ZN7Imf_3_19InputPart10readPixelsEii
_ZN7Imf_3_19InputPart11rawTileDataERiS1_S1_S1_RPKcS1_
_ZN7Imf_3_19InputPart12rawPixelDataEiRPKcRi
_ZN7Imf_3_19InputPart14setFrameBufferERKNS_11FrameBufferE
_ZN7Imf_3_19InputPartC1ERNS_18MultiPartInputFileEi
_ZN7Imf_3_19InputPartC2ERNS_18MultiPartInputFileEi
_ZN7Imf_3_19addEnvmapERNS_6HeaderERKNS_6EnvmapE
_ZN7Imf_3_19hasEnvmapERKNS_6HeaderE
_ZN7Imf_3_19levelSizeEiiiNS_17LevelRoundingModeE
_ZN7Imf_3_19longitudeERKNS_6HeaderE
_ZN7Imf_3_19longitudeERNS_6HeaderE
_ZN7Imf_3_19multiViewERKNS_6HeaderE
_ZN7Imf_3_19multiViewERNS_6HeaderE
_ZN7Imf_3_19utcOffsetERKNS_6HeaderE
_ZN7Imf_3_19utcOffsetERNS_6HeaderE
_ZN7Imf_3_19wrapmodesERKNS_6HeaderE
_ZN7Imf_3_19wrapmodesERNS_6HeaderE
_ZNK7Imf_3_110Compressor6formatEv
_ZNK7Imf_3_110IDManifest20ChannelGroupManifest11getChannelsEv
_ZNK7Imf_3_110IDManifest20ChannelGroupManifest13ConstIterator2idEv
_ZNK7Imf_3_110IDManifest20ChannelGroupManifest13ConstIterator4textEv
_ZNK7Imf_3_110IDManifest20ChannelGroupManifest13getComponentsEv
_ZNK7Imf_3_110IDManifest20ChannelGroupManifest3endEv
_ZNK7Imf_3_110IDManifest20ChannelGroupManifest4findEy
_ZNK7Imf_3_110IDManifest20ChannelGroupManifest4sizeEv
_ZNK7Imf_3_110IDManifest20ChannelGroupManifest5beginEv
_ZNK7Imf_3_110IDManifest20ChannelGroupManifest8Iterator2idEv
_ZNK7Imf_3_110IDManifest20ChannelGroupManifesteqERKS1_
_ZNK7Imf_3_110IDManifest4findERKNSt3__112basic_stringIcNS1_11char_traitsIcEENS1_9allocatorIcEEEE
_ZNK7Imf_3_110IDManifest4sizeEv
_ZNK7Imf_3_110IDManifest9serializeERNSt3__16vectorIcNS1_9allocatorIcEEEE
_ZNK7Imf_3_110IDManifesteqERKS0_
_ZNK7Imf_3_110IDManifestixEy
_ZNK7Imf_3_110IDManifestneERKS0_
_ZNK7Imf_3_110OutputFile11frameBufferEv
_ZNK7Imf_3_110OutputFile15currentScanLineEv
_ZNK7Imf_3_110OutputFile6headerEv
_ZNK7Imf_3_110OutputFile8fileNameEv
_ZNK7Imf_3_110OutputPart11frameBufferEv
_ZNK7Imf_3_110OutputPart15currentScanLineEv
_ZNK7Imf_3_110OutputPart6headerEv
_ZNK7Imf_3_110OutputPart8fileNameEv
_ZNK7Imf_3_111ChannelList11findChannelEPKc
_ZNK7Imf_3_111ChannelList11findChannelERKNSt3__112basic_stringIcNS1_11char_traitsIcEENS1_9allocatorIcEEEE
_ZNK7Imf_3_111ChannelList13ConstIterator4nameEv
_ZNK7Imf_3_111ChannelList13ConstIterator7channelEv
_ZNK7Imf_3_111ChannelList15channelsInLayerERKNSt3__112basic_stringIcNS1_11char_traitsIcEENS1_9allocatorIcEEEERNS0_13ConstIteratorESB_
_ZNK7Imf_3_111ChannelList18channelsWithPrefixEPKcRNS0_13ConstIteratorES4_
_ZNK7Imf_3_111ChannelList18channelsWithPrefixERKNSt3__112basic_stringIcNS1_11char_traitsIcEENS1_9allocatorIcEEEERNS0_13ConstIteratorESB_
_ZNK7Imf_3_111ChannelList3endEv
_ZNK7Imf_3_111ChannelList4findEPKc
_ZNK7Imf_3_111ChannelList4findERKNSt3__112basic_stringIcNS1_11char_traitsIcEENS1_9allocatorIcEEEE
_ZNK7Imf_3_111ChannelList5beginEv
_ZNK7Imf_3_111ChannelList6layersERNSt3__13setINS1_12basic_stringIcNS1_11char_traitsIcEENS1_9allocatorIcEEEENS1_4lessIS8_EENS6_IS8_EEEE
_ZNK7Imf_3_111ChannelList8Iterator4nameEv
_ZNK7Imf_3_111ChannelList8Iterator7channelEv
_ZNK7Imf_3_111ChannelListeqERKS0_
_ZNK7Imf_3_111ChannelListixEPKc
_ZNK7Imf_3_111ChannelListixERKNSt3__112basic_stringIcNS1_11char_traitsIcEENS1_9allocatorIcEEEE
_ZNK7Imf_3_111FrameBuffer13ConstIterator4nameEv
_ZNK7Imf_3_111FrameBuffer13ConstIterator5sliceEv
_ZNK7Imf_3_111FrameBuffer3endEv
_ZNK7Imf_3_111FrameBuffer4findEPKc
_ZNK7Imf_3_111FrameBuffer4findERKNSt3__112basic_stringIcNS1_11char_traitsIcEENS1_9allocatorIcEEEE
_ZNK7Imf_3_111FrameBuffer5beginEv
_ZNK7Imf_3_111FrameBuffer8Iterator4nameEv
_ZNK7Imf_3_111FrameBuffer8Iterator5sliceEv
_ZNK7Imf_3_111FrameBuffer9findSliceEPKc
_ZNK7Imf_3_111FrameBuffer9findSliceERKNSt3__112basic_stringIcNS1_11char_traitsIcEENS1_9allocatorIcEEEE
_ZNK7Imf_3_111FrameBufferixEPKc
_ZNK7Imf_3_111FrameBufferixERKNSt3__112basic_stringIcNS1_11char_traitsIcEENS1_9allocatorIcEEEE
_ZNK7Imf_3_111StdISStream3strEv
_ZNK7Imf_3_111StdOSStream3strEv
_ZNK7Imf_3_111TileOffsets10getOffsetsEv
_ZNK7Imf_3_111TileOffsets11isValidTileEiiii
_ZNK7Imf_3_111TileOffsets12getTileOrderEPiS1_S1_S1_
_ZNK7Imf_3_111TileOffsets7isEmptyEv
_ZNK7Imf_3_111TileOffsets7writeToERNS_7OStreamE
_ZNK7Imf_3_111TileOffsetsclEiii
_ZNK7Imf_3_111TileOffsetsclEiiii
_ZNK7Imf_3_113AcesInputFile10dataWindowEv
_ZNK7Imf_3_113AcesInputFile10isCompleteEv
_ZNK7Imf_3_113AcesInputFile11compressionEv
_ZNK7Imf_3_113AcesInputFile13displayWindowEv
_ZNK7Imf_3_113AcesInputFile16pixelAspectRatioEv
_ZNK7Imf_3_113AcesInputFile17screenWindowWidthEv
_ZNK7Imf_3_113AcesInputFile18screenWindowCenterEv
_ZNK7Imf_3_113AcesInputFile6headerEv
_ZNK7Imf_3_113AcesInputFile7versionEv
_ZNK7Imf_3_113AcesInputFile8channelsEv
_ZNK7Imf_3_113AcesInputFile8fileNameEv
_ZNK7Imf_3_113AcesInputFile9lineOrderEv
_ZNK7Imf_3_113RgbaInputFile10dataWindowEv
_ZNK7Imf_3_113RgbaInputFile10isCompleteEv
_ZNK7Imf_3_113RgbaInputFile11compressionEv
_ZNK7Imf_3_113RgbaInputFile11frameBufferEv
_ZNK7Imf_3_113RgbaInputFile13displayWindowEv
_ZNK7Imf_3_113RgbaInputFile16pixelAspectRatioEv
_ZNK7Imf_3_113RgbaInputFile17screenWindowWidthEv
_ZNK7Imf_3_113RgbaInputFile18screenWindowCenterEv
_ZNK7Imf_3_113RgbaInputFile6headerEv
_ZNK7Imf_3_113RgbaInputFile7versionEv
_ZNK7Imf_3_113RgbaInputFile8channelsEv
_ZNK7Imf_3_113RgbaInputFile8fileNameEv
_ZNK7Imf_3_113RgbaInputFile9lineOrderEv
_ZNK7Imf_3_114AcesOutputFile10dataWindowEv
_ZNK7Imf_3_114AcesOutputFile11compressionEv
_ZNK7Imf_3_114AcesOutputFile13displayWindowEv
_ZNK7Imf_3_114AcesOutputFile15currentScanLineEv
_ZNK7Imf_3_114AcesOutputFile16pixelAspectRatioEv
_ZNK7Imf_3_114AcesOutputFile17screenWindowWidthEv
_ZNK7Imf_3_114AcesOutputFile18screenWindowCenterEv
_ZNK7Imf_3_114AcesOutputFile6headerEv
_ZNK7Imf_3_114AcesOutputFile8channelsEv
_ZNK7Imf_3_114AcesOutputFile9lineOrderEv
_ZNK7Imf_3_114ChromaticitieseqERKS0_
_ZNK7Imf_3_114ChromaticitiesneERKS0_
_ZNK7Imf_3_114RgbaOutputFile10dataWindowEv
_ZNK7Imf_3_114RgbaOutputFile11compressionEv
_ZNK7Imf_3_114RgbaOutputFile11frameBufferEv
_ZNK7Imf_3_114RgbaOutputFile13displayWindowEv
_ZNK7Imf_3_114RgbaOutputFile15currentScanLineEv
_ZNK7Imf_3_114RgbaOutputFile16pixelAspectRatioEv
_ZNK7Imf_3_114RgbaOutputFile17screenWindowWidthEv
_ZNK7Imf_3_114RgbaOutputFile18screenWindowCenterEv
_ZNK7Imf_3_114RgbaOutputFile6headerEv
_ZNK7Imf_3_114RgbaOutputFile8channelsEv
_ZNK7Imf_3_114RgbaOutputFile9lineOrderEv
_ZNK7Imf_3_114TiledInputFile10isCompleteEv
_ZNK7Imf_3_114TiledInputFile10levelWidthEi
_ZNK7Imf_3_114TiledInputFile10numXLevelsEv
_ZNK7Imf_3_114TiledInputFile10numYLevelsEv
_ZNK7Imf_3_114TiledInputFile11frameBufferEv
_ZNK7Imf_3_114TiledInputFile11levelHeightEi
_ZNK7Imf_3_114TiledInputFile12isValidLevelEii
_ZNK7Imf_3_114TiledInputFile17dataWindowForTileEiii
_ZNK7Imf_3_114TiledInputFile17dataWindowForTileEiiii
_ZNK7Imf_3_114TiledInputFile17levelRoundingModeEv
_ZNK7Imf_3_114TiledInputFile18dataWindowForLevelEi
_ZNK7Imf_3_114TiledInputFile18dataWindowForLevelEii
_ZNK7Imf_3_114TiledInputFile6headerEv
_ZNK7Imf_3_114TiledInputFile7versionEv
_ZNK7Imf_3_114TiledInputFile8fileNameEv
_ZNK7Imf_3_114TiledInputFile9levelModeEv
_ZNK7Imf_3_114TiledInputFile9numLevelsEv
_ZNK7Imf_3_114TiledInputFile9numXTilesEi
_ZNK7Imf_3_114TiledInputFile9numYTilesEi
_ZNK7Imf_3_114TiledInputFile9tileXSizeEv
_ZNK7Imf_3_114TiledInputFile9tileYSizeEv
_ZNK7Imf_3_114TiledInputPart10isCompleteEv
_ZNK7Imf_3_114TiledInputPart10levelWidthEi
_ZNK7Imf_3_114TiledInputPart10numXLevelsEv
_ZNK7Imf_3_114TiledInputPart10numYLevelsEv
_ZNK7Imf_3_114TiledInputPart11frameBufferEv
_ZNK7Imf_3_114TiledInputPart11levelHeightEi
_ZNK7Imf_3_114TiledInputPart12isValidLevelEii
_ZNK7Imf_3_114TiledInputPart17dataWindowForTileEiii
_ZNK7Imf_3_114TiledInputPart17dataWindowForTileEiiii
_ZNK7Imf_3_114TiledInputPart17levelRoundingModeEv
_ZNK7Imf_3_114TiledInputPart18dataWindowForLevelEi
_ZNK7Imf_3_114TiledInputPart18dataWindowForLevelEii
_ZNK7Imf_3_114TiledInputPart6headerEv
_ZNK7Imf_3_114TiledInputPart7versionEv
_ZNK7Imf_3_114TiledInputPart8fileNameEv
_ZNK7Imf_3_114TiledInputPart9levelModeEv
_ZNK7Imf_3_114TiledInputPart9numLevelsEv
_ZNK7Imf_3_114TiledInputPart9numXTilesEi
_ZNK7Imf_3_114TiledInputPart9numYTilesEi
_ZNK7Imf_3_114TiledInputPart9tileXSizeEv
_ZNK7Imf_3_114TiledInputPart9tileYSizeEv
_ZNK7Imf_3_114TypedAttributeIN9Imath_3_13BoxINS1_4Vec2IfEEEEE4copyEv
_ZNK7Imf_3_114TypedAttributeIN9Imath_3_13BoxINS1_4Vec2IfEEEEE5valueEv
_ZNK7Imf_3_114TypedAttributeIN9Imath_3_13BoxINS1_4Vec2IfEEEEE8typeNameEv
_ZNK7Imf_3_114TypedAttributeIN9Imath_3_13BoxINS1_4Vec2IiEEEEE4copyEv
_ZNK7Imf_3_114TypedAttributeIN9Imath_3_13BoxINS1_4Vec2IiEEEEE5valueEv
_ZNK7Imf_3_114TypedAttributeIN9Imath_3_13BoxINS1_4Vec2IiEEEEE8typeNameEv
_ZNK7Imf_3_114TypedAttributeIN9Imath_3_14Vec2IdEEE4copyEv
_ZNK7Imf_3_114TypedAttributeIN9Imath_3_14Vec2IdEEE5valueEv
_ZNK7Imf_3_114TypedAttributeIN9Imath_3_14Vec2IdEEE8typeNameEv
_ZNK7Imf_3_114TypedAttributeIN9Imath_3_14Vec2IfEEE4copyEv
_ZNK7Imf_3_114TypedAttributeIN9Imath_3_14Vec2IfEEE5valueEv
_ZNK7Imf_3_114TypedAttributeIN9Imath_3_14Vec2IfEEE8typeNameEv
_ZNK7Imf_3_114TypedAttributeIN9Imath_3_14Vec2IiEEE4copyEv
_ZNK7Imf_3_114TypedAttributeIN9Imath_3_14Vec2IiEEE5valueEv
_ZNK7Imf_3_114TypedAttributeIN9Imath_3_14Vec2IiEEE8typeNameEv
_ZNK7Imf_3_114TypedAttributeIN9Imath_3_14Vec3IdEEE4copyEv
_ZNK7Imf_3_114TypedAttributeIN9Imath_3_14Vec3IdEEE5valueEv
_ZNK7Imf_3_114TypedAttributeIN9Imath_3_14Vec3IdEEE8typeNameEv
_ZNK7Imf_3_114TypedAttributeIN9Imath_3_14Vec3IfEEE4copyEv
_ZNK7Imf_3_114TypedAttributeIN9Imath_3_14Vec3IfEEE5valueEv
_ZNK7Imf_3_114TypedAttributeIN9Imath_3_14Vec3IfEEE8typeNameEv
_ZNK7Imf_3_114TypedAttributeIN9Imath_3_14Vec3IiEEE4copyEv
_ZNK7Imf_3_114TypedAttributeIN9Imath_3_14Vec3IiEEE5valueEv
_ZNK7Imf_3_114TypedAttributeIN9Imath_3_14Vec3IiEEE8typeNameEv
_ZNK7Imf_3_114TypedAttributeIN9Imath_3_18Matrix33IdEEE4copyEv
_ZNK7Imf_3_114TypedAttributeIN9Imath_3_18Matrix33IdEEE5valueEv
_ZNK7Imf_3_114TypedAttributeIN9Imath_3_18Matrix33IdEEE8typeNameEv
_ZNK7Imf_3_114TypedAttributeIN9Imath_3_18Matrix33IfEEE4copyEv
_ZNK7Imf_3_114TypedAttributeIN9Imath_3_18Matrix33IfEEE5valueEv
_ZNK7Imf_3_114TypedAttributeIN9Imath_3_18Matrix33IfEEE8typeNameEv
_ZNK7Imf_3_114TypedAttributeIN9Imath_3_18Matrix44IdEEE4copyEv
_ZNK7Imf_3_114TypedAttributeIN9Imath_3_18Matrix44IdEEE5valueEv
_ZNK7Imf_3_114TypedAttributeIN9Imath_3_18Matrix44IdEEE8typeNameEv
_ZNK7Imf_3_114TypedAttributeIN9Imath_3_18Matrix44IfEEE4copyEv
_ZNK7Imf_3_114TypedAttributeIN9Imath_3_18Matrix44IfEEE5valueEv
_ZNK7Imf_3_114TypedAttributeIN9Imath_3_18Matrix44IfEEE8typeNameEv
_ZNK7Imf_3_114TypedAttributeINS_11ChannelListEE4copyEv
_ZNK7Imf_3_114TypedAttributeINS_11ChannelListEE5valueEv
_ZNK7Imf_3_114TypedAttributeINS_11ChannelListEE8typeNameEv
_ZNK7Imf_3_114TypedAttributeINS_11CompressionEE4copyEv
_ZNK7Imf_3_114TypedAttributeINS_11CompressionEE5valueEv
_ZNK7Imf_3_114TypedAttributeINS_11CompressionEE8typeNameEv
_ZNK7Imf_3_114TypedAttributeINS_12PreviewImageEE4copyEv
_ZNK7Imf_3_114TypedAttributeINS_12PreviewImageEE5valueEv
_ZNK7Imf_3_114TypedAttributeINS_12PreviewImageEE8typeNameEv
_ZNK7Imf_3_114TypedAttributeINS_14ChromaticitiesEE4copyEv
_ZNK7Imf_3_114TypedAttributeINS_14ChromaticitiesEE5valueEv
_ZNK7Imf_3_114TypedAttributeINS_14ChromaticitiesEE8typeNameEv
_ZNK7Imf_3_114TypedAttributeINS_14DeepImageStateEE4copyEv
_ZNK7Imf_3_114TypedAttributeINS_14DeepImageStateEE5valueEv
_ZNK7Imf_3_114TypedAttributeINS_14DeepImageStateEE8typeNameEv
_ZNK7Imf_3_114TypedAttributeINS_15TileDescriptionEE4copyEv
_ZNK7Imf_3_114TypedAttributeINS_15TileDescriptionEE5valueEv
_ZNK7Imf_3_114TypedAttributeINS_15TileDescriptionEE8typeNameEv
_ZNK7Imf_3_114TypedAttributeINS_20CompressedIDManifestEE4copyEv
_ZNK7Imf_3_114TypedAttributeINS_20CompressedIDManifestEE5valueEv
_ZNK7Imf_3_114TypedAttributeINS_20CompressedIDManifestEE8typeNameEv
_ZNK7Imf_3_114TypedAttributeINS_6EnvmapEE4copyEv
_ZNK7Imf_3_114TypedAttributeINS_6EnvmapEE5valueEv
_ZNK7Imf_3_114TypedAttributeINS_6EnvmapEE8typeNameEv
_ZNK7Imf_3_114TypedAttributeINS_7KeyCodeEE4copyEv
_ZNK7Imf_3_114TypedAttributeINS_7KeyCodeEE5valueEv
_ZNK7Imf_3_114TypedAttributeINS_7KeyCodeEE8typeNameEv
_ZNK7Imf_3_114TypedAttributeINS_8RationalEE4copyEv
_ZNK7Imf_3_114TypedAttributeINS_8RationalEE5valueEv
_ZNK7Imf_3_114TypedAttributeINS_8RationalEE8typeNameEv
_ZNK7Imf_3_114TypedAttributeINS_8TimeCodeEE4copyEv
_ZNK7Imf_3_114TypedAttributeINS_8TimeCodeEE5valueEv
_ZNK7Imf_3_114TypedAttributeINS_8TimeCodeEE8typeNameEv
_ZNK7Imf_3_114TypedAttributeINS_9LineOrderEE4copyEv
_ZNK7Imf_3_114TypedAttributeINS_9LineOrderEE5valueEv
_ZNK7Imf_3_114TypedAttributeINS_9LineOrderEE8typeNameEv
_ZNK7Imf_3_114TypedAttributeINSt3__112basic_stringIcNS1_11char_traitsIcEENS1_9allocatorIcEEEEE4copyEv
_ZNK7Imf_3_114TypedAttributeINSt3__112basic_stringIcNS1_11char_traitsIcEENS1_9allocatorIcEEEEE5valueEv
_ZNK7Imf_3_114TypedAttributeINSt3__112basic_stringIcNS1_11char_traitsIcEENS1_9allocatorIcEEEEE8typeNameEv
_ZNK7Imf_3_114TypedAttributeINSt3__16vectorINS1_12basic_stringIcNS1_11char_traitsIcEENS1_9allocatorIcEEEENS6_IS8_EEEEE4copyEv
_ZNK7Imf_3_114TypedAttributeINSt3__16vectorINS1_12basic_stringIcNS1_11char_traitsIcEENS1_9allocatorIcEEEENS6_IS8_EEEEE5valueEv
_ZNK7Imf_3_114TypedAttributeINSt3__16vectorINS1_12basic_stringIcNS1_11char_traitsIcEENS1_9allocatorIcEEEENS6_IS8_EEEEE8typeNameEv
_ZNK7Imf_3_114TypedAttributeINSt3__16vectorIfNS1_9allocatorIfEEEEE4copyEv
_ZNK7Imf_3_114TypedAttributeINSt3__16vectorIfNS1_9allocatorIfEEEEE5valueEv
_ZNK7Imf_3_114TypedAttributeINSt3__16vectorIfNS1_9allocatorIfEEEEE8typeNameEv
_ZNK7Imf_3_114TypedAttributeIdE12writeValueToERNS_7OStreamEi
_ZNK7Imf_3_114TypedAttributeIdE4copyEv
_ZNK7Imf_3_114TypedAttributeIdE5valueEv
_ZNK7Imf_3_114TypedAttributeIdE8typeNameEv
_ZNK7Imf_3_114TypedAttributeIfE12writeValueToERNS_7OStreamEi
_ZNK7Imf_3_114TypedAttributeIfE4copyEv
_ZNK7Imf_3_114TypedAttributeIfE5valueEv
_ZNK7Imf_3_114TypedAttributeIfE8typeNameEv
_ZNK7Imf_3_114TypedAttributeIiE12writeValueToERNS_7OStreamEi
_ZNK7Imf_3_114TypedAttributeIiE4copyEv
_ZNK7Imf_3_114TypedAttributeIiE5valueEv
_ZNK7Imf_3_114TypedAttributeIiE8typeNameEv
_ZNK7Imf_3_115DeepFrameBuffer13ConstIterator4nameEv
_ZNK7Imf_3_115DeepFrameBuffer13ConstIterator5sliceEv
_ZNK7Imf_3_115DeepFrameBuffer19getSampleCountSliceEv
_ZNK7Imf_3_115DeepFrameBuffer3endEv
_ZNK7Imf_3_115DeepFrameBuffer4findEPKc
_ZNK7Imf_3_115DeepFrameBuffer4findERKNSt3__112basic_stringIcNS1_11char_traitsIcEENS1_9allocatorIcEEEE
_ZNK7Imf_3_115DeepFrameBuffer5beginEv
_ZNK7Imf_3_115DeepFrameBuffer8Iterator4nameEv
_ZNK7Imf_3_115DeepFrameBuffer8Iterator5sliceEv
_ZNK7Imf_3_115DeepFrameBuffer9findSliceEPKc
_ZNK7Imf_3_115DeepFrameBuffer9findSliceERKNSt3__112basic_stringIcNS1_11char_traitsIcEENS1_9allocatorIcEEEE
_ZNK7Imf_3_115DeepFrameBufferixEPKc
_ZNK7Imf_3_115DeepFrameBufferixERKNSt3__112basic_stringIcNS1_11char_traitsIcEENS1_9allocatorIcEEEE
_ZNK7Imf_3_115OpaqueAttribute12writeValueToERNS_7OStreamEi
_ZNK7Imf_3_115OpaqueAttribute4copyEv
_ZNK7Imf_3_115OpaqueAttribute8typeNameEv
_ZNK7Imf_3_115TiledOutputFile10levelWidthEi
_ZNK7Imf_3_115TiledOutputFile10numXLevelsEv
_ZNK7Imf_3_115TiledOutputFile10numYLevelsEv
_ZNK7Imf_3_115TiledOutputFile11frameBufferEv
_ZNK7Imf_3_115TiledOutputFile11levelHeightEi
_ZNK7Imf_3_115TiledOutputFile12isValidLevelEii
_ZNK7Imf_3_115TiledOutputFile17dataWindowForTileEiii
_ZNK7Imf_3_115TiledOutputFile17dataWindowForTileEiiii
_ZNK7Imf_3_115TiledOutputFile17levelRoundingModeEv
_ZNK7Imf_3_115TiledOutputFile18dataWindowForLevelEi
_ZNK7Imf_3_115TiledOutputFile18dataWindowForLevelEii
_ZNK7Imf_3_115TiledOutputFile6headerEv
_ZNK7Imf_3_115TiledOutputFile8fileNameEv
_ZNK7Imf_3_115TiledOutputFile9levelModeEv
_ZNK7Imf_3_115TiledOutputFile9numLevelsEv
_ZNK7Imf_3_115TiledOutputFile9numXTilesEi
_ZNK7Imf_3_115TiledOutputFile9numYTilesEi
_ZNK7Imf_3_115TiledOutputFile9tileXSizeEv
_ZNK7Imf_3_115TiledOutputFile9tileYSizeEv
_ZNK7Imf_3_115TiledOutputPart10levelWidthEi
_ZNK7Imf_3_115TiledOutputPart10numXLevelsEv
_ZNK7Imf_3_115TiledOutputPart10numYLevelsEv
_ZNK7Imf_3_115TiledOutputPart11frameBufferEv
_ZNK7Imf_3_115TiledOutputPart11levelHeightEi
_ZNK7Imf_3_115TiledOutputPart12isValidLevelEii
_ZNK7Imf_3_115TiledOutputPart17dataWindowForTileEiii
_ZNK7Imf_3_115TiledOutputPart17dataWindowForTileEiiii
_ZNK7Imf_3_115TiledOutputPart17levelRoundingModeEv
_ZNK7Imf_3_115TiledOutputPart18dataWindowForLevelEi
_ZNK7Imf_3_115TiledOutputPart18dataWindowForLevelEii
_ZNK7Imf_3_115TiledOutputPart6headerEv
_ZNK7Imf_3_115TiledOutputPart8fileNameEv
_ZNK7Imf_3_115TiledOutputPart9levelModeEv
_ZNK7Imf_3_115TiledOutputPart9numLevelsEv
_ZNK7Imf_3_115TiledOutputPart9numXTilesEi
_ZNK7Imf_3_115TiledOutputPart9numYTilesEi
_ZNK7Imf_3_115TiledOutputPart9tileXSizeEv
_ZNK7Imf_3_115TiledOutputPart9tileYSizeEv
_ZNK7Imf_3_117ScanLineInputFile10isCompleteEv
_ZNK7Imf_3_117ScanLineInputFile11frameBufferEv
_ZNK7Imf_3_117ScanLineInputFile20rawPixelDataToBufferEiPcRi
_ZNK7Imf_3_117ScanLineInputFile21isOptimizationEnabledEv
_ZNK7Imf_3_117ScanLineInputFile6headerEv
_ZNK7Imf_3_117ScanLineInputFile7versionEv
_ZNK7Imf_3_117ScanLineInputFile8fileNameEv
_ZNK7Imf_3_118DeepTiledInputFile10isCompleteEv
_ZNK7Imf_3_118DeepTiledInputFile10levelWidthEi
_ZNK7Imf_3_118DeepTiledInputFile10numXLevelsEv
_ZNK7Imf_3_118DeepTiledInputFile10numYLevelsEv
_ZNK7Imf_3_118DeepTiledInputFile10totalTilesEv
_ZNK7Imf_3_118DeepTiledInputFile11frameBufferEv
_ZNK7Imf_3_118DeepTiledInputFile11levelHeightEi
_ZNK7Imf_3_118DeepTiledInputFile11rawTileDataERiS1_S1_S1_PcRy
_ZNK7Imf_3_118DeepTiledInputFile12isValidLevelEii
_ZNK7Imf_3_118DeepTiledInputFile17dataWindowForTileEiii
_ZNK7Imf_3_118DeepTiledInputFile17dataWindowForTileEiiii
_ZNK7Imf_3_118DeepTiledInputFile17levelRoundingModeEv
_ZNK7Imf_3_118DeepTiledInputFile18dataWindowForLevelEi
_ZNK7Imf_3_118DeepTiledInputFile18dataWindowForLevelEii
_ZNK7Imf_3_118DeepTiledInputFile6headerEv
_ZNK7Imf_3_118DeepTiledInputFile7versionEv
_ZNK7Imf_3_118DeepTiledInputFile8fileNameEv
_ZNK7Imf_3_118DeepTiledInputFile9levelModeEv
_ZNK7Imf_3_118DeepTiledInputFile9numLevelsEv
_ZNK7Imf_3_118DeepTiledInputFile9numXTilesEi
_ZNK7Imf_3_118DeepTiledInputFile9numYTilesEi
_ZNK7Imf_3_118DeepTiledInputFile9tileXSizeEv
_ZNK7Imf_3_118DeepTiledInputFile9tileYSizeEv
_ZNK7Imf_3_118DeepTiledInputPart10isCompleteEv
_ZNK7Imf_3_118DeepTiledInputPart10levelWidthEi
_ZNK7Imf_3_118DeepTiledInputPart10numXLevelsEv
_ZNK7Imf_3_118DeepTiledInputPart10numYLevelsEv
_ZNK7Imf_3_118DeepTiledInputPart11frameBufferEv
_ZNK7Imf_3_118DeepTiledInputPart11levelHeightEi
_ZNK7Imf_3_118DeepTiledInputPart11rawTileDataERiS1_S1_S1_PcRy
_ZNK7Imf_3_118DeepTiledInputPart12isValidLevelEii
_ZNK7Imf_3_118DeepTiledInputPart17dataWindowForTileEiii
_ZNK7Imf_3_118DeepTiledInputPart17dataWindowForTileEiiii
_ZNK7Imf_3_118DeepTiledInputPart17levelRoundingModeEv
_ZNK7Imf_3_118DeepTiledInputPart18dataWindowForLevelEi
_ZNK7Imf_3_118DeepTiledInputPart18dataWindowForLevelEii
_ZNK7Imf_3_118DeepTiledInputPart6headerEv
_ZNK7Imf_3_118DeepTiledInputPart7versionEv
_ZNK7Imf_3_118DeepTiledInputPart8fileNameEv
_ZNK7Imf_3_118DeepTiledInputPart9levelModeEv
_ZNK7Imf_3_118DeepTiledInputPart9numLevelsEv
_ZNK7Imf_3_118DeepTiledInputPart9numXTilesEi
_ZNK7Imf_3_118DeepTiledInputPart9numYTilesEi
_ZNK7Imf_3_118DeepTiledInputPart9tileXSizeEv
_ZNK7Imf_3_118DeepTiledInputPart9tileYSizeEv
_ZNK7Imf_3_118MultiPartInputFile12partCompleteEi
_ZNK7Imf_3_118MultiPartInputFile5partsEv
_ZNK7Imf_3_118MultiPartInputFile6headerEi
_ZNK7Imf_3_118MultiPartInputFile7versionEv
_ZNK7Imf_3_118TiledRgbaInputFile10dataWindowEv
_ZNK7Imf_3_118TiledRgbaInputFile10isCompleteEv
_ZNK7Imf_3_118TiledRgbaInputFile10levelWidthEi
_ZNK7Imf_3_118TiledRgbaInputFile10numXLevelsEv
_ZNK7Imf_3_118TiledRgbaInputFile10numYLevelsEv
_ZNK7Imf_3_118TiledRgbaInputFile11compressionEv
_ZNK7Imf_3_118TiledRgbaInputFile11frameBufferEv
_ZNK7Imf_3_118TiledRgbaInputFile11levelHeightEi
_ZNK7Imf_3_118TiledRgbaInputFile12isValidLevelEii
_ZNK7Imf_3_118TiledRgbaInputFile13displayWindowEv
_ZNK7Imf_3_118TiledRgbaInputFile16pixelAspectRatioEv
_ZNK7Imf_3_118TiledRgbaInputFile17dataWindowForTileEiii
_ZNK7Imf_3_118TiledRgbaInputFile17dataWindowForTileEiiii
_ZNK7Imf_3_118TiledRgbaInputFile17levelRoundingModeEv
_ZNK7Imf_3_118TiledRgbaInputFile17screenWindowWidthEv
_ZNK7Imf_3_118TiledRgbaInputFile18dataWindowForLevelEi
_ZNK7Imf_3_118TiledRgbaInputFile18dataWindowForLevelEii
_ZNK7Imf_3_118TiledRgbaInputFile18screenWindowCenterEv
_ZNK7Imf_3_118TiledRgbaInputFile6headerEv
_ZNK7Imf_3_118TiledRgbaInputFile7versionEv
_ZNK7Imf_3_118TiledRgbaInputFile8channelsEv
_ZNK7Imf_3_118TiledRgbaInputFile8fileNameEv
_ZNK7Imf_3_118TiledRgbaInputFile9levelModeEv
_ZNK7Imf_3_118TiledRgbaInputFile9lineOrderEv
_ZNK7Imf_3_118TiledRgbaInputFile9numLevelsEv
_ZNK7Imf_3_118TiledRgbaInputFile9numXTilesEi
_ZNK7Imf_3_118TiledRgbaInputFile9numYTilesEi
_ZNK7Imf_3_118TiledRgbaInputFile9tileXSizeEv
_ZNK7Imf_3_118TiledRgbaInputFile9tileYSizeEv
_ZNK7Imf_3_119DeepTiledOutputFile10levelWidthEi
_ZNK7Imf_3_119DeepTiledOutputFile10numXLevelsEv
_ZNK7Imf_3_119DeepTiledOutputFile10numYLevelsEv
_ZNK7Imf_3_119DeepTiledOutputFile11frameBufferEv
_ZNK7Imf_3_119DeepTiledOutputFile11levelHeightEi
_ZNK7Imf_3_119DeepTiledOutputFile12isValidLevelEii
_ZNK7Imf_3_119DeepTiledOutputFile17dataWindowForTileEiii
_ZNK7Imf_3_119DeepTiledOutputFile17dataWindowForTileEiiii
_ZNK7Imf_3_119DeepTiledOutputFile17levelRoundingModeEv
_ZNK7Imf_3_119DeepTiledOutputFile18dataWindowForLevelEi
_ZNK7Imf_3_119DeepTiledOutputFile18dataWindowForLevelEii
_ZNK7Imf_3_119DeepTiledOutputFile6headerEv
_ZNK7Imf_3_119DeepTiledOutputFile8fileNameEv
_ZNK7Imf_3_119DeepTiledOutputFile9levelModeEv
_ZNK7Imf_3_119DeepTiledOutputFile9numLevelsEv
_ZNK7Imf_3_119DeepTiledOutputFile9numXTilesEi
_ZNK7Imf_3_119DeepTiledOutputFile9numYTilesEi
_ZNK7Imf_3_119DeepTiledOutputFile9tileXSizeEv
_ZNK7Imf_3_119DeepTiledOutputFile9tileYSizeEv
_ZNK7Imf_3_119DeepTiledOutputPart10levelWidthEi
_ZNK7Imf_3_119DeepTiledOutputPart10numXLevelsEv
_ZNK7Imf_3_119DeepTiledOutputPart10numYLevelsEv
_ZNK7Imf_3_119DeepTiledOutputPart11frameBufferEv
_ZNK7Imf_3_119DeepTiledOutputPart11levelHeightEi
_ZNK7Imf_3_119DeepTiledOutputPart12isValidLevelEii
_ZNK7Imf_3_119DeepTiledOutputPart17dataWindowForTileEiii
_ZNK7Imf_3_119DeepTiledOutputPart17dataWindowForTileEiiii
_ZNK7Imf_3_119DeepTiledOutputPart17levelRoundingModeEv
_ZNK7Imf_3_119DeepTiledOutputPart18dataWindowForLevelEi
_ZNK7Imf_3_119DeepTiledOutputPart18dataWindowForLevelEii
_ZNK7Imf_3_119DeepTiledOutputPart6headerEv
_ZNK7Imf_3_119DeepTiledOutputPart8fileNameEv
_ZNK7Imf_3_119DeepTiledOutputPart9levelModeEv
_ZNK7Imf_3_119DeepTiledOutputPart9numLevelsEv
_ZNK7Imf_3_119DeepTiledOutputPart9numXTilesEi
_ZNK7Imf_3_119DeepTiledOutputPart9numYTilesEi
_ZNK7Imf_3_119DeepTiledOutputPart9tileXSizeEv
_ZNK7Imf_3_119DeepTiledOutputPart9tileYSizeEv
_ZNK7Imf_3_119MultiPartOutputFile5partsEv
_ZNK7Imf_3_119MultiPartOutputFile6headerEi
_ZNK7Imf_3_119TiledRgbaOutputFile10dataWindowEv
_ZNK7Imf_3_119TiledRgbaOutputFile10levelWidthEi
_ZNK7Imf_3_119TiledRgbaOutputFile10numXLevelsEv
_ZNK7Imf_3_119TiledRgbaOutputFile10numYLevelsEv
_ZNK7Imf_3_119TiledRgbaOutputFile11compressionEv
_ZNK7Imf_3_119TiledRgbaOutputFile11frameBufferEv
_ZNK7Imf_3_119TiledRgbaOutputFile11levelHeightEi
_ZNK7Imf_3_119TiledRgbaOutputFile12isValidLevelEii
_ZNK7Imf_3_119TiledRgbaOutputFile13displayWindowEv
_ZNK7Imf_3_119TiledRgbaOutputFile16pixelAspectRatioEv
_ZNK7Imf_3_119TiledRgbaOutputFile17dataWindowForTileEiii
_ZNK7Imf_3_119TiledRgbaOutputFile17dataWindowForTileEiiii
_ZNK7Imf_3_119TiledRgbaOutputFile17levelRoundingModeEv
_ZNK7Imf_3_119TiledRgbaOutputFile17screenWindowWidthEv
_ZNK7Imf_3_119TiledRgbaOutputFile18dataWindowForLevelEi
_ZNK7Imf_3_119TiledRgbaOutputFile18dataWindowForLevelEii
_ZNK7Imf_3_119TiledRgbaOutputFile18screenWindowCenterEv
_ZNK7Imf_3_119TiledRgbaOutputFile6headerEv
_ZNK7Imf_3_119TiledRgbaOutputFile8channelsEv
_ZNK7Imf_3_119TiledRgbaOutputFile9levelModeEv
_ZNK7Imf_3_119TiledRgbaOutputFile9lineOrderEv
_ZNK7Imf_3_119TiledRgbaOutputFile9numLevelsEv
_ZNK7Imf_3_119TiledRgbaOutputFile9numXTilesEi
_ZNK7Imf_3_119TiledRgbaOutputFile9numYTilesEi
_ZNK7Imf_3_119TiledRgbaOutputFile9tileXSizeEv
_ZNK7Imf_3_119TiledRgbaOutputFile9tileYSizeEv
_ZNK7Imf_3_121CompositeDeepScanLine10dataWindowEv
_ZNK7Imf_3_121CompositeDeepScanLine11frameBufferEv
_ZNK7Imf_3_121CompositeDeepScanLine7sourcesEv
_ZNK7Imf_3_121DeepScanLineInputFile10isCompleteEv
_ZNK7Imf_3_121DeepScanLineInputFile10readPixelsEPKcRKNS_15DeepFrameBufferEii
_ZNK7Imf_3_121DeepScanLineInputFile11frameBufferEv
_ZNK7Imf_3_121DeepScanLineInputFile19lastScanLineInChunkEi
_ZNK7Imf_3_121DeepScanLineInputFile20firstScanLineInChunkEi
_ZNK7Imf_3_121DeepScanLineInputFile21readPixelSampleCountsEPKcRKNS_15DeepFrameBufferEii
_ZNK7Imf_3_121DeepScanLineInputFile6headerEv
_ZNK7Imf_3_121DeepScanLineInputFile7versionEv
_ZNK7Imf_3_121DeepScanLineInputFile8fileNameEv
_ZNK7Imf_3_121DeepScanLineInputPart10isCompleteEv
_ZNK7Imf_3_121DeepScanLineInputPart10readPixelsEPKcRKNS_15DeepFrameBufferEii
_ZNK7Imf_3_121DeepScanLineInputPart11frameBufferEv
_ZNK7Imf_3_121DeepScanLineInputPart19lastScanLineInChunkEi
_ZNK7Imf_3_121DeepScanLineInputPart20firstScanLineInChunkEi
_ZNK7Imf_3_121DeepScanLineInputPart21readPixelSampleCountsEPKcRKNS_15DeepFrameBufferEii
_ZNK7Imf_3_121DeepScanLineInputPart6headerEv
_ZNK7Imf_3_121DeepScanLineInputPart7versionEv
_ZNK7Imf_3_121DeepScanLineInputPart8fileNameEv
_ZNK7Imf_3_122DeepScanLineOutputFile11frameBufferEv
_ZNK7Imf_3_122DeepScanLineOutputFile15currentScanLineEv
_ZNK7Imf_3_122DeepScanLineOutputFile6headerEv
_ZNK7Imf_3_122DeepScanLineOutputFile8fileNameEv
_ZNK7Imf_3_122DeepScanLineOutputPart11frameBufferEv
_ZNK7Imf_3_122DeepScanLineOutputPart15currentScanLineEv
_ZNK7Imf_3_122DeepScanLineOutputPart6headerEv
_ZNK7Imf_3_122DeepScanLineOutputPart8fileNameEv
_ZNK7Imf_3_16Header10chunkCountEv
_ZNK7Imf_3_16Header10dataWindowEv
_ZNK7Imf_3_16Header10hasVersionEv
_ZNK7Imf_3_16Header11compressionEv
_ZNK7Imf_3_16Header11sanityCheckEbb
_ZNK7Imf_3_16Header12previewImageEv
_ZNK7Imf_3_16Header13ConstIterator4nameEv
_ZNK7Imf_3_16Header13ConstIterator9attributeEv
_ZNK7Imf_3_16Header13displayWindowEv
_ZNK7Imf_3_16Header13hasChunkCountEv
_ZNK7Imf_3_16Header15hasPreviewImageEv
_ZNK7Imf_3_16Header15tileDescriptionEv
_ZNK7Imf_3_16Header16pixelAspectRatioEv
_ZNK7Imf_3_16Header17screenWindowWidthEv
_ZNK7Imf_3_16Header18hasTileDescriptionEv
_ZNK7Imf_3_16Header18screenWindowCenterEv
_ZNK7Imf_3_16Header19dwaCompressionLevelEv
_ZNK7Imf_3_16Header19zipCompressionLevelEv
_ZNK7Imf_3_16Header3endEv
_ZNK7Imf_3_16Header4findEPKc
_ZNK7Imf_3_16Header4findERKNSt3__112basic_stringIcNS1_11char_traitsIcEENS1_9allocatorIcEEEE
_ZNK7Imf_3_16Header4nameEv
_ZNK7Imf_3_16Header4typeEv
_ZNK7Imf_3_16Header4viewEv
_ZNK7Imf_3_16Header5beginEv
_ZNK7Imf_3_16Header7hasNameEv
_ZNK7Imf_3_16Header7hasTypeEv
_ZNK7Imf_3_16Header7hasViewEv
_ZNK7Imf_3_16Header7versionEv
_ZNK7Imf_3_16Header7writeToERNS_7OStreamEb
_ZNK7Imf_3_16Header8Iterator4nameEv
_ZNK7Imf_3_16Header8Iterator9attributeEv
_ZNK7Imf_3_16Header8channelsEv
_ZNK7Imf_3_16Header9lineOrderEv
_ZNK7Imf_3_16HeaderixEPKc
_ZNK7Imf_3_16HeaderixERKNSt3__112basic_stringIcNS1_11char_traitsIcEENS1_9allocatorIcEEEE
_ZNK7Imf_3_17ChanneleqERKS0_
_ZNK7Imf_3_17HalfLut5applyEPN9Imath_3_14halfEii
_ZNK7Imf_3_17HalfLut5applyERKNS_5SliceERKN9Imath_3_13BoxINS4_4Vec2IiEEEE
_ZNK7Imf_3_17IStream14isMemoryMappedEv
_ZNK7Imf_3_17IStream8fileNameEv
_ZNK7Imf_3_17KeyCode10perfOffsetEv
_ZNK7Imf_3_17KeyCode11filmMfcCodeEv
_ZNK7Imf_3_17KeyCode13perfsPerCountEv
_ZNK7Imf_3_17KeyCode13perfsPerFrameEv
_ZNK7Imf_3_17KeyCode5countEv
_ZNK7Imf_3_17KeyCode6prefixEv
_ZNK7Imf_3_17KeyCode8filmTypeEv
_ZNK7Imf_3_17OStream8fileNameEv
_ZNK7Imf_3_17RgbaLut5applyEPNS_4RgbaEii
_ZNK7Imf_3_17RgbaLut5applyEPNS_4RgbaEiiRKN9Imath_3_13BoxINS3_4Vec2IiEEEE
_ZNK7Imf_3_18TimeCode10colorFrameEv
_ZNK7Imf_3_18TimeCode10fieldPhaseEv
_ZNK7Imf_3_18TimeCode11binaryGroupEi
_ZNK7Imf_3_18TimeCode12timeAndFlagsENS0_7PackingE
_ZNK7Imf_3_18TimeCode4bgf0Ev
_ZNK7Imf_3_18TimeCode4bgf1Ev
_ZNK7Imf_3_18TimeCode4bgf2Ev
_ZNK7Imf_3_18TimeCode5frameEv
_ZNK7Imf_3_18TimeCode5hoursEv
_ZNK7Imf_3_18TimeCode7minutesEv
_ZNK7Imf_3_18TimeCode7secondsEv
_ZNK7Imf_3_18TimeCode8userDataEv
_ZNK7Imf_3_18TimeCode9dropFrameEv
_ZNK7Imf_3_18TimeCodeeqERKS0_
_ZNK7Imf_3_18TimeCodeneERKS0_
_ZNK7Imf_3_19InputFile10isCompleteEv
_ZNK7Imf_3_19InputFile11frameBufferEv
_ZNK7Imf_3_19InputFile20rawPixelDataToBufferEiPcRi
_ZNK7Imf_3_19InputFile21isOptimizationEnabledEv
_ZNK7Imf_3_19InputFile6headerEv
_ZNK7Imf_3_19InputFile7versionEv
_ZNK7Imf_3_19InputFile8fileNameEv
_ZNK7Imf_3_19InputPart10isCompleteEv
_ZNK7Imf_3_19InputPart11frameBufferEv
_ZNK7Imf_3_19InputPart20rawPixelDataToBufferEiPcRi
_ZNK7Imf_3_19InputPart21isOptimizationEnabledEv
_ZNK7Imf_3_19InputPart6headerEv
_ZNK7Imf_3_19InputPart7versionEv
_ZNK7Imf_3_19InputPart8fileNameEv
_ZTVN7Imf_3_114TypedAttributeIN9Imath_3_13BoxINS1_4Vec2IfEEEEEE DATA
_ZTVN7Imf_3_114TypedAttributeIN9Imath_3_13BoxINS1_4Vec2IiEEEEEE DATA
_ZTVN7Imf_3_114TypedAttributeIN9Imath_3_14Vec2IdEEEE DATA
_ZTVN7Imf_3_114TypedAttributeIN9Imath_3_14Vec2IfEEEE DATA
_ZTVN7Imf_3_114TypedAttributeIN9Imath_3_14Vec2IiEEEE DATA
_ZTVN7Imf_3_114TypedAttributeIN9Imath_3_14Vec3IdEEEE DATA
_ZTVN7Imf_3_114TypedAttributeIN9Imath_3_14Vec3IfEEEE DATA
_ZTVN7Imf_3_114TypedAttributeIN9Imath_3_14Vec3IiEEEE DATA
_ZTVN7Imf_3_114TypedAttributeIN9Imath_3_18Matrix33IdEEEE DATA
_ZTVN7Imf_3_114TypedAttributeIN9Imath_3_18Matrix33IfEEEE DATA
_ZTVN7Imf_3_114TypedAttributeIN9Imath_3_18Matrix44IdEEEE DATA
_ZTVN7Imf_3_114TypedAttributeIN9Imath_3_18Matrix44IfEEEE DATA
_ZTVN7Imf_3_114TypedAttributeINS_11ChannelListEEE DATA
_ZTVN7Imf_3_114TypedAttributeINS_11CompressionEEE DATA
_ZTVN7Imf_3_114TypedAttributeINS_12PreviewImageEEE DATA
_ZTVN7Imf_3_114TypedAttributeINS_14ChromaticitiesEEE DATA
_ZTVN7Imf_3_114TypedAttributeINS_14DeepImageStateEEE DATA
_ZTVN7Imf_3_114TypedAttributeINS_15TileDescriptionEEE DATA
_ZTVN7Imf_3_114TypedAttributeINS_20CompressedIDManifestEEE DATA
_ZTVN7Imf_3_114TypedAttributeINS_6EnvmapEEE DATA
_ZTVN7Imf_3_114TypedAttributeINS_7KeyCodeEEE DATA
_ZTVN7Imf_3_114TypedAttributeINS_8RationalEEE DATA
_ZTVN7Imf_3_114TypedAttributeINS_8TimeCodeEEE DATA
_ZTVN7Imf_3_114TypedAttributeINS_9LineOrderEEE DATA
_ZTVN7Imf_3_114TypedAttributeINSt3__112basic_stringIcNS1_11char_traitsIcEENS1_9allocatorIcEEEEEE DATA
_ZTVN7Imf_3_114TypedAttributeINSt3__16vectorINS1_12basic_stringIcNS1_11char_traitsIcEENS1_9allocatorIcEEEENS6_IS8_EEEEEE DATA
_ZTVN7Imf_3_114TypedAttributeINSt3__16vectorIfNS1_9allocatorIfEEEEEE DATA
_ZTVN7Imf_3_114TypedAttributeIdEE DATA
_ZTVN7Imf_3_114TypedAttributeIfEE DATA
_ZTVN7Imf_3_114TypedAttributeIiEE DATA
